
kernel:     file format elf64-littleriscv


Disassembly of section .text:

0000000080000000 <_entry>:
    80000000:	0000d117          	auipc	sp,0xd
    80000004:	c4813103          	ld	sp,-952(sp) # 8000cc48 <_GLOBAL_OFFSET_TABLE_+0x38>
    80000008:	00001537          	lui	a0,0x1
    8000000c:	f14025f3          	csrr	a1,mhartid
    80000010:	00158593          	addi	a1,a1,1
    80000014:	02b50533          	mul	a0,a0,a1
    80000018:	00a10133          	add	sp,sp,a0
    8000001c:	089070ef          	jal	ra,800078a4 <start>

0000000080000020 <spin>:
    80000020:	0000006f          	j	80000020 <spin>
	...

0000000080001000 <copy_and_swap>:
# a1 holds expected value
# a2 holds desired value
# a0 holds return value, 0 if successful, !0 otherwise
.global copy_and_swap
copy_and_swap:
    lr.w t0, (a0)          # Load original value.
    80001000:	100522af          	lr.w	t0,(a0)
    bne t0, a1, fail       # Doesn’t match, so fail.
    80001004:	00b29a63          	bne	t0,a1,80001018 <fail>
    sc.w t0, a2, (a0)      # Try to update.
    80001008:	18c522af          	sc.w	t0,a2,(a0)
    bnez t0, copy_and_swap # Retry if store-conditional failed.
    8000100c:	fe029ae3          	bnez	t0,80001000 <copy_and_swap>
    li a0, 0               # Set return to success.
    80001010:	00000513          	li	a0,0
    jr ra                  # Return.
    80001014:	00008067          	ret

0000000080001018 <fail>:
    fail:
    li a0, 1               # Set return to failure.
    80001018:	00100513          	li	a0,1
    8000101c:	00008067          	ret

0000000080001020 <supervisorTrap>:
.align 4
.global supervisorTrap
.type supervisorTrap @function
supervisorTrap:

    addi sp, sp, -24
    80001020:	fe810113          	addi	sp,sp,-24
    sd t0, 0(sp)
    80001024:	00513023          	sd	t0,0(sp)
    sd t1, 8(sp)
    80001028:	00613423          	sd	t1,8(sp)
    sd t2, 16(sp)
    8000102c:	00713823          	sd	t2,16(sp)
    csrr t0, scause
    80001030:	142022f3          	csrr	t0,scause
    li t1, 8
    80001034:	00800313          	li	t1,8
    li t2, 9
    80001038:	00900393          	li	t2,9
    beq t0, t1, ecall
    8000103c:	10628c63          	beq	t0,t1,80001154 <ecall>
    beq t0, t2, ecall
    80001040:	10728a63          	beq	t0,t2,80001154 <ecall>

    # spoljasnji prekidi nemaju povratnu vrednost => cuvamo i a0 (x10)
    addi sp, sp, -256
    80001044:	f0010113          	addi	sp,sp,-256
    .irp index, 0,1,2,3,4,5,6,7,8,9,10,11,12,13,14,15,16,17,18,19,20,21,22,23,24,25,26,27,28,29,30,31
    sd x\index, \index * 8(sp)
    .endr
    80001048:	00013023          	sd	zero,0(sp)
    8000104c:	00113423          	sd	ra,8(sp)
    80001050:	00213823          	sd	sp,16(sp)
    80001054:	00313c23          	sd	gp,24(sp)
    80001058:	02413023          	sd	tp,32(sp)
    8000105c:	02513423          	sd	t0,40(sp)
    80001060:	02613823          	sd	t1,48(sp)
    80001064:	02713c23          	sd	t2,56(sp)
    80001068:	04813023          	sd	s0,64(sp)
    8000106c:	04913423          	sd	s1,72(sp)
    80001070:	04a13823          	sd	a0,80(sp)
    80001074:	04b13c23          	sd	a1,88(sp)
    80001078:	06c13023          	sd	a2,96(sp)
    8000107c:	06d13423          	sd	a3,104(sp)
    80001080:	06e13823          	sd	a4,112(sp)
    80001084:	06f13c23          	sd	a5,120(sp)
    80001088:	09013023          	sd	a6,128(sp)
    8000108c:	09113423          	sd	a7,136(sp)
    80001090:	09213823          	sd	s2,144(sp)
    80001094:	09313c23          	sd	s3,152(sp)
    80001098:	0b413023          	sd	s4,160(sp)
    8000109c:	0b513423          	sd	s5,168(sp)
    800010a0:	0b613823          	sd	s6,176(sp)
    800010a4:	0b713c23          	sd	s7,184(sp)
    800010a8:	0d813023          	sd	s8,192(sp)
    800010ac:	0d913423          	sd	s9,200(sp)
    800010b0:	0da13823          	sd	s10,208(sp)
    800010b4:	0db13c23          	sd	s11,216(sp)
    800010b8:	0fc13023          	sd	t3,224(sp)
    800010bc:	0fd13423          	sd	t4,232(sp)
    800010c0:	0fe13823          	sd	t5,240(sp)
    800010c4:	0ff13c23          	sd	t6,248(sp)

    call handleInterrupt
    800010c8:	774020ef          	jal	ra,8000383c <handleInterrupt>

    .irp index, 0,1,2,3,4,5,6,7,8,9,10,11,12,13,14,15,16,17,18,19,20,21,22,23,24,25,26,27,28,29,30,31
    ld x\index, \index * 8(sp)
    .endr
    800010cc:	00013003          	ld	zero,0(sp)
    800010d0:	00813083          	ld	ra,8(sp)
    800010d4:	01013103          	ld	sp,16(sp)
    800010d8:	01813183          	ld	gp,24(sp)
    800010dc:	02013203          	ld	tp,32(sp)
    800010e0:	02813283          	ld	t0,40(sp)
    800010e4:	03013303          	ld	t1,48(sp)
    800010e8:	03813383          	ld	t2,56(sp)
    800010ec:	04013403          	ld	s0,64(sp)
    800010f0:	04813483          	ld	s1,72(sp)
    800010f4:	05013503          	ld	a0,80(sp)
    800010f8:	05813583          	ld	a1,88(sp)
    800010fc:	06013603          	ld	a2,96(sp)
    80001100:	06813683          	ld	a3,104(sp)
    80001104:	07013703          	ld	a4,112(sp)
    80001108:	07813783          	ld	a5,120(sp)
    8000110c:	08013803          	ld	a6,128(sp)
    80001110:	08813883          	ld	a7,136(sp)
    80001114:	09013903          	ld	s2,144(sp)
    80001118:	09813983          	ld	s3,152(sp)
    8000111c:	0a013a03          	ld	s4,160(sp)
    80001120:	0a813a83          	ld	s5,168(sp)
    80001124:	0b013b03          	ld	s6,176(sp)
    80001128:	0b813b83          	ld	s7,184(sp)
    8000112c:	0c013c03          	ld	s8,192(sp)
    80001130:	0c813c83          	ld	s9,200(sp)
    80001134:	0d013d03          	ld	s10,208(sp)
    80001138:	0d813d83          	ld	s11,216(sp)
    8000113c:	0e013e03          	ld	t3,224(sp)
    80001140:	0e813e83          	ld	t4,232(sp)
    80001144:	0f013f03          	ld	t5,240(sp)
    80001148:	0f813f83          	ld	t6,248(sp)
    addi sp, sp, 256
    8000114c:	10010113          	addi	sp,sp,256

    j return
    80001150:	1080006f          	j	80001258 <return>

0000000080001154 <ecall>:

ecall:
    # If scause register is 8 or 9
    addi sp, sp, -256
    80001154:	f0010113          	addi	sp,sp,-256
    .irp index, 0,1,2,3,4,5,6,7,8,9,11,12,13,14,15,16,17,18,19,20,21,22,23,24,25,26,27,28,29,30,31
    sd x\index, \index * 8(sp)
    .endr
    80001158:	00013023          	sd	zero,0(sp)
    8000115c:	00113423          	sd	ra,8(sp)
    80001160:	00213823          	sd	sp,16(sp)
    80001164:	00313c23          	sd	gp,24(sp)
    80001168:	02413023          	sd	tp,32(sp)
    8000116c:	02513423          	sd	t0,40(sp)
    80001170:	02613823          	sd	t1,48(sp)
    80001174:	02713c23          	sd	t2,56(sp)
    80001178:	04813023          	sd	s0,64(sp)
    8000117c:	04913423          	sd	s1,72(sp)
    80001180:	04b13c23          	sd	a1,88(sp)
    80001184:	06c13023          	sd	a2,96(sp)
    80001188:	06d13423          	sd	a3,104(sp)
    8000118c:	06e13823          	sd	a4,112(sp)
    80001190:	06f13c23          	sd	a5,120(sp)
    80001194:	09013023          	sd	a6,128(sp)
    80001198:	09113423          	sd	a7,136(sp)
    8000119c:	09213823          	sd	s2,144(sp)
    800011a0:	09313c23          	sd	s3,152(sp)
    800011a4:	0b413023          	sd	s4,160(sp)
    800011a8:	0b513423          	sd	s5,168(sp)
    800011ac:	0b613823          	sd	s6,176(sp)
    800011b0:	0b713c23          	sd	s7,184(sp)
    800011b4:	0d813023          	sd	s8,192(sp)
    800011b8:	0d913423          	sd	s9,200(sp)
    800011bc:	0da13823          	sd	s10,208(sp)
    800011c0:	0db13c23          	sd	s11,216(sp)
    800011c4:	0fc13023          	sd	t3,224(sp)
    800011c8:	0fd13423          	sd	t4,232(sp)
    800011cc:	0fe13823          	sd	t5,240(sp)
    800011d0:	0ff13c23          	sd	t6,248(sp)
    
    call handleEcall
    800011d4:	3d8020ef          	jal	ra,800035ac <handleEcall>
    
    .irp index, 0,1,2,3,4,5,6,7,8,9,11,12,13,14,15,16,17,18,19,20,21,22,23,24,25,26,27,28,29,30,31
    ld x\index, \index * 8(sp)
    .endr
    800011d8:	00013003          	ld	zero,0(sp)
    800011dc:	00813083          	ld	ra,8(sp)
    800011e0:	01013103          	ld	sp,16(sp)
    800011e4:	01813183          	ld	gp,24(sp)
    800011e8:	02013203          	ld	tp,32(sp)
    800011ec:	02813283          	ld	t0,40(sp)
    800011f0:	03013303          	ld	t1,48(sp)
    800011f4:	03813383          	ld	t2,56(sp)
    800011f8:	04013403          	ld	s0,64(sp)
    800011fc:	04813483          	ld	s1,72(sp)
    80001200:	05813583          	ld	a1,88(sp)
    80001204:	06013603          	ld	a2,96(sp)
    80001208:	06813683          	ld	a3,104(sp)
    8000120c:	07013703          	ld	a4,112(sp)
    80001210:	07813783          	ld	a5,120(sp)
    80001214:	08013803          	ld	a6,128(sp)
    80001218:	08813883          	ld	a7,136(sp)
    8000121c:	09013903          	ld	s2,144(sp)
    80001220:	09813983          	ld	s3,152(sp)
    80001224:	0a013a03          	ld	s4,160(sp)
    80001228:	0a813a83          	ld	s5,168(sp)
    8000122c:	0b013b03          	ld	s6,176(sp)
    80001230:	0b813b83          	ld	s7,184(sp)
    80001234:	0c013c03          	ld	s8,192(sp)
    80001238:	0c813c83          	ld	s9,200(sp)
    8000123c:	0d013d03          	ld	s10,208(sp)
    80001240:	0d813d83          	ld	s11,216(sp)
    80001244:	0e013e03          	ld	t3,224(sp)
    80001248:	0e813e83          	ld	t4,232(sp)
    8000124c:	0f013f03          	ld	t5,240(sp)
    80001250:	0f813f83          	ld	t6,248(sp)
    addi sp, sp, 256
    80001254:	10010113          	addi	sp,sp,256

0000000080001258 <return>:
    
    
return:
    ld t0, 0(sp)
    80001258:	00013283          	ld	t0,0(sp)
    ld t1, 8(sp)
    8000125c:	00813303          	ld	t1,8(sp)
    ld t2, 16(sp)
    80001260:	01013383          	ld	t2,16(sp)
    addi sp, sp, 24
    80001264:	01810113          	addi	sp,sp,24
    80001268:	10200073          	sret

000000008000126c <contextSwitch>:
.global contextSwitch
.type contextSwitch, @function
contextSwitch:
    sd ra, 0 * 8(a0)
    8000126c:	00153023          	sd	ra,0(a0) # 1000 <_entry-0x7ffff000>
    sd sp, 1 * 8(a0)
    80001270:	00253423          	sd	sp,8(a0)

    ld ra, 0 * 8(a1)
    80001274:	0005b083          	ld	ra,0(a1)
    ld sp, 1 * 8(a1)
    80001278:	0085b103          	ld	sp,8(a1)

    8000127c:	00008067          	ret

0000000080001280 <_Z9mem_allocm>:

#include <stdarg.h>

#define CONSOLE_CAN_READ ((*(char*)CONSOLE_STATUS)&CONSOLE_RX_STATUS_BIT)

void* mem_alloc (size_t size){
    80001280:	fe010113          	addi	sp,sp,-32
    80001284:	00113c23          	sd	ra,24(sp)
    80001288:	00813823          	sd	s0,16(sp)
    8000128c:	02010413          	addi	s0,sp,32
    uint64 blocks = (size+MEM_BLOCK_SIZE-1)/MEM_BLOCK_SIZE;
    80001290:	03f50593          	addi	a1,a0,63
    kern_syscall(MEM_ALLOC, blocks);
    80001294:	0065d593          	srli	a1,a1,0x6
    80001298:	00100513          	li	a0,1
    8000129c:	00002097          	auipc	ra,0x2
    800012a0:	2d8080e7          	jalr	728(ra) # 80003574 <_Z12kern_syscall13SyscallNumberz>
};

inline uint64 r_a0()
{
    uint64 volatile a0;
    __asm__ volatile ("mv %[a0], a0" : [a0] "=r"(a0));
    800012a4:	00050793          	mv	a5,a0
    800012a8:	fef43423          	sd	a5,-24(s0)
    return a0;
    800012ac:	fe843503          	ld	a0,-24(s0)
    uint64 newBlockAddr = r_a0();
    return (void *) newBlockAddr;
}
    800012b0:	01813083          	ld	ra,24(sp)
    800012b4:	01013403          	ld	s0,16(sp)
    800012b8:	02010113          	addi	sp,sp,32
    800012bc:	00008067          	ret

00000000800012c0 <_Z8mem_freePv>:

int mem_free (void* addr){
    800012c0:	fe010113          	addi	sp,sp,-32
    800012c4:	00113c23          	sd	ra,24(sp)
    800012c8:	00813823          	sd	s0,16(sp)
    800012cc:	02010413          	addi	s0,sp,32
    800012d0:	00050593          	mv	a1,a0
    kern_syscall(MEM_FREE,addr);
    800012d4:	00200513          	li	a0,2
    800012d8:	00002097          	auipc	ra,0x2
    800012dc:	29c080e7          	jalr	668(ra) # 80003574 <_Z12kern_syscall13SyscallNumberz>
    __asm__ volatile ("mv %[a0], a0" : [a0] "=r"(a0));
    800012e0:	00050793          	mv	a5,a0
    800012e4:	fef43423          	sd	a5,-24(s0)
    return a0;
    800012e8:	fe843503          	ld	a0,-24(s0)
    int res = (int) r_a0();
    return res;
}
    800012ec:	0005051b          	sext.w	a0,a0
    800012f0:	01813083          	ld	ra,24(sp)
    800012f4:	01013403          	ld	s0,16(sp)
    800012f8:	02010113          	addi	sp,sp,32
    800012fc:	00008067          	ret

0000000080001300 <_Z13thread_createPP8thread_sPFvPvES2_>:

struct thread_s;
typedef struct thread_s* thread_t;

int thread_create (thread_t* handle, void(*start_routine)(void*), void* arg)
{
    80001300:	fc010113          	addi	sp,sp,-64
    80001304:	02113c23          	sd	ra,56(sp)
    80001308:	02813823          	sd	s0,48(sp)
    8000130c:	02913423          	sd	s1,40(sp)
    80001310:	03213023          	sd	s2,32(sp)
    80001314:	01313c23          	sd	s3,24(sp)
    80001318:	04010413          	addi	s0,sp,64
    8000131c:	00050493          	mv	s1,a0
    80001320:	00058913          	mv	s2,a1
    80001324:	00060993          	mv	s3,a2
    void * stack = mem_alloc(DEFAULT_STACK_SIZE);
    80001328:	00001537          	lui	a0,0x1
    8000132c:	00000097          	auipc	ra,0x0
    80001330:	f54080e7          	jalr	-172(ra) # 80001280 <_Z9mem_allocm>
    if(stack==0) return -1;
    80001334:	04050663          	beqz	a0,80001380 <_Z13thread_createPP8thread_sPFvPvES2_+0x80>
    80001338:	00050713          	mv	a4,a0
    kern_syscall(THREAD_CREATE,handle,start_routine,arg,stack);
    8000133c:	00098693          	mv	a3,s3
    80001340:	00090613          	mv	a2,s2
    80001344:	00048593          	mv	a1,s1
    80001348:	01100513          	li	a0,17
    8000134c:	00002097          	auipc	ra,0x2
    80001350:	228080e7          	jalr	552(ra) # 80003574 <_Z12kern_syscall13SyscallNumberz>
    __asm__ volatile ("mv %[a0], a0" : [a0] "=r"(a0));
    80001354:	00050793          	mv	a5,a0
    80001358:	fcf43423          	sd	a5,-56(s0)
    return a0;
    8000135c:	fc843503          	ld	a0,-56(s0)
    int res = r_a0();
    80001360:	0005051b          	sext.w	a0,a0
    return res;
}
    80001364:	03813083          	ld	ra,56(sp)
    80001368:	03013403          	ld	s0,48(sp)
    8000136c:	02813483          	ld	s1,40(sp)
    80001370:	02013903          	ld	s2,32(sp)
    80001374:	01813983          	ld	s3,24(sp)
    80001378:	04010113          	addi	sp,sp,64
    8000137c:	00008067          	ret
    if(stack==0) return -1;
    80001380:	fff00513          	li	a0,-1
    80001384:	fe1ff06f          	j	80001364 <_Z13thread_createPP8thread_sPFvPvES2_+0x64>

0000000080001388 <_Z15thread_dispatchv>:

void thread_dispatch(){
    80001388:	ff010113          	addi	sp,sp,-16
    8000138c:	00113423          	sd	ra,8(sp)
    80001390:	00813023          	sd	s0,0(sp)
    80001394:	01010413          	addi	s0,sp,16
    kern_syscall(THREAD_DISPATCH);
    80001398:	01300513          	li	a0,19
    8000139c:	00002097          	auipc	ra,0x2
    800013a0:	1d8080e7          	jalr	472(ra) # 80003574 <_Z12kern_syscall13SyscallNumberz>
}
    800013a4:	00813083          	ld	ra,8(sp)
    800013a8:	00013403          	ld	s0,0(sp)
    800013ac:	01010113          	addi	sp,sp,16
    800013b0:	00008067          	ret

00000000800013b4 <_Z11thread_exitv>:

int thread_exit ()
{
    800013b4:	fe010113          	addi	sp,sp,-32
    800013b8:	00113c23          	sd	ra,24(sp)
    800013bc:	00813823          	sd	s0,16(sp)
    800013c0:	00913423          	sd	s1,8(sp)
    800013c4:	02010413          	addi	s0,sp,32
    void* stack = (void*)running->stack_space;
    800013c8:	0000c797          	auipc	a5,0xc
    800013cc:	8687b783          	ld	a5,-1944(a5) # 8000cc30 <_GLOBAL_OFFSET_TABLE_+0x20>
    800013d0:	0007b783          	ld	a5,0(a5)
    800013d4:	0407b483          	ld	s1,64(a5)
    kern_syscall(THREAD_EXIT);
    800013d8:	01200513          	li	a0,18
    800013dc:	00002097          	auipc	ra,0x2
    800013e0:	198080e7          	jalr	408(ra) # 80003574 <_Z12kern_syscall13SyscallNumberz>
    kern_syscall(MEM_FREE,stack);
    800013e4:	00048593          	mv	a1,s1
    800013e8:	00200513          	li	a0,2
    800013ec:	00002097          	auipc	ra,0x2
    800013f0:	188080e7          	jalr	392(ra) # 80003574 <_Z12kern_syscall13SyscallNumberz>
    return 0;
}
    800013f4:	00000513          	li	a0,0
    800013f8:	01813083          	ld	ra,24(sp)
    800013fc:	01013403          	ld	s0,16(sp)
    80001400:	00813483          	ld	s1,8(sp)
    80001404:	02010113          	addi	sp,sp,32
    80001408:	00008067          	ret

000000008000140c <_Z11thread_joinP8thread_s>:

void thread_join(thread_t handle)
{
    8000140c:	ff010113          	addi	sp,sp,-16
    80001410:	00113423          	sd	ra,8(sp)
    80001414:	00813023          	sd	s0,0(sp)
    80001418:	01010413          	addi	s0,sp,16
    8000141c:	00050593          	mv	a1,a0
    kern_syscall(THREAD_JOIN,handle);
    80001420:	01400513          	li	a0,20
    80001424:	00002097          	auipc	ra,0x2
    80001428:	150080e7          	jalr	336(ra) # 80003574 <_Z12kern_syscall13SyscallNumberz>
}
    8000142c:	00813083          	ld	ra,8(sp)
    80001430:	00013403          	ld	s0,0(sp)
    80001434:	01010113          	addi	sp,sp,16
    80001438:	00008067          	ret

000000008000143c <_Z8sem_openPP5sem_sj>:

int sem_open (sem_t* handle, unsigned init)
{
    8000143c:	fe010113          	addi	sp,sp,-32
    80001440:	00113c23          	sd	ra,24(sp)
    80001444:	00813823          	sd	s0,16(sp)
    80001448:	02010413          	addi	s0,sp,32
    8000144c:	00058613          	mv	a2,a1
    kern_syscall(SEM_OPEN,handle,init);
    80001450:	00050593          	mv	a1,a0
    80001454:	02100513          	li	a0,33
    80001458:	00002097          	auipc	ra,0x2
    8000145c:	11c080e7          	jalr	284(ra) # 80003574 <_Z12kern_syscall13SyscallNumberz>
    __asm__ volatile ("mv %[a0], a0" : [a0] "=r"(a0));
    80001460:	00050793          	mv	a5,a0
    80001464:	fef43423          	sd	a5,-24(s0)
    return a0;
    80001468:	fe843503          	ld	a0,-24(s0)
    int res = r_a0();
    return res;
}
    8000146c:	0005051b          	sext.w	a0,a0
    80001470:	01813083          	ld	ra,24(sp)
    80001474:	01013403          	ld	s0,16(sp)
    80001478:	02010113          	addi	sp,sp,32
    8000147c:	00008067          	ret

0000000080001480 <_Z9sem_closeP5sem_s>:

int sem_close (sem_t handle)
{
    80001480:	fe010113          	addi	sp,sp,-32
    80001484:	00113c23          	sd	ra,24(sp)
    80001488:	00813823          	sd	s0,16(sp)
    8000148c:	02010413          	addi	s0,sp,32
    80001490:	00050593          	mv	a1,a0
    kern_syscall(SEM_CLOSE,handle);
    80001494:	02200513          	li	a0,34
    80001498:	00002097          	auipc	ra,0x2
    8000149c:	0dc080e7          	jalr	220(ra) # 80003574 <_Z12kern_syscall13SyscallNumberz>
    __asm__ volatile ("mv %[a0], a0" : [a0] "=r"(a0));
    800014a0:	00050793          	mv	a5,a0
    800014a4:	fef43423          	sd	a5,-24(s0)
    return a0;
    800014a8:	fe843503          	ld	a0,-24(s0)
    int res = r_a0();
    return res;
}
    800014ac:	0005051b          	sext.w	a0,a0
    800014b0:	01813083          	ld	ra,24(sp)
    800014b4:	01013403          	ld	s0,16(sp)
    800014b8:	02010113          	addi	sp,sp,32
    800014bc:	00008067          	ret

00000000800014c0 <_Z8sem_waitP5sem_s>:

int sem_wait (sem_t id)
{
    800014c0:	fe010113          	addi	sp,sp,-32
    800014c4:	00113c23          	sd	ra,24(sp)
    800014c8:	00813823          	sd	s0,16(sp)
    800014cc:	02010413          	addi	s0,sp,32
    800014d0:	00050593          	mv	a1,a0
    kern_syscall(SEM_WAIT,id);
    800014d4:	02300513          	li	a0,35
    800014d8:	00002097          	auipc	ra,0x2
    800014dc:	09c080e7          	jalr	156(ra) # 80003574 <_Z12kern_syscall13SyscallNumberz>
    __asm__ volatile ("mv %[a0], a0" : [a0] "=r"(a0));
    800014e0:	00050793          	mv	a5,a0
    800014e4:	fef43423          	sd	a5,-24(s0)
    return a0;
    800014e8:	fe843503          	ld	a0,-24(s0)
    int res = r_a0();
    return res;
}
    800014ec:	0005051b          	sext.w	a0,a0
    800014f0:	01813083          	ld	ra,24(sp)
    800014f4:	01013403          	ld	s0,16(sp)
    800014f8:	02010113          	addi	sp,sp,32
    800014fc:	00008067          	ret

0000000080001500 <_Z10sem_signalP5sem_s>:

int sem_signal (sem_t id){
    80001500:	fe010113          	addi	sp,sp,-32
    80001504:	00113c23          	sd	ra,24(sp)
    80001508:	00813823          	sd	s0,16(sp)
    8000150c:	02010413          	addi	s0,sp,32
    80001510:	00050593          	mv	a1,a0
    kern_syscall(SEM_SIGNAL,id);
    80001514:	02400513          	li	a0,36
    80001518:	00002097          	auipc	ra,0x2
    8000151c:	05c080e7          	jalr	92(ra) # 80003574 <_Z12kern_syscall13SyscallNumberz>
    __asm__ volatile ("mv %[a0], a0" : [a0] "=r"(a0));
    80001520:	00050793          	mv	a5,a0
    80001524:	fef43423          	sd	a5,-24(s0)
    return a0;
    80001528:	fe843503          	ld	a0,-24(s0)
    int res = r_a0();
    return res;
}
    8000152c:	0005051b          	sext.w	a0,a0
    80001530:	01813083          	ld	ra,24(sp)
    80001534:	01013403          	ld	s0,16(sp)
    80001538:	02010113          	addi	sp,sp,32
    8000153c:	00008067          	ret

0000000080001540 <_Z10time_sleepm>:

int time_sleep(unsigned long time){
    80001540:	ff010113          	addi	sp,sp,-16
    80001544:	00113423          	sd	ra,8(sp)
    80001548:	00813023          	sd	s0,0(sp)
    8000154c:	01010413          	addi	s0,sp,16
    80001550:	00050593          	mv	a1,a0
    kern_syscall(TIME_SLEEP,time);
    80001554:	03100513          	li	a0,49
    80001558:	00002097          	auipc	ra,0x2
    8000155c:	01c080e7          	jalr	28(ra) # 80003574 <_Z12kern_syscall13SyscallNumberz>
    return 0;
}
    80001560:	00000513          	li	a0,0
    80001564:	00813083          	ld	ra,8(sp)
    80001568:	00013403          	ld	s0,0(sp)
    8000156c:	01010113          	addi	sp,sp,16
    80001570:	00008067          	ret

0000000080001574 <_Z4getcv>:

#define Reg(reg) ((volatile unsigned char *)(reg))

char getc(){
    80001574:	fe010113          	addi	sp,sp,-32
    80001578:	00113c23          	sd	ra,24(sp)
    8000157c:	00813823          	sd	s0,16(sp)
    80001580:	02010413          	addi	s0,sp,32
    kern_syscall(GETC);
    80001584:	04100513          	li	a0,65
    80001588:	00002097          	auipc	ra,0x2
    8000158c:	fec080e7          	jalr	-20(ra) # 80003574 <_Z12kern_syscall13SyscallNumberz>
    __asm__ volatile ("mv %[a0], a0" : [a0] "=r"(a0));
    80001590:	00050793          	mv	a5,a0
    80001594:	fef43423          	sd	a5,-24(s0)
    return a0;
    80001598:	fe843503          	ld	a0,-24(s0)
    char c = r_a0();
    return c;
}
    8000159c:	0ff57513          	andi	a0,a0,255
    800015a0:	01813083          	ld	ra,24(sp)
    800015a4:	01013403          	ld	s0,16(sp)
    800015a8:	02010113          	addi	sp,sp,32
    800015ac:	00008067          	ret

00000000800015b0 <_Z4putcc>:


void putc(char c){
    800015b0:	ff010113          	addi	sp,sp,-16
    800015b4:	00113423          	sd	ra,8(sp)
    800015b8:	00813023          	sd	s0,0(sp)
    800015bc:	01010413          	addi	s0,sp,16
    800015c0:	00050593          	mv	a1,a0
    kern_syscall(PUTC,c);
    800015c4:	04200513          	li	a0,66
    800015c8:	00002097          	auipc	ra,0x2
    800015cc:	fac080e7          	jalr	-84(ra) # 80003574 <_Z12kern_syscall13SyscallNumberz>
}
    800015d0:	00813083          	ld	ra,8(sp)
    800015d4:	00013403          	ld	s0,0(sp)
    800015d8:	01010113          	addi	sp,sp,16
    800015dc:	00008067          	ret

00000000800015e0 <_Z26bba_print_used_blocks_infov>:
char* buddyMemStart;
char* buddyMemEnd;


void bba_print_used_blocks_info()
{
    800015e0:	fe010113          	addi	sp,sp,-32
    800015e4:	00113c23          	sd	ra,24(sp)
    800015e8:	00813823          	sd	s0,16(sp)
    800015ec:	00913423          	sd	s1,8(sp)
    800015f0:	02010413          	addi	s0,sp,32
    bba_block_t * curr = bba_allocatedBlocks;
    800015f4:	0000b497          	auipc	s1,0xb
    800015f8:	6ac4b483          	ld	s1,1708(s1) # 8000cca0 <bba_allocatedBlocks>
    while (curr){
    800015fc:	04048263          	beqz	s1,80001640 <_Z26bba_print_used_blocks_infov+0x60>
        printf("\nBlock of size %d is allocated on addr start+%lx and its descriptor is located at start+%lx (%lx), ends at start+%lx", curr->n, curr->addr-buddyMemStart, (char*)curr-buddyMemStart,curr,curr->addr-buddyMemStart+(1<<curr->n));
    80001600:	0084a583          	lw	a1,8(s1)
    80001604:	0104b603          	ld	a2,16(s1)
    80001608:	0000b697          	auipc	a3,0xb
    8000160c:	6a06b683          	ld	a3,1696(a3) # 8000cca8 <buddyMemStart>
    80001610:	40d60633          	sub	a2,a2,a3
    80001614:	00100793          	li	a5,1
    80001618:	00b797bb          	sllw	a5,a5,a1
    8000161c:	00f607b3          	add	a5,a2,a5
    80001620:	00048713          	mv	a4,s1
    80001624:	40d486b3          	sub	a3,s1,a3
    80001628:	00009517          	auipc	a0,0x9
    8000162c:	9f850513          	addi	a0,a0,-1544 # 8000a020 <CONSOLE_STATUS+0x10>
    80001630:	00001097          	auipc	ra,0x1
    80001634:	c10080e7          	jalr	-1008(ra) # 80002240 <_Z6printfPKcz>
        curr=curr->next;
    80001638:	0004b483          	ld	s1,0(s1)
    while (curr){
    8000163c:	fc1ff06f          	j	800015fc <_Z26bba_print_used_blocks_infov+0x1c>
    }
}
    80001640:	01813083          	ld	ra,24(sp)
    80001644:	01013403          	ld	s0,16(sp)
    80001648:	00813483          	ld	s1,8(sp)
    8000164c:	02010113          	addi	sp,sp,32
    80001650:	00008067          	ret

0000000080001654 <_Z26bba_print_free_blocks_infov>:

void bba_print_free_blocks_info()
{
    80001654:	fe010113          	addi	sp,sp,-32
    80001658:	00113c23          	sd	ra,24(sp)
    8000165c:	00813823          	sd	s0,16(sp)
    80001660:	00913423          	sd	s1,8(sp)
    80001664:	01213023          	sd	s2,0(sp)
    80001668:	02010413          	addi	s0,sp,32
    printf("\n BLOCK INFO");
    8000166c:	00009517          	auipc	a0,0x9
    80001670:	a2c50513          	addi	a0,a0,-1492 # 8000a098 <CONSOLE_STATUS+0x88>
    80001674:	00001097          	auipc	ra,0x1
    80001678:	bcc080e7          	jalr	-1076(ra) # 80002240 <_Z6printfPKcz>
    for (int i=0;i<18;i++){
    8000167c:	00000913          	li	s2,0
    80001680:	0400006f          	j	800016c0 <_Z26bba_print_free_blocks_infov+0x6c>
        bba_block_t* p = buddyBlocks[i];
        while (p!=0){
            printf("\n block of size %d (n=%d) at address start+%p (%p), ends at start+%p",(1<<i), i, (char*)p-buddyMemStart,p,(char*)p-buddyMemStart+(1<<i));
    80001684:	00100593          	li	a1,1
    80001688:	012595bb          	sllw	a1,a1,s2
    8000168c:	0000b697          	auipc	a3,0xb
    80001690:	61c6b683          	ld	a3,1564(a3) # 8000cca8 <buddyMemStart>
    80001694:	40d486b3          	sub	a3,s1,a3
    80001698:	00b687b3          	add	a5,a3,a1
    8000169c:	00048713          	mv	a4,s1
    800016a0:	00090613          	mv	a2,s2
    800016a4:	00009517          	auipc	a0,0x9
    800016a8:	a0450513          	addi	a0,a0,-1532 # 8000a0a8 <CONSOLE_STATUS+0x98>
    800016ac:	00001097          	auipc	ra,0x1
    800016b0:	b94080e7          	jalr	-1132(ra) # 80002240 <_Z6printfPKcz>
            p=p->next;
    800016b4:	0004b483          	ld	s1,0(s1)
        while (p!=0){
    800016b8:	fc0496e3          	bnez	s1,80001684 <_Z26bba_print_free_blocks_infov+0x30>
    for (int i=0;i<18;i++){
    800016bc:	0019091b          	addiw	s2,s2,1
    800016c0:	01100793          	li	a5,17
    800016c4:	0127ce63          	blt	a5,s2,800016e0 <_Z26bba_print_free_blocks_infov+0x8c>
        bba_block_t* p = buddyBlocks[i];
    800016c8:	00391713          	slli	a4,s2,0x3
    800016cc:	0000b797          	auipc	a5,0xb
    800016d0:	5d478793          	addi	a5,a5,1492 # 8000cca0 <bba_allocatedBlocks>
    800016d4:	00e787b3          	add	a5,a5,a4
    800016d8:	0107b483          	ld	s1,16(a5)
    800016dc:	fddff06f          	j	800016b8 <_Z26bba_print_free_blocks_infov+0x64>
        }
    }
}
    800016e0:	01813083          	ld	ra,24(sp)
    800016e4:	01013403          	ld	s0,16(sp)
    800016e8:	00813483          	ld	s1,8(sp)
    800016ec:	00013903          	ld	s2,0(sp)
    800016f0:	02010113          	addi	sp,sp,32
    800016f4:	00008067          	ret

00000000800016f8 <_Z8bba_initPcS_>:
void bba_init(char* start, char *end)
{
    800016f8:	ff010113          	addi	sp,sp,-16
    800016fc:	00813423          	sd	s0,8(sp)
    80001700:	01010413          	addi	s0,sp,16

    //printf("\noldStart: %ld", (long)start);
    if((long)start%MINBBSIZE!=0) start = (char*) (( ((long)start / MINBBSIZE) +1)*MINBBSIZE); //align start to MINBBSIZE
    80001704:	01f57793          	andi	a5,a0,31
    80001708:	00078e63          	beqz	a5,80001724 <_Z8bba_initPcS_+0x2c>
    8000170c:	43f55793          	srai	a5,a0,0x3f
    80001710:	01f7f793          	andi	a5,a5,31
    80001714:	00f50533          	add	a0,a0,a5
    80001718:	40555513          	srai	a0,a0,0x5
    8000171c:	00150513          	addi	a0,a0,1
    80001720:	00551513          	slli	a0,a0,0x5
    if((long)end%MINBBSIZE!=0) end = (char*) (( ((long)end / MINBBSIZE) -1)*MINBBSIZE); //align end to MINBBSIZE
    80001724:	01f5f793          	andi	a5,a1,31
    80001728:	00078e63          	beqz	a5,80001744 <_Z8bba_initPcS_+0x4c>
    8000172c:	43f5d793          	srai	a5,a1,0x3f
    80001730:	01f7f793          	andi	a5,a5,31
    80001734:	00f585b3          	add	a1,a1,a5
    80001738:	4055d593          	srai	a1,a1,0x5
    8000173c:	fff58593          	addi	a1,a1,-1
    80001740:	00559593          	slli	a1,a1,0x5
    //printf("\nstart: %ld", (long)start);
    //printf("\nend: %ld", (long)end);
    buddyMemStart=start;
    80001744:	0000b797          	auipc	a5,0xb
    80001748:	55c78793          	addi	a5,a5,1372 # 8000cca0 <bba_allocatedBlocks>
    8000174c:	00a7b423          	sd	a0,8(a5)
    buddyMemEnd=end;
    80001750:	0ab7b023          	sd	a1,160(a5)

    //printf("\nspace size=%d", end-start);

    for(int i=0;i<17;i++){
    80001754:	00000793          	li	a5,0
    80001758:	01000713          	li	a4,16
    8000175c:	06f74863          	blt	a4,a5,800017cc <_Z8bba_initPcS_+0xd4>
        buddyBlocks[i] = 0;
    80001760:	00379693          	slli	a3,a5,0x3
    80001764:	0000b717          	auipc	a4,0xb
    80001768:	53c70713          	addi	a4,a4,1340 # 8000cca0 <bba_allocatedBlocks>
    8000176c:	00d70733          	add	a4,a4,a3
    80001770:	00073823          	sd	zero,16(a4)
    for(int i=0;i<17;i++){
    80001774:	0017879b          	addiw	a5,a5,1
    80001778:	fe1ff06f          	j	80001758 <_Z8bba_initPcS_+0x60>

    int allocatedSize = 0;
    while(a<end){
        //printf("\n a=%ld",(long)a);
        int n=5;
        while(a+(1<<n)<=end && n<18) n++; // maximum block size is 2^17
    8000177c:	0017071b          	addiw	a4,a4,1
    80001780:	00100793          	li	a5,1
    80001784:	00e797bb          	sllw	a5,a5,a4
    80001788:	00f507b3          	add	a5,a0,a5
    8000178c:	00f5e663          	bltu	a1,a5,80001798 <_Z8bba_initPcS_+0xa0>
    80001790:	01100793          	li	a5,17
    80001794:	fee7d4e3          	bge	a5,a4,8000177c <_Z8bba_initPcS_+0x84>
        n--;
    80001798:	fff7071b          	addiw	a4,a4,-1
    8000179c:	0007069b          	sext.w	a3,a4

        bba_block_t *newBlock = (bba_block_t*) a;
        newBlock->n=n;
    800017a0:	00e52423          	sw	a4,8(a0)
        newBlock->next=buddyBlocks[n];
    800017a4:	00369713          	slli	a4,a3,0x3
    800017a8:	0000b797          	auipc	a5,0xb
    800017ac:	4f878793          	addi	a5,a5,1272 # 8000cca0 <bba_allocatedBlocks>
    800017b0:	00e787b3          	add	a5,a5,a4
    800017b4:	0107b703          	ld	a4,16(a5)
    800017b8:	00e53023          	sd	a4,0(a0)
        buddyBlocks[n] = newBlock; //ulancavamo novi blok na pocetak liste
    800017bc:	00a7b823          	sd	a0,16(a5)

        //printf("\n n=%d, block of size %ld allocated at %ld",n,(1<<n), (long)a);
        allocatedSize+=(1<<n);
    800017c0:	00100793          	li	a5,1
    800017c4:	00d797bb          	sllw	a5,a5,a3
        a+=(1<<n);
    800017c8:	00f50533          	add	a0,a0,a5
    while(a<end){
    800017cc:	00b57663          	bgeu	a0,a1,800017d8 <_Z8bba_initPcS_+0xe0>
        int n=5;
    800017d0:	00500713          	li	a4,5
    800017d4:	fadff06f          	j	80001780 <_Z8bba_initPcS_+0x88>
    }


    //printf("\nallocatedSize=%d\n",allocatedSize);
    //bba_print_free_blocks_info();
}
    800017d8:	00813403          	ld	s0,8(sp)
    800017dc:	01010113          	addi	sp,sp,16
    800017e0:	00008067          	ret

00000000800017e4 <_Z9bba_spliti>:

void bba_split(int n) //blok velicine n deli na 2 velicine n-1, ne alocira nista, ulancava oba nova bloka
{
    if(n==0) return;
    800017e4:	0a050063          	beqz	a0,80001884 <_Z9bba_spliti+0xa0>
    bba_block_t* addr = buddyBlocks[n];
    800017e8:	00351713          	slli	a4,a0,0x3
    800017ec:	0000b797          	auipc	a5,0xb
    800017f0:	4b478793          	addi	a5,a5,1204 # 8000cca0 <bba_allocatedBlocks>
    800017f4:	00e787b3          	add	a5,a5,a4
    800017f8:	0107b703          	ld	a4,16(a5)
    if(addr==0){
    800017fc:	04070a63          	beqz	a4,80001850 <_Z9bba_spliti+0x6c>
        printf("\ncant split block of size %d, there are no blocks of that size",n);
        return;
    }
    //printf("\nsplitting block of size %d into two smaller blocks...",n);
    buddyBlocks[n] = addr->next; //izbacujemo
    80001800:	00073603          	ld	a2,0(a4)
    80001804:	0000b697          	auipc	a3,0xb
    80001808:	49c68693          	addi	a3,a3,1180 # 8000cca0 <bba_allocatedBlocks>
    8000180c:	00351793          	slli	a5,a0,0x3
    80001810:	00f687b3          	add	a5,a3,a5
    80001814:	00c7b823          	sd	a2,16(a5)
    bba_block_t* half = (bba_block_t*) ((long )addr+(1<<(n-1))); //polovina starog bloka
    80001818:	fff5051b          	addiw	a0,a0,-1
    8000181c:	0005061b          	sext.w	a2,a0
    80001820:	00100793          	li	a5,1
    80001824:	00a797bb          	sllw	a5,a5,a0
    80001828:	00f707b3          	add	a5,a4,a5
    half->n=n-1;
    8000182c:	00a7a423          	sw	a0,8(a5)
    addr->n=n-1;
    80001830:	00a72423          	sw	a0,8(a4)
    half->next=buddyBlocks[n-1];
    80001834:	00361613          	slli	a2,a2,0x3
    80001838:	00c686b3          	add	a3,a3,a2
    8000183c:	0106b603          	ld	a2,16(a3)
    80001840:	00c7b023          	sd	a2,0(a5)
    addr->next=half;
    80001844:	00f73023          	sd	a5,0(a4)
    buddyBlocks[n-1]=addr;
    80001848:	00e6b823          	sd	a4,16(a3)
    8000184c:	00008067          	ret
{
    80001850:	ff010113          	addi	sp,sp,-16
    80001854:	00113423          	sd	ra,8(sp)
    80001858:	00813023          	sd	s0,0(sp)
    8000185c:	01010413          	addi	s0,sp,16
        printf("\ncant split block of size %d, there are no blocks of that size",n);
    80001860:	00050593          	mv	a1,a0
    80001864:	00009517          	auipc	a0,0x9
    80001868:	88c50513          	addi	a0,a0,-1908 # 8000a0f0 <CONSOLE_STATUS+0xe0>
    8000186c:	00001097          	auipc	ra,0x1
    80001870:	9d4080e7          	jalr	-1580(ra) # 80002240 <_Z6printfPKcz>
}
    80001874:	00813083          	ld	ra,8(sp)
    80001878:	00013403          	ld	s0,0(sp)
    8000187c:	01010113          	addi	sp,sp,16
    80001880:	00008067          	ret
    80001884:	00008067          	ret

0000000080001888 <_Z13bba_get_blocki>:

//nalazi ili kreira i vraca blok velicine 2^n
bba_block_t * bba_get_block(int size)
{
    if(size<MINBBSIZE) size=MINBBSIZE;
    80001888:	01f00793          	li	a5,31
    8000188c:	00a7da63          	bge	a5,a0,800018a0 <_Z13bba_get_blocki+0x18>
    if(size>MAXBBSIZE) return 0;
    80001890:	000207b7          	lui	a5,0x20
    80001894:	00a7d863          	bge	a5,a0,800018a4 <_Z13bba_get_blocki+0x1c>
    80001898:	00000513          	li	a0,0
            return buddyBlocks[n];
        }
    }

    return 0;
}
    8000189c:	00008067          	ret
    if(size<MINBBSIZE) size=MINBBSIZE;
    800018a0:	02000513          	li	a0,32
{
    800018a4:	fe010113          	addi	sp,sp,-32
    800018a8:	00113c23          	sd	ra,24(sp)
    800018ac:	00813823          	sd	s0,16(sp)
    800018b0:	00913423          	sd	s1,8(sp)
    800018b4:	01213023          	sd	s2,0(sp)
    800018b8:	02010413          	addi	s0,sp,32
    if(size<MINBBSIZE) size=MINBBSIZE;
    800018bc:	00500493          	li	s1,5
    800018c0:	0080006f          	j	800018c8 <_Z13bba_get_blocki+0x40>
    while((1<<n)<size && n<18) n++;
    800018c4:	0014849b          	addiw	s1,s1,1
    800018c8:	00100793          	li	a5,1
    800018cc:	009797bb          	sllw	a5,a5,s1
    800018d0:	00a7d663          	bge	a5,a0,800018dc <_Z13bba_get_blocki+0x54>
    800018d4:	01100793          	li	a5,17
    800018d8:	fe97d6e3          	bge	a5,s1,800018c4 <_Z13bba_get_blocki+0x3c>
    if(buddyBlocks[n]!=0){ //imamo blok tacno te velicine
    800018dc:	00349713          	slli	a4,s1,0x3
    800018e0:	0000b797          	auipc	a5,0xb
    800018e4:	3c078793          	addi	a5,a5,960 # 8000cca0 <bba_allocatedBlocks>
    800018e8:	00e787b3          	add	a5,a5,a4
    800018ec:	0107b503          	ld	a0,16(a5)
    800018f0:	00050e63          	beqz	a0,8000190c <_Z13bba_get_blocki+0x84>
}
    800018f4:	01813083          	ld	ra,24(sp)
    800018f8:	01013403          	ld	s0,16(sp)
    800018fc:	00813483          	ld	s1,8(sp)
    80001900:	00013903          	ld	s2,0(sp)
    80001904:	02010113          	addi	sp,sp,32
    80001908:	00008067          	ret
    for(int i=n+1;i<18;i++){
    8000190c:	0014891b          	addiw	s2,s1,1
    80001910:	01100793          	li	a5,17
    80001914:	ff27c0e3          	blt	a5,s2,800018f4 <_Z13bba_get_blocki+0x6c>
        if(buddyBlocks[i]!=0){
    80001918:	00391713          	slli	a4,s2,0x3
    8000191c:	0000b797          	auipc	a5,0xb
    80001920:	38478793          	addi	a5,a5,900 # 8000cca0 <bba_allocatedBlocks>
    80001924:	00e787b3          	add	a5,a5,a4
    80001928:	0107b783          	ld	a5,16(a5)
    8000192c:	00079663          	bnez	a5,80001938 <_Z13bba_get_blocki+0xb0>
    for(int i=n+1;i<18;i++){
    80001930:	0019091b          	addiw	s2,s2,1
    80001934:	fddff06f          	j	80001910 <_Z13bba_get_blocki+0x88>
            while(i>n){
    80001938:	0124dc63          	bge	s1,s2,80001950 <_Z13bba_get_blocki+0xc8>
                bba_split(i);
    8000193c:	00090513          	mv	a0,s2
    80001940:	00000097          	auipc	ra,0x0
    80001944:	ea4080e7          	jalr	-348(ra) # 800017e4 <_Z9bba_spliti>
                i--;
    80001948:	fff9091b          	addiw	s2,s2,-1
            while(i>n){
    8000194c:	fedff06f          	j	80001938 <_Z13bba_get_blocki+0xb0>
            return buddyBlocks[n];
    80001950:	00349493          	slli	s1,s1,0x3
    80001954:	0000b797          	auipc	a5,0xb
    80001958:	34c78793          	addi	a5,a5,844 # 8000cca0 <bba_allocatedBlocks>
    8000195c:	009784b3          	add	s1,a5,s1
    80001960:	0104b503          	ld	a0,16(s1)
    80001964:	f91ff06f          	j	800018f4 <_Z13bba_get_blocki+0x6c>

0000000080001968 <_Z16bba_can_allocatei>:
int bba_can_allocate(int n)
{
    int index=0;

    //mozemo li smestiti blok
    for(int i=n;i<18;i++){
    80001968:	00050793          	mv	a5,a0
    8000196c:	01100713          	li	a4,17
    80001970:	02f74863          	blt	a4,a5,800019a0 <_Z16bba_can_allocatei+0x38>
        if(buddyBlocks[i]!=0) {
    80001974:	00379693          	slli	a3,a5,0x3
    80001978:	0000b717          	auipc	a4,0xb
    8000197c:	32870713          	addi	a4,a4,808 # 8000cca0 <bba_allocatedBlocks>
    80001980:	00d70733          	add	a4,a4,a3
    80001984:	01073703          	ld	a4,16(a4)
    80001988:	00071663          	bnez	a4,80001994 <_Z16bba_can_allocatei+0x2c>
    for(int i=n;i<18;i++){
    8000198c:	0017879b          	addiw	a5,a5,1
    80001990:	fddff06f          	j	8000196c <_Z16bba_can_allocatei+0x4>
            if(i>n) return 1;
    80001994:	00f55863          	bge	a0,a5,800019a4 <_Z16bba_can_allocatei+0x3c>
    80001998:	00100513          	li	a0,1
    8000199c:	00008067          	ret
    int index=0;
    800019a0:	00000793          	li	a5,0
        }
    }

    //za svakio alocirani blok pravimo i jedan mali blok (deskriptor) sa metapodacima - ovde proveravamo da li imamo
    // mesta i za taj mali blok
    for(int i=5;i<18;i++){
    800019a4:	00500713          	li	a4,5
    800019a8:	0080006f          	j	800019b0 <_Z16bba_can_allocatei+0x48>
    800019ac:	0017071b          	addiw	a4,a4,1
    800019b0:	01100693          	li	a3,17
    800019b4:	02e6c863          	blt	a3,a4,800019e4 <_Z16bba_can_allocatei+0x7c>
        if(buddyBlocks[i]!=0){
    800019b8:	00371613          	slli	a2,a4,0x3
    800019bc:	0000b697          	auipc	a3,0xb
    800019c0:	2e468693          	addi	a3,a3,740 # 8000cca0 <bba_allocatedBlocks>
    800019c4:	00c686b3          	add	a3,a3,a2
    800019c8:	0106b683          	ld	a3,16(a3)
    800019cc:	fe0680e3          	beqz	a3,800019ac <_Z16bba_can_allocatei+0x44>
            if(i!=index || buddyBlocks[i]->next!=0) return 1;
    800019d0:	04e79463          	bne	a5,a4,80001a18 <_Z16bba_can_allocatei+0xb0>
    800019d4:	0006b683          	ld	a3,0(a3)
    800019d8:	fc068ae3          	beqz	a3,800019ac <_Z16bba_can_allocatei+0x44>
    800019dc:	00100513          	li	a0,1
        }
    }

    printf("\n alloc error - cant allocate");
    return 0;
}
    800019e0:	00008067          	ret
{
    800019e4:	ff010113          	addi	sp,sp,-16
    800019e8:	00113423          	sd	ra,8(sp)
    800019ec:	00813023          	sd	s0,0(sp)
    800019f0:	01010413          	addi	s0,sp,16
    printf("\n alloc error - cant allocate");
    800019f4:	00008517          	auipc	a0,0x8
    800019f8:	73c50513          	addi	a0,a0,1852 # 8000a130 <CONSOLE_STATUS+0x120>
    800019fc:	00001097          	auipc	ra,0x1
    80001a00:	844080e7          	jalr	-1980(ra) # 80002240 <_Z6printfPKcz>
    return 0;
    80001a04:	00000513          	li	a0,0
}
    80001a08:	00813083          	ld	ra,8(sp)
    80001a0c:	00013403          	ld	s0,0(sp)
    80001a10:	01010113          	addi	sp,sp,16
    80001a14:	00008067          	ret
            if(i!=index || buddyBlocks[i]->next!=0) return 1;
    80001a18:	00100513          	li	a0,1
    80001a1c:	00008067          	ret

0000000080001a20 <_Z12bba_allocatem>:

void* bba_allocate(unsigned long size)
{
    80001a20:	fd010113          	addi	sp,sp,-48
    80001a24:	02113423          	sd	ra,40(sp)
    80001a28:	02813023          	sd	s0,32(sp)
    80001a2c:	00913c23          	sd	s1,24(sp)
    80001a30:	01213823          	sd	s2,16(sp)
    80001a34:	01313423          	sd	s3,8(sp)
    80001a38:	03010413          	addi	s0,sp,48

    if(size<MINBBSIZE) size=MINBBSIZE;
    80001a3c:	01f00793          	li	a5,31
    80001a40:	00a7fc63          	bgeu	a5,a0,80001a58 <_Z12bba_allocatem+0x38>
    80001a44:	00050913          	mv	s2,a0
    if(size>MAXBBSIZE) return 0;
    80001a48:	000207b7          	lui	a5,0x20
    80001a4c:	00a7f863          	bgeu	a5,a0,80001a5c <_Z12bba_allocatem+0x3c>
    80001a50:	00000913          	li	s2,0
    80001a54:	0880006f          	j	80001adc <_Z12bba_allocatem+0xbc>
    if(size<MINBBSIZE) size=MINBBSIZE;
    80001a58:	02000913          	li	s2,32
    80001a5c:	00500493          	li	s1,5
    80001a60:	0080006f          	j	80001a68 <_Z12bba_allocatem+0x48>
    int n=5;
    while((1UL<<n)<size && n<18) n++;
    80001a64:	0014849b          	addiw	s1,s1,1
    80001a68:	00100793          	li	a5,1
    80001a6c:	009797b3          	sll	a5,a5,s1
    80001a70:	0127f663          	bgeu	a5,s2,80001a7c <_Z12bba_allocatem+0x5c>
    80001a74:	01100793          	li	a5,17
    80001a78:	fe97d6e3          	bge	a5,s1,80001a64 <_Z12bba_allocatem+0x44>


    if(bba_can_allocate(n)==0) return 0;
    80001a7c:	00048513          	mv	a0,s1
    80001a80:	00000097          	auipc	ra,0x0
    80001a84:	ee8080e7          	jalr	-280(ra) # 80001968 <_Z16bba_can_allocatei>
    80001a88:	06050a63          	beqz	a0,80001afc <_Z12bba_allocatem+0xdc>

    bba_block_t *newBlock=0;
    bba_block_t *descriptor=0;

    newBlock = bba_get_block(size);
    80001a8c:	0009051b          	sext.w	a0,s2
    80001a90:	00000097          	auipc	ra,0x0
    80001a94:	df8080e7          	jalr	-520(ra) # 80001888 <_Z13bba_get_blocki>
    80001a98:	00050913          	mv	s2,a0
    buddyBlocks[n] = newBlock->next;
    80001a9c:	00053703          	ld	a4,0(a0)
    80001aa0:	0000b997          	auipc	s3,0xb
    80001aa4:	20098993          	addi	s3,s3,512 # 8000cca0 <bba_allocatedBlocks>
    80001aa8:	00349793          	slli	a5,s1,0x3
    80001aac:	00f987b3          	add	a5,s3,a5
    80001ab0:	00e7b823          	sd	a4,16(a5) # 20010 <_entry-0x7ffdfff0>

    descriptor = bba_get_block(sizeof(bba_block_t));
    80001ab4:	01800513          	li	a0,24
    80001ab8:	00000097          	auipc	ra,0x0
    80001abc:	dd0080e7          	jalr	-560(ra) # 80001888 <_Z13bba_get_blocki>
    buddyBlocks[5] = descriptor->next;
    80001ac0:	00053783          	ld	a5,0(a0)
    80001ac4:	02f9bc23          	sd	a5,56(s3)


    //ulancavamo deskriptor
    descriptor->next=bba_allocatedBlocks;
    80001ac8:	0009b783          	ld	a5,0(s3)
    80001acc:	00f53023          	sd	a5,0(a0)
    bba_allocatedBlocks=descriptor;
    80001ad0:	00a9b023          	sd	a0,0(s3)
    descriptor->n=n;
    80001ad4:	00952423          	sw	s1,8(a0)
    descriptor->addr=(char*)newBlock;
    80001ad8:	01253823          	sd	s2,16(a0)

    return newBlock;

}
    80001adc:	00090513          	mv	a0,s2
    80001ae0:	02813083          	ld	ra,40(sp)
    80001ae4:	02013403          	ld	s0,32(sp)
    80001ae8:	01813483          	ld	s1,24(sp)
    80001aec:	01013903          	ld	s2,16(sp)
    80001af0:	00813983          	ld	s3,8(sp)
    80001af4:	03010113          	addi	sp,sp,48
    80001af8:	00008067          	ret
    if(bba_can_allocate(n)==0) return 0;
    80001afc:	00000913          	li	s2,0
    80001b00:	fddff06f          	j	80001adc <_Z12bba_allocatem+0xbc>

0000000080001b04 <_Z26bba_try_merge_single_blockP9bba_blocki>:

/*
 * ako moze da spoji, izlancava ukrupnjeni blok (prosledjeni blok nije ni bio ulancan ) i vraca adresu ukrupnjenog bloka, ako ne moze vraca null
 */
bba_block_t * bba_try_merge_single_block(bba_block_t* freedBlock, int n)
{
    80001b04:	ff010113          	addi	sp,sp,-16
    80001b08:	00813423          	sd	s0,8(sp)
    80001b0c:	01010413          	addi	s0,sp,16
    80001b10:	00050693          	mv	a3,a0
    long size = (1<<n);
    80001b14:	00100613          	li	a2,1
    80001b18:	00b6163b          	sllw	a2,a2,a1
    bba_block_t *curr = buddyBlocks[n];
    80001b1c:	0000b717          	auipc	a4,0xb
    80001b20:	18470713          	addi	a4,a4,388 # 8000cca0 <bba_allocatedBlocks>
    80001b24:	00359793          	slli	a5,a1,0x3
    80001b28:	00f707b3          	add	a5,a4,a5
    80001b2c:	0107b503          	ld	a0,16(a5)
    bba_block_t *prev=0;

    int odd = (((char*)freedBlock-buddyMemStart)/size)%2;
    80001b30:	00873703          	ld	a4,8(a4)
    80001b34:	40e68733          	sub	a4,a3,a4
    80001b38:	02c74733          	div	a4,a4,a2
    80001b3c:	03f75813          	srli	a6,a4,0x3f
    80001b40:	010707b3          	add	a5,a4,a6
    80001b44:	0017f793          	andi	a5,a5,1
    80001b48:	410787b3          	sub	a5,a5,a6
    bba_block_t *prev=0;
    80001b4c:	00000813          	li	a6,0
    80001b50:	05c0006f          	j	80001bac <_Z26bba_try_merge_single_blockP9bba_blocki+0xa8>

    while (curr!=0){
        if(odd==1 && (long)curr+size==(long)freedBlock){
    80001b54:	00c50733          	add	a4,a0,a2
    80001b58:	06d71063          	bne	a4,a3,80001bb8 <_Z26bba_try_merge_single_blockP9bba_blocki+0xb4>
            if(prev!=0) prev->next=curr->next;
    80001b5c:	00080863          	beqz	a6,80001b6c <_Z26bba_try_merge_single_blockP9bba_blocki+0x68>
    80001b60:	00053783          	ld	a5,0(a0)
    80001b64:	00f83023          	sd	a5,0(a6)
    80001b68:	06c0006f          	j	80001bd4 <_Z26bba_try_merge_single_blockP9bba_blocki+0xd0>
            else buddyBlocks[n]=curr->next;
    80001b6c:	00053703          	ld	a4,0(a0)
    80001b70:	00359593          	slli	a1,a1,0x3
    80001b74:	0000b797          	auipc	a5,0xb
    80001b78:	12c78793          	addi	a5,a5,300 # 8000cca0 <bba_allocatedBlocks>
    80001b7c:	00b785b3          	add	a1,a5,a1
    80001b80:	00e5b823          	sd	a4,16(a1)
            return curr;
    80001b84:	0500006f          	j	80001bd4 <_Z26bba_try_merge_single_blockP9bba_blocki+0xd0>
        }
        if(odd==0 && (long)curr-size==(long)freedBlock){
            if(prev!=0) prev->next=curr->next;
            else buddyBlocks[n]=curr->next;
    80001b88:	00053703          	ld	a4,0(a0)
    80001b8c:	00359593          	slli	a1,a1,0x3
    80001b90:	0000b797          	auipc	a5,0xb
    80001b94:	11078793          	addi	a5,a5,272 # 8000cca0 <bba_allocatedBlocks>
    80001b98:	00b785b3          	add	a1,a5,a1
    80001b9c:	00e5b823          	sd	a4,16(a1)
    80001ba0:	0300006f          	j	80001bd0 <_Z26bba_try_merge_single_blockP9bba_blocki+0xcc>
            return freedBlock;
        }
        prev=curr;
    80001ba4:	00050813          	mv	a6,a0
        curr=curr->next;
    80001ba8:	00053503          	ld	a0,0(a0)
    while (curr!=0){
    80001bac:	02050463          	beqz	a0,80001bd4 <_Z26bba_try_merge_single_blockP9bba_blocki+0xd0>
        if(odd==1 && (long)curr+size==(long)freedBlock){
    80001bb0:	00100713          	li	a4,1
    80001bb4:	fae780e3          	beq	a5,a4,80001b54 <_Z26bba_try_merge_single_blockP9bba_blocki+0x50>
        if(odd==0 && (long)curr-size==(long)freedBlock){
    80001bb8:	fe0796e3          	bnez	a5,80001ba4 <_Z26bba_try_merge_single_blockP9bba_blocki+0xa0>
    80001bbc:	40c50733          	sub	a4,a0,a2
    80001bc0:	fed712e3          	bne	a4,a3,80001ba4 <_Z26bba_try_merge_single_blockP9bba_blocki+0xa0>
            if(prev!=0) prev->next=curr->next;
    80001bc4:	fc0802e3          	beqz	a6,80001b88 <_Z26bba_try_merge_single_blockP9bba_blocki+0x84>
    80001bc8:	00053783          	ld	a5,0(a0)
    80001bcc:	00f83023          	sd	a5,0(a6)
            return freedBlock;
    80001bd0:	00068513          	mv	a0,a3
    }
    return 0;
}
    80001bd4:	00813403          	ld	s0,8(sp)
    80001bd8:	01010113          	addi	sp,sp,16
    80001bdc:	00008067          	ret

0000000080001be0 <_Z16bba_merge_blocksP9bba_blocki>:

void bba_merge_blocks(bba_block_t* freedBlock, int n)
{
    80001be0:	fe010113          	addi	sp,sp,-32
    80001be4:	00113c23          	sd	ra,24(sp)
    80001be8:	00813823          	sd	s0,16(sp)
    80001bec:	00913423          	sd	s1,8(sp)
    80001bf0:	01213023          	sd	s2,0(sp)
    80001bf4:	02010413          	addi	s0,sp,32
    80001bf8:	00050913          	mv	s2,a0
    80001bfc:	00058493          	mv	s1,a1
    bba_block_t * mergedBlock = 0;
    while (n<17){
    80001c00:	01000793          	li	a5,16
    80001c04:	0297c263          	blt	a5,s1,80001c28 <_Z16bba_merge_blocksP9bba_blocki+0x48>
        mergedBlock=bba_try_merge_single_block(freedBlock,n);
    80001c08:	00048593          	mv	a1,s1
    80001c0c:	00090513          	mv	a0,s2
    80001c10:	00000097          	auipc	ra,0x0
    80001c14:	ef4080e7          	jalr	-268(ra) # 80001b04 <_Z26bba_try_merge_single_blockP9bba_blocki>
        if(mergedBlock==0){
    80001c18:	00050863          	beqz	a0,80001c28 <_Z16bba_merge_blocksP9bba_blocki+0x48>
            break;
        }
        n++;
    80001c1c:	0014849b          	addiw	s1,s1,1
        freedBlock=mergedBlock;
    80001c20:	00050913          	mv	s2,a0
    while (n<17){
    80001c24:	fddff06f          	j	80001c00 <_Z16bba_merge_blocksP9bba_blocki+0x20>
    }

    freedBlock->n=n;
    80001c28:	00992423          	sw	s1,8(s2)
    freedBlock->next=buddyBlocks[n];
    80001c2c:	00349493          	slli	s1,s1,0x3
    80001c30:	0000b797          	auipc	a5,0xb
    80001c34:	07078793          	addi	a5,a5,112 # 8000cca0 <bba_allocatedBlocks>
    80001c38:	009784b3          	add	s1,a5,s1
    80001c3c:	0104b783          	ld	a5,16(s1)
    80001c40:	00f93023          	sd	a5,0(s2)
    buddyBlocks[n]=freedBlock;
    80001c44:	0124b823          	sd	s2,16(s1)
}
    80001c48:	01813083          	ld	ra,24(sp)
    80001c4c:	01013403          	ld	s0,16(sp)
    80001c50:	00813483          	ld	s1,8(sp)
    80001c54:	00013903          	ld	s2,0(sp)
    80001c58:	02010113          	addi	sp,sp,32
    80001c5c:	00008067          	ret

0000000080001c60 <_Z19bba_find_descriptorPKv>:

bba_block_t *bba_find_descriptor(const void*addr)
{
    80001c60:	ff010113          	addi	sp,sp,-16
    80001c64:	00813423          	sd	s0,8(sp)
    80001c68:	01010413          	addi	s0,sp,16
    80001c6c:	00050713          	mv	a4,a0
    bba_block_t *curr = bba_allocatedBlocks;
    80001c70:	0000b517          	auipc	a0,0xb
    80001c74:	03053503          	ld	a0,48(a0) # 8000cca0 <bba_allocatedBlocks>
    while (curr){
    80001c78:	00050a63          	beqz	a0,80001c8c <_Z19bba_find_descriptorPKv+0x2c>
        if(curr->addr==addr) return curr;
    80001c7c:	01053783          	ld	a5,16(a0)
    80001c80:	00e78663          	beq	a5,a4,80001c8c <_Z19bba_find_descriptorPKv+0x2c>
        curr=curr->next;
    80001c84:	00053503          	ld	a0,0(a0)
    while (curr){
    80001c88:	ff1ff06f          	j	80001c78 <_Z19bba_find_descriptorPKv+0x18>
    }
    return 0;
}
    80001c8c:	00813403          	ld	s0,8(sp)
    80001c90:	01010113          	addi	sp,sp,16
    80001c94:	00008067          	ret

0000000080001c98 <_Z21bba_unlink_descriptorP9bba_block>:

void bba_unlink_descriptor(bba_block_t* descriptor){
    80001c98:	ff010113          	addi	sp,sp,-16
    80001c9c:	00813423          	sd	s0,8(sp)
    80001ca0:	01010413          	addi	s0,sp,16
    bba_block_t *curr = bba_allocatedBlocks;
    80001ca4:	0000b797          	auipc	a5,0xb
    80001ca8:	ffc7b783          	ld	a5,-4(a5) # 8000cca0 <bba_allocatedBlocks>
    bba_block_t *prev = 0;
    80001cac:	00000713          	li	a4,0
    while (curr!=descriptor){
    80001cb0:	00a78863          	beq	a5,a0,80001cc0 <_Z21bba_unlink_descriptorP9bba_block+0x28>
        prev=curr;
    80001cb4:	00078713          	mv	a4,a5
        curr=curr->next;
    80001cb8:	0007b783          	ld	a5,0(a5)
    while (curr!=descriptor){
    80001cbc:	ff5ff06f          	j	80001cb0 <_Z21bba_unlink_descriptorP9bba_block+0x18>
    }
    if(prev!=0){
    80001cc0:	00070c63          	beqz	a4,80001cd8 <_Z21bba_unlink_descriptorP9bba_block+0x40>
        prev->next=curr->next;
    80001cc4:	0007b783          	ld	a5,0(a5)
    80001cc8:	00f73023          	sd	a5,0(a4)
    } else{
        bba_allocatedBlocks=curr->next;
    }
}
    80001ccc:	00813403          	ld	s0,8(sp)
    80001cd0:	01010113          	addi	sp,sp,16
    80001cd4:	00008067          	ret
        bba_allocatedBlocks=curr->next;
    80001cd8:	0007b783          	ld	a5,0(a5)
    80001cdc:	0000b717          	auipc	a4,0xb
    80001ce0:	fcf73223          	sd	a5,-60(a4) # 8000cca0 <bba_allocatedBlocks>
}
    80001ce4:	fe9ff06f          	j	80001ccc <_Z21bba_unlink_descriptorP9bba_block+0x34>

0000000080001ce8 <_Z14bba_free_blockPKv>:

void bba_free_block(const void* addr)
{
    80001ce8:	fe010113          	addi	sp,sp,-32
    80001cec:	00113c23          	sd	ra,24(sp)
    80001cf0:	00813823          	sd	s0,16(sp)
    80001cf4:	00913423          	sd	s1,8(sp)
    80001cf8:	01213023          	sd	s2,0(sp)
    80001cfc:	02010413          	addi	s0,sp,32
    80001d00:	00050913          	mv	s2,a0
    bba_block_t * descriptor = bba_find_descriptor(addr);
    80001d04:	00000097          	auipc	ra,0x0
    80001d08:	f5c080e7          	jalr	-164(ra) # 80001c60 <_Z19bba_find_descriptorPKv>
    80001d0c:	00050493          	mv	s1,a0
    if(descriptor==0) printf("\nERROR (bba_free_block): Cant find descriptor");
    80001d10:	04050463          	beqz	a0,80001d58 <_Z14bba_free_blockPKv+0x70>
    int n = descriptor->n;

    bba_block_t *freedBlock = (bba_block_t*) addr;
    bba_merge_blocks(freedBlock,n);
    80001d14:	0084a583          	lw	a1,8(s1)
    80001d18:	00090513          	mv	a0,s2
    80001d1c:	00000097          	auipc	ra,0x0
    80001d20:	ec4080e7          	jalr	-316(ra) # 80001be0 <_Z16bba_merge_blocksP9bba_blocki>

    bba_unlink_descriptor(descriptor);
    80001d24:	00048513          	mv	a0,s1
    80001d28:	00000097          	auipc	ra,0x0
    80001d2c:	f70080e7          	jalr	-144(ra) # 80001c98 <_Z21bba_unlink_descriptorP9bba_block>
    bba_merge_blocks(descriptor,5);
    80001d30:	00500593          	li	a1,5
    80001d34:	00048513          	mv	a0,s1
    80001d38:	00000097          	auipc	ra,0x0
    80001d3c:	ea8080e7          	jalr	-344(ra) # 80001be0 <_Z16bba_merge_blocksP9bba_blocki>
}
    80001d40:	01813083          	ld	ra,24(sp)
    80001d44:	01013403          	ld	s0,16(sp)
    80001d48:	00813483          	ld	s1,8(sp)
    80001d4c:	00013903          	ld	s2,0(sp)
    80001d50:	02010113          	addi	sp,sp,32
    80001d54:	00008067          	ret
    if(descriptor==0) printf("\nERROR (bba_free_block): Cant find descriptor");
    80001d58:	00008517          	auipc	a0,0x8
    80001d5c:	3f850513          	addi	a0,a0,1016 # 8000a150 <CONSOLE_STATUS+0x140>
    80001d60:	00000097          	auipc	ra,0x0
    80001d64:	4e0080e7          	jalr	1248(ra) # 80002240 <_Z6printfPKcz>
    80001d68:	fadff06f          	j	80001d14 <_Z14bba_free_blockPKv+0x2c>

0000000080001d6c <_ZL15printInt_staticiii>:
    for (i = 0; i < (int)(sizeof(uint64) * 2); i++, x <<= 4)
        putc(digits[x >> (sizeof(uint64) * 8 - 4)]);
}

static void printInt_static(int xx, int base, int sgn)
{
    80001d6c:	fd010113          	addi	sp,sp,-48
    80001d70:	02113423          	sd	ra,40(sp)
    80001d74:	02813023          	sd	s0,32(sp)
    80001d78:	00913c23          	sd	s1,24(sp)
    80001d7c:	03010413          	addi	s0,sp,48
    char buf[16];
    int i, neg;
    uint x;

    neg = 0;
    if(sgn && xx < 0){
    80001d80:	00060463          	beqz	a2,80001d88 <_ZL15printInt_staticiii+0x1c>
    80001d84:	08054463          	bltz	a0,80001e0c <_ZL15printInt_staticiii+0xa0>
        neg = 1;
        x = -xx;
    } else {
        x = xx;
    80001d88:	0005051b          	sext.w	a0,a0
    neg = 0;
    80001d8c:	00000813          	li	a6,0
    }

    i = 0;
    80001d90:	00000493          	li	s1,0
    do{
        buf[i++] = digits[x % base];
    80001d94:	0005879b          	sext.w	a5,a1
    80001d98:	02b5773b          	remuw	a4,a0,a1
    80001d9c:	00048613          	mv	a2,s1
    80001da0:	0014849b          	addiw	s1,s1,1
    80001da4:	02071693          	slli	a3,a4,0x20
    80001da8:	0206d693          	srli	a3,a3,0x20
    80001dac:	0000b717          	auipc	a4,0xb
    80001db0:	c5470713          	addi	a4,a4,-940 # 8000ca00 <digits>
    80001db4:	00d70733          	add	a4,a4,a3
    80001db8:	00074683          	lbu	a3,0(a4)
    80001dbc:	fe040713          	addi	a4,s0,-32
    80001dc0:	00c70733          	add	a4,a4,a2
    80001dc4:	fed70823          	sb	a3,-16(a4)
    }while((x /= base) != 0);
    80001dc8:	0005071b          	sext.w	a4,a0
    80001dcc:	02b5553b          	divuw	a0,a0,a1
    80001dd0:	fcf772e3          	bgeu	a4,a5,80001d94 <_ZL15printInt_staticiii+0x28>
    if(neg)
    80001dd4:	00080c63          	beqz	a6,80001dec <_ZL15printInt_staticiii+0x80>
        buf[i++] = '-';
    80001dd8:	fe040793          	addi	a5,s0,-32
    80001ddc:	009784b3          	add	s1,a5,s1
    80001de0:	02d00793          	li	a5,45
    80001de4:	fef48823          	sb	a5,-16(s1)
    80001de8:	0026049b          	addiw	s1,a2,2

    while(--i >= 0)
    80001dec:	fff4849b          	addiw	s1,s1,-1
    80001df0:	0204c463          	bltz	s1,80001e18 <_ZL15printInt_staticiii+0xac>
        putc(buf[i]);
    80001df4:	fe040793          	addi	a5,s0,-32
    80001df8:	009787b3          	add	a5,a5,s1
    80001dfc:	ff07c503          	lbu	a0,-16(a5)
    80001e00:	fffff097          	auipc	ra,0xfffff
    80001e04:	7b0080e7          	jalr	1968(ra) # 800015b0 <_Z4putcc>
    80001e08:	fe5ff06f          	j	80001dec <_ZL15printInt_staticiii+0x80>
        x = -xx;
    80001e0c:	40a0053b          	negw	a0,a0
        neg = 1;
    80001e10:	00100813          	li	a6,1
        x = -xx;
    80001e14:	f7dff06f          	j	80001d90 <_ZL15printInt_staticiii+0x24>

}
    80001e18:	02813083          	ld	ra,40(sp)
    80001e1c:	02013403          	ld	s0,32(sp)
    80001e20:	01813483          	ld	s1,24(sp)
    80001e24:	03010113          	addi	sp,sp,48
    80001e28:	00008067          	ret

0000000080001e2c <_ZL15printptr_staticm>:
{
    80001e2c:	fe010113          	addi	sp,sp,-32
    80001e30:	00113c23          	sd	ra,24(sp)
    80001e34:	00813823          	sd	s0,16(sp)
    80001e38:	00913423          	sd	s1,8(sp)
    80001e3c:	01213023          	sd	s2,0(sp)
    80001e40:	02010413          	addi	s0,sp,32
    80001e44:	00050493          	mv	s1,a0
    putc('0');
    80001e48:	03000513          	li	a0,48
    80001e4c:	fffff097          	auipc	ra,0xfffff
    80001e50:	764080e7          	jalr	1892(ra) # 800015b0 <_Z4putcc>
    putc('x');
    80001e54:	07800513          	li	a0,120
    80001e58:	fffff097          	auipc	ra,0xfffff
    80001e5c:	758080e7          	jalr	1880(ra) # 800015b0 <_Z4putcc>
    for (i = 0; i < (int)(sizeof(uint64) * 2); i++, x <<= 4)
    80001e60:	00000913          	li	s2,0
    80001e64:	00f00793          	li	a5,15
    80001e68:	0327c663          	blt	a5,s2,80001e94 <_ZL15printptr_staticm+0x68>
        putc(digits[x >> (sizeof(uint64) * 8 - 4)]);
    80001e6c:	03c4d713          	srli	a4,s1,0x3c
    80001e70:	0000b797          	auipc	a5,0xb
    80001e74:	b9078793          	addi	a5,a5,-1136 # 8000ca00 <digits>
    80001e78:	00e787b3          	add	a5,a5,a4
    80001e7c:	0007c503          	lbu	a0,0(a5)
    80001e80:	fffff097          	auipc	ra,0xfffff
    80001e84:	730080e7          	jalr	1840(ra) # 800015b0 <_Z4putcc>
    for (i = 0; i < (int)(sizeof(uint64) * 2); i++, x <<= 4)
    80001e88:	0019091b          	addiw	s2,s2,1
    80001e8c:	00449493          	slli	s1,s1,0x4
    80001e90:	fd5ff06f          	j	80001e64 <_ZL15printptr_staticm+0x38>
}
    80001e94:	01813083          	ld	ra,24(sp)
    80001e98:	01013403          	ld	s0,16(sp)
    80001e9c:	00813483          	ld	s1,8(sp)
    80001ea0:	00013903          	ld	s2,0(sp)
    80001ea4:	02010113          	addi	sp,sp,32
    80001ea8:	00008067          	ret

0000000080001eac <_Z11printStringPKc>:
{
    80001eac:	fe010113          	addi	sp,sp,-32
    80001eb0:	00113c23          	sd	ra,24(sp)
    80001eb4:	00813823          	sd	s0,16(sp)
    80001eb8:	00913423          	sd	s1,8(sp)
    80001ebc:	02010413          	addi	s0,sp,32
    80001ec0:	00050493          	mv	s1,a0
    LOCK();
    80001ec4:	00100613          	li	a2,1
    80001ec8:	00000593          	li	a1,0
    80001ecc:	0000b517          	auipc	a0,0xb
    80001ed0:	e7c50513          	addi	a0,a0,-388 # 8000cd48 <lockPrint>
    80001ed4:	fffff097          	auipc	ra,0xfffff
    80001ed8:	12c080e7          	jalr	300(ra) # 80001000 <copy_and_swap>
    80001edc:	00050863          	beqz	a0,80001eec <_Z11printStringPKc+0x40>
    80001ee0:	fffff097          	auipc	ra,0xfffff
    80001ee4:	4a8080e7          	jalr	1192(ra) # 80001388 <_Z15thread_dispatchv>
    80001ee8:	fddff06f          	j	80001ec4 <_Z11printStringPKc+0x18>
    while (*string != '\0')
    80001eec:	0004c503          	lbu	a0,0(s1)
    80001ef0:	00050a63          	beqz	a0,80001f04 <_Z11printStringPKc+0x58>
        putc(*string);
    80001ef4:	fffff097          	auipc	ra,0xfffff
    80001ef8:	6bc080e7          	jalr	1724(ra) # 800015b0 <_Z4putcc>
        string++;
    80001efc:	00148493          	addi	s1,s1,1
    while (*string != '\0')
    80001f00:	fedff06f          	j	80001eec <_Z11printStringPKc+0x40>
    UNLOCK();
    80001f04:	00000613          	li	a2,0
    80001f08:	00100593          	li	a1,1
    80001f0c:	0000b517          	auipc	a0,0xb
    80001f10:	e3c50513          	addi	a0,a0,-452 # 8000cd48 <lockPrint>
    80001f14:	fffff097          	auipc	ra,0xfffff
    80001f18:	0ec080e7          	jalr	236(ra) # 80001000 <copy_and_swap>
    80001f1c:	fe0514e3          	bnez	a0,80001f04 <_Z11printStringPKc+0x58>
}
    80001f20:	01813083          	ld	ra,24(sp)
    80001f24:	01013403          	ld	s0,16(sp)
    80001f28:	00813483          	ld	s1,8(sp)
    80001f2c:	02010113          	addi	sp,sp,32
    80001f30:	00008067          	ret

0000000080001f34 <_Z9getStringPci>:
char* getString(char *buf, int max) {
    80001f34:	fd010113          	addi	sp,sp,-48
    80001f38:	02113423          	sd	ra,40(sp)
    80001f3c:	02813023          	sd	s0,32(sp)
    80001f40:	00913c23          	sd	s1,24(sp)
    80001f44:	01213823          	sd	s2,16(sp)
    80001f48:	01313423          	sd	s3,8(sp)
    80001f4c:	01413023          	sd	s4,0(sp)
    80001f50:	03010413          	addi	s0,sp,48
    80001f54:	00050993          	mv	s3,a0
    80001f58:	00058a13          	mv	s4,a1
    LOCK();
    80001f5c:	00100613          	li	a2,1
    80001f60:	00000593          	li	a1,0
    80001f64:	0000b517          	auipc	a0,0xb
    80001f68:	de450513          	addi	a0,a0,-540 # 8000cd48 <lockPrint>
    80001f6c:	fffff097          	auipc	ra,0xfffff
    80001f70:	094080e7          	jalr	148(ra) # 80001000 <copy_and_swap>
    80001f74:	00050863          	beqz	a0,80001f84 <_Z9getStringPci+0x50>
    80001f78:	fffff097          	auipc	ra,0xfffff
    80001f7c:	410080e7          	jalr	1040(ra) # 80001388 <_Z15thread_dispatchv>
    80001f80:	fddff06f          	j	80001f5c <_Z9getStringPci+0x28>
    for(i=0; i+1 < max; ){
    80001f84:	00000913          	li	s2,0
    80001f88:	00090493          	mv	s1,s2
    80001f8c:	0019091b          	addiw	s2,s2,1
    80001f90:	03495a63          	bge	s2,s4,80001fc4 <_Z9getStringPci+0x90>
        cc = getc();
    80001f94:	fffff097          	auipc	ra,0xfffff
    80001f98:	5e0080e7          	jalr	1504(ra) # 80001574 <_Z4getcv>
        if(cc < 1)
    80001f9c:	02050463          	beqz	a0,80001fc4 <_Z9getStringPci+0x90>
        buf[i++] = c;
    80001fa0:	009984b3          	add	s1,s3,s1
    80001fa4:	00a48023          	sb	a0,0(s1)
        if(c == '\n' || c == '\r')
    80001fa8:	00a00793          	li	a5,10
    80001fac:	00f50a63          	beq	a0,a5,80001fc0 <_Z9getStringPci+0x8c>
    80001fb0:	00d00793          	li	a5,13
    80001fb4:	fcf51ae3          	bne	a0,a5,80001f88 <_Z9getStringPci+0x54>
        buf[i++] = c;
    80001fb8:	00090493          	mv	s1,s2
    80001fbc:	0080006f          	j	80001fc4 <_Z9getStringPci+0x90>
    80001fc0:	00090493          	mv	s1,s2
    buf[i] = '\0';
    80001fc4:	009984b3          	add	s1,s3,s1
    80001fc8:	00048023          	sb	zero,0(s1)
    UNLOCK();
    80001fcc:	00000613          	li	a2,0
    80001fd0:	00100593          	li	a1,1
    80001fd4:	0000b517          	auipc	a0,0xb
    80001fd8:	d7450513          	addi	a0,a0,-652 # 8000cd48 <lockPrint>
    80001fdc:	fffff097          	auipc	ra,0xfffff
    80001fe0:	024080e7          	jalr	36(ra) # 80001000 <copy_and_swap>
    80001fe4:	fe0514e3          	bnez	a0,80001fcc <_Z9getStringPci+0x98>
}
    80001fe8:	00098513          	mv	a0,s3
    80001fec:	02813083          	ld	ra,40(sp)
    80001ff0:	02013403          	ld	s0,32(sp)
    80001ff4:	01813483          	ld	s1,24(sp)
    80001ff8:	01013903          	ld	s2,16(sp)
    80001ffc:	00813983          	ld	s3,8(sp)
    80002000:	00013a03          	ld	s4,0(sp)
    80002004:	03010113          	addi	sp,sp,48
    80002008:	00008067          	ret

000000008000200c <_Z11stringToIntPKc>:
int stringToInt(const char *s) {
    8000200c:	ff010113          	addi	sp,sp,-16
    80002010:	00813423          	sd	s0,8(sp)
    80002014:	01010413          	addi	s0,sp,16
    80002018:	00050693          	mv	a3,a0
    n = 0;
    8000201c:	00000513          	li	a0,0
    while ('0' <= *s && *s <= '9')
    80002020:	0006c603          	lbu	a2,0(a3)
    80002024:	fd06071b          	addiw	a4,a2,-48
    80002028:	0ff77713          	andi	a4,a4,255
    8000202c:	00900793          	li	a5,9
    80002030:	02e7e063          	bltu	a5,a4,80002050 <_Z11stringToIntPKc+0x44>
        n = n * 10 + *s++ - '0';
    80002034:	0025179b          	slliw	a5,a0,0x2
    80002038:	00a787bb          	addw	a5,a5,a0
    8000203c:	0017979b          	slliw	a5,a5,0x1
    80002040:	00168693          	addi	a3,a3,1
    80002044:	00c787bb          	addw	a5,a5,a2
    80002048:	fd07851b          	addiw	a0,a5,-48
    while ('0' <= *s && *s <= '9')
    8000204c:	fd5ff06f          	j	80002020 <_Z11stringToIntPKc+0x14>
}
    80002050:	00813403          	ld	s0,8(sp)
    80002054:	01010113          	addi	sp,sp,16
    80002058:	00008067          	ret

000000008000205c <_Z8printIntiii>:
{
    8000205c:	fc010113          	addi	sp,sp,-64
    80002060:	02113c23          	sd	ra,56(sp)
    80002064:	02813823          	sd	s0,48(sp)
    80002068:	02913423          	sd	s1,40(sp)
    8000206c:	03213023          	sd	s2,32(sp)
    80002070:	01313c23          	sd	s3,24(sp)
    80002074:	04010413          	addi	s0,sp,64
    80002078:	00050493          	mv	s1,a0
    8000207c:	00058913          	mv	s2,a1
    80002080:	00060993          	mv	s3,a2
    LOCK();
    80002084:	00100613          	li	a2,1
    80002088:	00000593          	li	a1,0
    8000208c:	0000b517          	auipc	a0,0xb
    80002090:	cbc50513          	addi	a0,a0,-836 # 8000cd48 <lockPrint>
    80002094:	fffff097          	auipc	ra,0xfffff
    80002098:	f6c080e7          	jalr	-148(ra) # 80001000 <copy_and_swap>
    8000209c:	00050863          	beqz	a0,800020ac <_Z8printIntiii+0x50>
    800020a0:	fffff097          	auipc	ra,0xfffff
    800020a4:	2e8080e7          	jalr	744(ra) # 80001388 <_Z15thread_dispatchv>
    800020a8:	fddff06f          	j	80002084 <_Z8printIntiii+0x28>
    if(sgn && xx < 0){
    800020ac:	00098463          	beqz	s3,800020b4 <_Z8printIntiii+0x58>
    800020b0:	0804c463          	bltz	s1,80002138 <_Z8printIntiii+0xdc>
        x = xx;
    800020b4:	0004851b          	sext.w	a0,s1
    neg = 0;
    800020b8:	00000593          	li	a1,0
    i = 0;
    800020bc:	00000493          	li	s1,0
        buf[i++] = digits[x % base];
    800020c0:	0009079b          	sext.w	a5,s2
    800020c4:	0325773b          	remuw	a4,a0,s2
    800020c8:	00048613          	mv	a2,s1
    800020cc:	0014849b          	addiw	s1,s1,1
    800020d0:	02071693          	slli	a3,a4,0x20
    800020d4:	0206d693          	srli	a3,a3,0x20
    800020d8:	0000b717          	auipc	a4,0xb
    800020dc:	92870713          	addi	a4,a4,-1752 # 8000ca00 <digits>
    800020e0:	00d70733          	add	a4,a4,a3
    800020e4:	00074683          	lbu	a3,0(a4)
    800020e8:	fd040713          	addi	a4,s0,-48
    800020ec:	00c70733          	add	a4,a4,a2
    800020f0:	fed70823          	sb	a3,-16(a4)
    }while((x /= base) != 0);
    800020f4:	0005071b          	sext.w	a4,a0
    800020f8:	0325553b          	divuw	a0,a0,s2
    800020fc:	fcf772e3          	bgeu	a4,a5,800020c0 <_Z8printIntiii+0x64>
    if(neg)
    80002100:	00058c63          	beqz	a1,80002118 <_Z8printIntiii+0xbc>
        buf[i++] = '-';
    80002104:	fd040793          	addi	a5,s0,-48
    80002108:	009784b3          	add	s1,a5,s1
    8000210c:	02d00793          	li	a5,45
    80002110:	fef48823          	sb	a5,-16(s1)
    80002114:	0026049b          	addiw	s1,a2,2
    while(--i >= 0)
    80002118:	fff4849b          	addiw	s1,s1,-1
    8000211c:	0204c463          	bltz	s1,80002144 <_Z8printIntiii+0xe8>
        putc(buf[i]);
    80002120:	fd040793          	addi	a5,s0,-48
    80002124:	009787b3          	add	a5,a5,s1
    80002128:	ff07c503          	lbu	a0,-16(a5)
    8000212c:	fffff097          	auipc	ra,0xfffff
    80002130:	484080e7          	jalr	1156(ra) # 800015b0 <_Z4putcc>
    80002134:	fe5ff06f          	j	80002118 <_Z8printIntiii+0xbc>
        x = -xx;
    80002138:	4090053b          	negw	a0,s1
        neg = 1;
    8000213c:	00100593          	li	a1,1
        x = -xx;
    80002140:	f7dff06f          	j	800020bc <_Z8printIntiii+0x60>
    UNLOCK();
    80002144:	00000613          	li	a2,0
    80002148:	00100593          	li	a1,1
    8000214c:	0000b517          	auipc	a0,0xb
    80002150:	bfc50513          	addi	a0,a0,-1028 # 8000cd48 <lockPrint>
    80002154:	fffff097          	auipc	ra,0xfffff
    80002158:	eac080e7          	jalr	-340(ra) # 80001000 <copy_and_swap>
    8000215c:	fe0514e3          	bnez	a0,80002144 <_Z8printIntiii+0xe8>
}
    80002160:	03813083          	ld	ra,56(sp)
    80002164:	03013403          	ld	s0,48(sp)
    80002168:	02813483          	ld	s1,40(sp)
    8000216c:	02013903          	ld	s2,32(sp)
    80002170:	01813983          	ld	s3,24(sp)
    80002174:	04010113          	addi	sp,sp,64
    80002178:	00008067          	ret

000000008000217c <_Z8printptrm>:
{
    8000217c:	fe010113          	addi	sp,sp,-32
    80002180:	00113c23          	sd	ra,24(sp)
    80002184:	00813823          	sd	s0,16(sp)
    80002188:	00913423          	sd	s1,8(sp)
    8000218c:	01213023          	sd	s2,0(sp)
    80002190:	02010413          	addi	s0,sp,32
    80002194:	00050493          	mv	s1,a0
    LOCK();
    80002198:	00100613          	li	a2,1
    8000219c:	00000593          	li	a1,0
    800021a0:	0000b517          	auipc	a0,0xb
    800021a4:	ba850513          	addi	a0,a0,-1112 # 8000cd48 <lockPrint>
    800021a8:	fffff097          	auipc	ra,0xfffff
    800021ac:	e58080e7          	jalr	-424(ra) # 80001000 <copy_and_swap>
    800021b0:	00050863          	beqz	a0,800021c0 <_Z8printptrm+0x44>
    800021b4:	fffff097          	auipc	ra,0xfffff
    800021b8:	1d4080e7          	jalr	468(ra) # 80001388 <_Z15thread_dispatchv>
    800021bc:	fddff06f          	j	80002198 <_Z8printptrm+0x1c>
    putc('0');
    800021c0:	03000513          	li	a0,48
    800021c4:	fffff097          	auipc	ra,0xfffff
    800021c8:	3ec080e7          	jalr	1004(ra) # 800015b0 <_Z4putcc>
    putc('x');
    800021cc:	07800513          	li	a0,120
    800021d0:	fffff097          	auipc	ra,0xfffff
    800021d4:	3e0080e7          	jalr	992(ra) # 800015b0 <_Z4putcc>
    for (i = 0; i < (int)(sizeof(uint64) * 2); i++, x <<= 4)
    800021d8:	00000913          	li	s2,0
    800021dc:	00f00793          	li	a5,15
    800021e0:	0327c663          	blt	a5,s2,8000220c <_Z8printptrm+0x90>
        putc(digits[x >> (sizeof(uint64) * 8 - 4)]);
    800021e4:	03c4d713          	srli	a4,s1,0x3c
    800021e8:	0000b797          	auipc	a5,0xb
    800021ec:	81878793          	addi	a5,a5,-2024 # 8000ca00 <digits>
    800021f0:	00e787b3          	add	a5,a5,a4
    800021f4:	0007c503          	lbu	a0,0(a5)
    800021f8:	fffff097          	auipc	ra,0xfffff
    800021fc:	3b8080e7          	jalr	952(ra) # 800015b0 <_Z4putcc>
    for (i = 0; i < (int)(sizeof(uint64) * 2); i++, x <<= 4)
    80002200:	0019091b          	addiw	s2,s2,1
    80002204:	00449493          	slli	s1,s1,0x4
    80002208:	fd5ff06f          	j	800021dc <_Z8printptrm+0x60>
    UNLOCK();
    8000220c:	00000613          	li	a2,0
    80002210:	00100593          	li	a1,1
    80002214:	0000b517          	auipc	a0,0xb
    80002218:	b3450513          	addi	a0,a0,-1228 # 8000cd48 <lockPrint>
    8000221c:	fffff097          	auipc	ra,0xfffff
    80002220:	de4080e7          	jalr	-540(ra) # 80001000 <copy_and_swap>
    80002224:	fe0514e3          	bnez	a0,8000220c <_Z8printptrm+0x90>
}
    80002228:	01813083          	ld	ra,24(sp)
    8000222c:	01013403          	ld	s0,16(sp)
    80002230:	00813483          	ld	s1,8(sp)
    80002234:	00013903          	ld	s2,0(sp)
    80002238:	02010113          	addi	sp,sp,32
    8000223c:	00008067          	ret

0000000080002240 <_Z6printfPKcz>:

void
printf(const char *fmt, ...)
{
    80002240:	f8010113          	addi	sp,sp,-128
    80002244:	02113c23          	sd	ra,56(sp)
    80002248:	02813823          	sd	s0,48(sp)
    8000224c:	02913423          	sd	s1,40(sp)
    80002250:	03213023          	sd	s2,32(sp)
    80002254:	01313c23          	sd	s3,24(sp)
    80002258:	04010413          	addi	s0,sp,64
    8000225c:	00050993          	mv	s3,a0
    80002260:	00b43423          	sd	a1,8(s0)
    80002264:	00c43823          	sd	a2,16(s0)
    80002268:	00d43c23          	sd	a3,24(s0)
    8000226c:	02e43023          	sd	a4,32(s0)
    80002270:	02f43423          	sd	a5,40(s0)
    80002274:	03043823          	sd	a6,48(s0)
    80002278:	03143c23          	sd	a7,56(s0)
    LOCK();
    8000227c:	00100613          	li	a2,1
    80002280:	00000593          	li	a1,0
    80002284:	0000b517          	auipc	a0,0xb
    80002288:	ac450513          	addi	a0,a0,-1340 # 8000cd48 <lockPrint>
    8000228c:	fffff097          	auipc	ra,0xfffff
    80002290:	d74080e7          	jalr	-652(ra) # 80001000 <copy_and_swap>
    80002294:	00050863          	beqz	a0,800022a4 <_Z6printfPKcz+0x64>
    80002298:	fffff097          	auipc	ra,0xfffff
    8000229c:	0f0080e7          	jalr	240(ra) # 80001388 <_Z15thread_dispatchv>
    800022a0:	fddff06f          	j	8000227c <_Z6printfPKcz+0x3c>
    va_list ap;
    int i, c;
    char *s;


    if (fmt == 0) return;
    800022a4:	14098663          	beqz	s3,800023f0 <_Z6printfPKcz+0x1b0>

    va_start(ap, fmt);
    800022a8:	00840793          	addi	a5,s0,8
    800022ac:	fcf43423          	sd	a5,-56(s0)
    for(i = 0; (c = fmt[i] & 0xff) != 0; i++){
    800022b0:	00000913          	li	s2,0
    800022b4:	0100006f          	j	800022c4 <_Z6printfPKcz+0x84>
        if(c != '%'){
            putc(c);
    800022b8:	fffff097          	auipc	ra,0xfffff
    800022bc:	2f8080e7          	jalr	760(ra) # 800015b0 <_Z4putcc>
    for(i = 0; (c = fmt[i] & 0xff) != 0; i++){
    800022c0:	0019091b          	addiw	s2,s2,1
    800022c4:	012987b3          	add	a5,s3,s2
    800022c8:	0007c503          	lbu	a0,0(a5)
    800022cc:	0005079b          	sext.w	a5,a0
    800022d0:	10050263          	beqz	a0,800023d4 <_Z6printfPKcz+0x194>
        if(c != '%'){
    800022d4:	02500713          	li	a4,37
    800022d8:	fee790e3          	bne	a5,a4,800022b8 <_Z6printfPKcz+0x78>
            continue;
        }
        c = fmt[++i] & 0xff;
    800022dc:	0019091b          	addiw	s2,s2,1
    800022e0:	012987b3          	add	a5,s3,s2
    800022e4:	0007c483          	lbu	s1,0(a5)
        if(c == 0)
    800022e8:	0e048663          	beqz	s1,800023d4 <_Z6printfPKcz+0x194>
            break;
        switch(c){
    800022ec:	07000793          	li	a5,112
    800022f0:	06f48863          	beq	s1,a5,80002360 <_Z6printfPKcz+0x120>
    800022f4:	0297fc63          	bgeu	a5,s1,8000232c <_Z6printfPKcz+0xec>
    800022f8:	07300793          	li	a5,115
    800022fc:	08f48063          	beq	s1,a5,8000237c <_Z6printfPKcz+0x13c>
    80002300:	07800793          	li	a5,120
    80002304:	0af49a63          	bne	s1,a5,800023b8 <_Z6printfPKcz+0x178>
            case 'd':
                printInt_static(va_arg(ap, int), 10, 1);
                break;
            case 'x':
                printInt_static(va_arg(ap, int), 16, 1);
    80002308:	fc843783          	ld	a5,-56(s0)
    8000230c:	00878713          	addi	a4,a5,8
    80002310:	fce43423          	sd	a4,-56(s0)
    80002314:	00100613          	li	a2,1
    80002318:	01000593          	li	a1,16
    8000231c:	0007a503          	lw	a0,0(a5)
    80002320:	00000097          	auipc	ra,0x0
    80002324:	a4c080e7          	jalr	-1460(ra) # 80001d6c <_ZL15printInt_staticiii>
    80002328:	f99ff06f          	j	800022c0 <_Z6printfPKcz+0x80>
        switch(c){
    8000232c:	02500793          	li	a5,37
    80002330:	06f48c63          	beq	s1,a5,800023a8 <_Z6printfPKcz+0x168>
    80002334:	06400793          	li	a5,100
    80002338:	08f49063          	bne	s1,a5,800023b8 <_Z6printfPKcz+0x178>
                printInt_static(va_arg(ap, int), 10, 1);
    8000233c:	fc843783          	ld	a5,-56(s0)
    80002340:	00878713          	addi	a4,a5,8
    80002344:	fce43423          	sd	a4,-56(s0)
    80002348:	00100613          	li	a2,1
    8000234c:	00a00593          	li	a1,10
    80002350:	0007a503          	lw	a0,0(a5)
    80002354:	00000097          	auipc	ra,0x0
    80002358:	a18080e7          	jalr	-1512(ra) # 80001d6c <_ZL15printInt_staticiii>
    8000235c:	f65ff06f          	j	800022c0 <_Z6printfPKcz+0x80>
                break;
            case 'p':
                printptr_static(va_arg(ap, uint64));
    80002360:	fc843783          	ld	a5,-56(s0)
    80002364:	00878713          	addi	a4,a5,8
    80002368:	fce43423          	sd	a4,-56(s0)
    8000236c:	0007b503          	ld	a0,0(a5)
    80002370:	00000097          	auipc	ra,0x0
    80002374:	abc080e7          	jalr	-1348(ra) # 80001e2c <_ZL15printptr_staticm>
    80002378:	f49ff06f          	j	800022c0 <_Z6printfPKcz+0x80>
                break;
            case 's':
                if((s = va_arg(ap, char*)) == 0)
    8000237c:	fc843783          	ld	a5,-56(s0)
    80002380:	00878713          	addi	a4,a5,8
    80002384:	fce43423          	sd	a4,-56(s0)
    80002388:	0007b483          	ld	s1,0(a5)
    8000238c:	f2048ae3          	beqz	s1,800022c0 <_Z6printfPKcz+0x80>
                    break;
                for(; *s; s++)
    80002390:	0004c503          	lbu	a0,0(s1)
    80002394:	f20506e3          	beqz	a0,800022c0 <_Z6printfPKcz+0x80>
                    putc(*s);
    80002398:	fffff097          	auipc	ra,0xfffff
    8000239c:	218080e7          	jalr	536(ra) # 800015b0 <_Z4putcc>
                for(; *s; s++)
    800023a0:	00148493          	addi	s1,s1,1
    800023a4:	fedff06f          	j	80002390 <_Z6printfPKcz+0x150>
                break;
            case '%':
                putc('%');
    800023a8:	02500513          	li	a0,37
    800023ac:	fffff097          	auipc	ra,0xfffff
    800023b0:	204080e7          	jalr	516(ra) # 800015b0 <_Z4putcc>
    800023b4:	f0dff06f          	j	800022c0 <_Z6printfPKcz+0x80>
                break;
            default:
                // Print unknown % sequence to draw attention.
                putc('%');
    800023b8:	02500513          	li	a0,37
    800023bc:	fffff097          	auipc	ra,0xfffff
    800023c0:	1f4080e7          	jalr	500(ra) # 800015b0 <_Z4putcc>
                putc(c);
    800023c4:	00048513          	mv	a0,s1
    800023c8:	fffff097          	auipc	ra,0xfffff
    800023cc:	1e8080e7          	jalr	488(ra) # 800015b0 <_Z4putcc>
    800023d0:	ef1ff06f          	j	800022c0 <_Z6printfPKcz+0x80>
                break;
        }
    }

    UNLOCK();
    800023d4:	00000613          	li	a2,0
    800023d8:	00100593          	li	a1,1
    800023dc:	0000b517          	auipc	a0,0xb
    800023e0:	96c50513          	addi	a0,a0,-1684 # 8000cd48 <lockPrint>
    800023e4:	fffff097          	auipc	ra,0xfffff
    800023e8:	c1c080e7          	jalr	-996(ra) # 80001000 <copy_and_swap>
    800023ec:	fe0514e3          	bnez	a0,800023d4 <_Z6printfPKcz+0x194>
}
    800023f0:	03813083          	ld	ra,56(sp)
    800023f4:	03013403          	ld	s0,48(sp)
    800023f8:	02813483          	ld	s1,40(sp)
    800023fc:	02013903          	ld	s2,32(sp)
    80002400:	01813983          	ld	s3,24(sp)
    80002404:	08010113          	addi	sp,sp,128
    80002408:	00008067          	ret

000000008000240c <_Z14kern_mem_alloci>:

mem_block_s * freeHead;


void* kern_mem_alloc(int sizeInBlocks)
{
    8000240c:	ff010113          	addi	sp,sp,-16
    80002410:	00813423          	sd	s0,8(sp)
    80002414:	01010413          	addi	s0,sp,16
    80002418:	00050693          	mv	a3,a0
    mem_block_s *curr = freeHead;
    8000241c:	0000b597          	auipc	a1,0xb
    80002420:	9345b583          	ld	a1,-1740(a1) # 8000cd50 <freeHead>
    80002424:	00058513          	mv	a0,a1
    mem_block_s *prev = 0;
    80002428:	00000613          	li	a2,0
    8000242c:	0480006f          	j	80002474 <_Z14kern_mem_alloci+0x68>

    while (curr){
        if(curr->sizeInBlocks==sizeInBlocks+1){
            if(curr==freeHead) freeHead=curr->next;
    80002430:	02b50063          	beq	a0,a1,80002450 <_Z14kern_mem_alloci+0x44>
            else prev->next = curr->next;
    80002434:	00853783          	ld	a5,8(a0)
    80002438:	00f63423          	sd	a5,8(a2)
            curr->sizeInBlocks=sizeInBlocks+1;
    8000243c:	00e52023          	sw	a4,0(a0)
            return (curr+MEM_BLOCK_SIZE);
    80002440:	40050513          	addi	a0,a0,1024
        prev=curr;
        curr=curr->next;
    }

    return 0;
}
    80002444:	00813403          	ld	s0,8(sp)
    80002448:	01010113          	addi	sp,sp,16
    8000244c:	00008067          	ret
            if(curr==freeHead) freeHead=curr->next;
    80002450:	00853783          	ld	a5,8(a0)
    80002454:	0000b697          	auipc	a3,0xb
    80002458:	8ef6be23          	sd	a5,-1796(a3) # 8000cd50 <freeHead>
    8000245c:	fe1ff06f          	j	8000243c <_Z14kern_mem_alloci+0x30>
            if(curr==freeHead) freeHead=newFreeBlock;
    80002460:	0000b797          	auipc	a5,0xb
    80002464:	8eb7b823          	sd	a1,-1808(a5) # 8000cd50 <freeHead>
    80002468:	05c0006f          	j	800024c4 <_Z14kern_mem_alloci+0xb8>
        prev=curr;
    8000246c:	00050613          	mv	a2,a0
        curr=curr->next;
    80002470:	00853503          	ld	a0,8(a0)
    while (curr){
    80002474:	fc0508e3          	beqz	a0,80002444 <_Z14kern_mem_alloci+0x38>
        if(curr->sizeInBlocks==sizeInBlocks+1){
    80002478:	00052783          	lw	a5,0(a0)
    8000247c:	0016871b          	addiw	a4,a3,1
    80002480:	fae788e3          	beq	a5,a4,80002430 <_Z14kern_mem_alloci+0x24>
        else if(curr->sizeInBlocks>sizeInBlocks+1){
    80002484:	fef754e3          	bge	a4,a5,8000246c <_Z14kern_mem_alloci+0x60>
            mem_block_s* newFreeBlock = curr+(sizeInBlocks+1)*MEM_BLOCK_SIZE;
    80002488:	00a71593          	slli	a1,a4,0xa
    8000248c:	00b505b3          	add	a1,a0,a1
            newFreeBlock->sizeInBlocks = curr->sizeInBlocks-sizeInBlocks-1;
    80002490:	40d787bb          	subw	a5,a5,a3
    80002494:	fff7879b          	addiw	a5,a5,-1
    80002498:	00f5a023          	sw	a5,0(a1)
            newFreeBlock->startingBlock=curr->startingBlock+sizeInBlocks+1;
    8000249c:	00452783          	lw	a5,4(a0)
    800024a0:	00d786bb          	addw	a3,a5,a3
    800024a4:	0016869b          	addiw	a3,a3,1
    800024a8:	00d5a223          	sw	a3,4(a1)
            newFreeBlock->next = curr->next;
    800024ac:	00853783          	ld	a5,8(a0)
    800024b0:	00f5b423          	sd	a5,8(a1)
            if(curr==freeHead) freeHead=newFreeBlock;
    800024b4:	0000b797          	auipc	a5,0xb
    800024b8:	89c7b783          	ld	a5,-1892(a5) # 8000cd50 <freeHead>
    800024bc:	faa782e3          	beq	a5,a0,80002460 <_Z14kern_mem_alloci+0x54>
            else prev->next=newFreeBlock;
    800024c0:	00b63423          	sd	a1,8(a2)
            curr->sizeInBlocks=sizeInBlocks+1;
    800024c4:	00e52023          	sw	a4,0(a0)
            return (curr+MEM_BLOCK_SIZE);
    800024c8:	40050513          	addi	a0,a0,1024
    800024cc:	f79ff06f          	j	80002444 <_Z14kern_mem_alloci+0x38>

00000000800024d0 <_Z13kern_mem_freePv>:

int kern_mem_free(void* addr)
{
    800024d0:	ff010113          	addi	sp,sp,-16
    800024d4:	00813423          	sd	s0,8(sp)
    800024d8:	01010413          	addi	s0,sp,16
    mem_block_s* freedBlock = (mem_block_s*) addr-MEM_BLOCK_SIZE;
    800024dc:	c0050713          	addi	a4,a0,-1024
    mem_block_s* curr=freeHead;
    800024e0:	0000b797          	auipc	a5,0xb
    800024e4:	8707b783          	ld	a5,-1936(a5) # 8000cd50 <freeHead>
    mem_block_s * prev =0;
    800024e8:	00000693          	li	a3,0

    while (curr<freedBlock && curr!=0){
    800024ec:	00e7fa63          	bgeu	a5,a4,80002500 <_Z13kern_mem_freePv+0x30>
    800024f0:	00078863          	beqz	a5,80002500 <_Z13kern_mem_freePv+0x30>
        prev=curr;
    800024f4:	00078693          	mv	a3,a5
        curr=curr->next;
    800024f8:	0087b783          	ld	a5,8(a5)
    while (curr<freedBlock && curr!=0){
    800024fc:	ff1ff06f          	j	800024ec <_Z13kern_mem_freePv+0x1c>
    char* cfreedBlock = (char *)freedBlock;
    char* cprev = (char *)prev;
    char* ccurr = (char *)curr;
    */

    if(prev){
    80002500:	04068e63          	beqz	a3,8000255c <_Z13kern_mem_freePv+0x8c>
        if(prev->startingBlock+prev->sizeInBlocks==freedBlock->startingBlock){
    80002504:	0046a603          	lw	a2,4(a3)
    80002508:	0006a583          	lw	a1,0(a3)
    8000250c:	00b6063b          	addw	a2,a2,a1
    80002510:	c0452803          	lw	a6,-1020(a0)
    80002514:	03060a63          	beq	a2,a6,80002548 <_Z13kern_mem_freePv+0x78>
            prev->sizeInBlocks+=freedBlock->sizeInBlocks;
            freedBlock=prev;
        } else {
            prev->next=freedBlock;
    80002518:	00e6b423          	sd	a4,8(a3)
        }
    }
    else freeHead=freedBlock;

    if(curr){
    8000251c:	00078e63          	beqz	a5,80002538 <_Z13kern_mem_freePv+0x68>
        if(freedBlock->startingBlock+freedBlock->sizeInBlocks==curr->startingBlock){
    80002520:	00472683          	lw	a3,4(a4)
    80002524:	00072603          	lw	a2,0(a4)
    80002528:	00c686bb          	addw	a3,a3,a2
    8000252c:	0047a583          	lw	a1,4(a5)
    80002530:	02b68c63          	beq	a3,a1,80002568 <_Z13kern_mem_freePv+0x98>
            freedBlock->sizeInBlocks+=curr->sizeInBlocks;
            freedBlock->next=curr->next;
        } else{
          freedBlock->next=curr;
    80002534:	00f73423          	sd	a5,8(a4)
        }
    }


    return 0;
}
    80002538:	00000513          	li	a0,0
    8000253c:	00813403          	ld	s0,8(sp)
    80002540:	01010113          	addi	sp,sp,16
    80002544:	00008067          	ret
            prev->sizeInBlocks+=freedBlock->sizeInBlocks;
    80002548:	c0052703          	lw	a4,-1024(a0)
    8000254c:	00e585bb          	addw	a1,a1,a4
    80002550:	00b6a023          	sw	a1,0(a3)
            freedBlock=prev;
    80002554:	00068713          	mv	a4,a3
    80002558:	fc5ff06f          	j	8000251c <_Z13kern_mem_freePv+0x4c>
    else freeHead=freedBlock;
    8000255c:	0000a697          	auipc	a3,0xa
    80002560:	7ee6ba23          	sd	a4,2036(a3) # 8000cd50 <freeHead>
    80002564:	fb9ff06f          	j	8000251c <_Z13kern_mem_freePv+0x4c>
            freedBlock->sizeInBlocks+=curr->sizeInBlocks;
    80002568:	0007a683          	lw	a3,0(a5)
    8000256c:	00d6063b          	addw	a2,a2,a3
    80002570:	00c72023          	sw	a2,0(a4)
            freedBlock->next=curr->next;
    80002574:	0087b783          	ld	a5,8(a5)
    80002578:	00f73423          	sd	a5,8(a4)
    8000257c:	fbdff06f          	j	80002538 <_Z13kern_mem_freePv+0x68>

0000000080002580 <_Z13kern_mem_initPvS_>:

unsigned long ukupno_memorije;
void kern_mem_init(void* start, void* end)
{
    80002580:	ff010113          	addi	sp,sp,-16
    80002584:	00813423          	sd	s0,8(sp)
    80002588:	01010413          	addi	s0,sp,16
    unsigned long lstart = (unsigned long) start;
    unsigned long lend = (unsigned long) end;
    8000258c:	00058793          	mv	a5,a1

    if(lstart%MEM_BLOCK_SIZE>0) start =(void*) ((lstart/MEM_BLOCK_SIZE+1)*MEM_BLOCK_SIZE);
    80002590:	03f57713          	andi	a4,a0,63
    80002594:	00070863          	beqz	a4,800025a4 <_Z13kern_mem_initPvS_+0x24>
    80002598:	00655513          	srli	a0,a0,0x6
    8000259c:	00150513          	addi	a0,a0,1
    800025a0:	00651513          	slli	a0,a0,0x6
    if(lend%MEM_BLOCK_SIZE>0) end =(void*) ((lend/MEM_BLOCK_SIZE)*MEM_BLOCK_SIZE);
    800025a4:	03f7f713          	andi	a4,a5,63
    800025a8:	00070463          	beqz	a4,800025b0 <_Z13kern_mem_initPvS_+0x30>
    800025ac:	fc07f593          	andi	a1,a5,-64

    freeHead = (mem_block_s*)start;
    800025b0:	0000a797          	auipc	a5,0xa
    800025b4:	7a078793          	addi	a5,a5,1952 # 8000cd50 <freeHead>
    800025b8:	00a7b023          	sd	a0,0(a5)
    freeHead->next=0;
    800025bc:	00053423          	sd	zero,8(a0)
    freeHead->startingBlock=0;
    800025c0:	00052223          	sw	zero,4(a0)
    freeHead->sizeInBlocks = ((uint64)end-(uint64)start)/MEM_BLOCK_SIZE;
    800025c4:	40a58533          	sub	a0,a1,a0
    800025c8:	00655513          	srli	a0,a0,0x6
    800025cc:	0007b703          	ld	a4,0(a5)
    800025d0:	00a72023          	sw	a0,0(a4)
    ukupno_memorije=freeHead->sizeInBlocks;
    800025d4:	0007b703          	ld	a4,0(a5)
    800025d8:	00072703          	lw	a4,0(a4)
    800025dc:	00e7b423          	sd	a4,8(a5)
}
    800025e0:	00813403          	ld	s0,8(sp)
    800025e4:	01010113          	addi	sp,sp,16
    800025e8:	00008067          	ret

00000000800025ec <_Z17kern_console_initv>:
    int input_w;
    int output_r;
    int output_w;
} console;

void kern_console_init(){
    800025ec:	fe010113          	addi	sp,sp,-32
    800025f0:	00113c23          	sd	ra,24(sp)
    800025f4:	00813823          	sd	s0,16(sp)
    800025f8:	00913423          	sd	s1,8(sp)
    800025fc:	02010413          	addi	s0,sp,32
    console.input=(char*)kmalloc(BUFFER_SIZE*sizeof(char));
    80002600:	40000513          	li	a0,1024
    80002604:	00002097          	auipc	ra,0x2
    80002608:	d9c080e7          	jalr	-612(ra) # 800043a0 <_Z7kmallocm>
    8000260c:	0000a497          	auipc	s1,0xa
    80002610:	75448493          	addi	s1,s1,1876 # 8000cd60 <console>
    80002614:	00a4b023          	sd	a0,0(s1)
    console.output=(char*)kmalloc(BUFFER_SIZE*sizeof(char));
    80002618:	40000513          	li	a0,1024
    8000261c:	00002097          	auipc	ra,0x2
    80002620:	d84080e7          	jalr	-636(ra) # 800043a0 <_Z7kmallocm>
    80002624:	00a4b423          	sd	a0,8(s1)
    console.input_r=0;
    80002628:	0004a823          	sw	zero,16(s1)
    console.input_w=0;
    8000262c:	0004aa23          	sw	zero,20(s1)
    console.output_r=0;
    80002630:	0004ac23          	sw	zero,24(s1)
    console.input_w=0;
}
    80002634:	01813083          	ld	ra,24(sp)
    80002638:	01013403          	ld	s0,16(sp)
    8000263c:	00813483          	ld	s1,8(sp)
    80002640:	02010113          	addi	sp,sp,32
    80002644:	00008067          	ret

0000000080002648 <_Z12uart_getcharv>:

int uart_getchar(void)
{
    80002648:	ff010113          	addi	sp,sp,-16
    8000264c:	00813423          	sd	s0,8(sp)
    80002650:	01010413          	addi	s0,sp,16
    if((ReadReg(CONSOLE_STATUS) & CONSOLE_RX_STATUS_BIT)!=0){
    80002654:	0000a797          	auipc	a5,0xa
    80002658:	5cc7b783          	ld	a5,1484(a5) # 8000cc20 <_GLOBAL_OFFSET_TABLE_+0x10>
    8000265c:	0007b783          	ld	a5,0(a5)
    80002660:	0007c783          	lbu	a5,0(a5)
    80002664:	0017f793          	andi	a5,a5,1
    80002668:	02078263          	beqz	a5,8000268c <_Z12uart_getcharv+0x44>
        // input data is ready.
        return ReadReg(CONSOLE_RX_DATA);
    8000266c:	0000a797          	auipc	a5,0xa
    80002670:	5ac7b783          	ld	a5,1452(a5) # 8000cc18 <_GLOBAL_OFFSET_TABLE_+0x8>
    80002674:	0007b783          	ld	a5,0(a5)
    80002678:	0007c503          	lbu	a0,0(a5)
    8000267c:	0ff57513          	andi	a0,a0,255
    } else {
        return -1;
    }
}
    80002680:	00813403          	ld	s0,8(sp)
    80002684:	01010113          	addi	sp,sp,16
    80002688:	00008067          	ret
        return -1;
    8000268c:	fff00513          	li	a0,-1
    80002690:	ff1ff06f          	j	80002680 <_Z12uart_getcharv+0x38>

0000000080002694 <_Z12uart_putcharv>:

void uart_putchar()
{
    80002694:	ff010113          	addi	sp,sp,-16
    80002698:	00813423          	sd	s0,8(sp)
    8000269c:	01010413          	addi	s0,sp,16
    if(console.output_r==console.output_w) return;
    800026a0:	0000a717          	auipc	a4,0xa
    800026a4:	6c070713          	addi	a4,a4,1728 # 8000cd60 <console>
    800026a8:	01872783          	lw	a5,24(a4)
    800026ac:	01c72703          	lw	a4,28(a4)
    800026b0:	06e78063          	beq	a5,a4,80002710 <_Z12uart_putcharv+0x7c>

    if((ReadReg(CONSOLE_STATUS) & CONSOLE_TX_STATUS_BIT) == 0){
    800026b4:	0000a717          	auipc	a4,0xa
    800026b8:	56c73703          	ld	a4,1388(a4) # 8000cc20 <_GLOBAL_OFFSET_TABLE_+0x10>
    800026bc:	00073703          	ld	a4,0(a4)
    800026c0:	00074703          	lbu	a4,0(a4)
    800026c4:	0ff77713          	andi	a4,a4,255
    800026c8:	02077713          	andi	a4,a4,32
    800026cc:	04070263          	beqz	a4,80002710 <_Z12uart_putcharv+0x7c>
        return;
    }

    char c = console.output[(console.output_r++)%BUFFER_SIZE];
    800026d0:	0000a717          	auipc	a4,0xa
    800026d4:	69070713          	addi	a4,a4,1680 # 8000cd60 <console>
    800026d8:	00873683          	ld	a3,8(a4)
    800026dc:	0017861b          	addiw	a2,a5,1
    800026e0:	00c72c23          	sw	a2,24(a4)
    800026e4:	41f7d71b          	sraiw	a4,a5,0x1f
    800026e8:	0167571b          	srliw	a4,a4,0x16
    800026ec:	00f707bb          	addw	a5,a4,a5
    800026f0:	3ff7f793          	andi	a5,a5,1023
    800026f4:	40e787bb          	subw	a5,a5,a4
    800026f8:	00f687b3          	add	a5,a3,a5
    800026fc:	0007c703          	lbu	a4,0(a5)
    WriteReg(CONSOLE_TX_DATA,c);
    80002700:	0000a797          	auipc	a5,0xa
    80002704:	5407b783          	ld	a5,1344(a5) # 8000cc40 <_GLOBAL_OFFSET_TABLE_+0x30>
    80002708:	0007b783          	ld	a5,0(a5)
    8000270c:	00e78023          	sb	a4,0(a5)
}
    80002710:	00813403          	ld	s0,8(sp)
    80002714:	01010113          	addi	sp,sp,16
    80002718:	00008067          	ret

000000008000271c <_Z17kern_uart_handlerv>:

void kern_uart_handler()
{
    8000271c:	ff010113          	addi	sp,sp,-16
    80002720:	00113423          	sd	ra,8(sp)
    80002724:	00813023          	sd	s0,0(sp)
    80002728:	01010413          	addi	s0,sp,16
    while(1){
        int c = uart_getchar();
    8000272c:	00000097          	auipc	ra,0x0
    80002730:	f1c080e7          	jalr	-228(ra) # 80002648 <_Z12uart_getcharv>
        if(c==-1) break;
    80002734:	fff00793          	li	a5,-1
    80002738:	02f50e63          	beq	a0,a5,80002774 <_Z17kern_uart_handlerv+0x58>
        console.input[(console.input_w++)%BUFFER_SIZE]=c;
    8000273c:	0000a717          	auipc	a4,0xa
    80002740:	62470713          	addi	a4,a4,1572 # 8000cd60 <console>
    80002744:	00073683          	ld	a3,0(a4)
    80002748:	01472783          	lw	a5,20(a4)
    8000274c:	0017861b          	addiw	a2,a5,1
    80002750:	00c72a23          	sw	a2,20(a4)
    80002754:	41f7d71b          	sraiw	a4,a5,0x1f
    80002758:	0167571b          	srliw	a4,a4,0x16
    8000275c:	00f707bb          	addw	a5,a4,a5
    80002760:	3ff7f793          	andi	a5,a5,1023
    80002764:	40e787bb          	subw	a5,a5,a4
    80002768:	00f687b3          	add	a5,a3,a5
    8000276c:	00a78023          	sb	a0,0(a5)
    }
    80002770:	fbdff06f          	j	8000272c <_Z17kern_uart_handlerv+0x10>

    uart_putchar();
    80002774:	00000097          	auipc	ra,0x0
    80002778:	f20080e7          	jalr	-224(ra) # 80002694 <_Z12uart_putcharv>
}
    8000277c:	00813083          	ld	ra,8(sp)
    80002780:	00013403          	ld	s0,0(sp)
    80002784:	01010113          	addi	sp,sp,16
    80002788:	00008067          	ret

000000008000278c <_Z20kern_console_getcharv>:

int kern_console_getchar()
{
    8000278c:	ff010113          	addi	sp,sp,-16
    80002790:	00813423          	sd	s0,8(sp)
    80002794:	01010413          	addi	s0,sp,16
    if(console.input_r<console.input_w){
    80002798:	0000a717          	auipc	a4,0xa
    8000279c:	5c870713          	addi	a4,a4,1480 # 8000cd60 <console>
    800027a0:	01072783          	lw	a5,16(a4)
    800027a4:	01472703          	lw	a4,20(a4)
    800027a8:	04e7d063          	bge	a5,a4,800027e8 <_Z20kern_console_getcharv+0x5c>
        return console.input[(console.input_r++)%BUFFER_SIZE];
    800027ac:	0000a717          	auipc	a4,0xa
    800027b0:	5b470713          	addi	a4,a4,1460 # 8000cd60 <console>
    800027b4:	00073683          	ld	a3,0(a4)
    800027b8:	0017861b          	addiw	a2,a5,1
    800027bc:	00c72823          	sw	a2,16(a4)
    800027c0:	41f7d71b          	sraiw	a4,a5,0x1f
    800027c4:	0167571b          	srliw	a4,a4,0x16
    800027c8:	00f707bb          	addw	a5,a4,a5
    800027cc:	3ff7f793          	andi	a5,a5,1023
    800027d0:	40e787bb          	subw	a5,a5,a4
    800027d4:	00f687b3          	add	a5,a3,a5
    800027d8:	0007c503          	lbu	a0,0(a5)
    }
    else return -1;
}
    800027dc:	00813403          	ld	s0,8(sp)
    800027e0:	01010113          	addi	sp,sp,16
    800027e4:	00008067          	ret
    else return -1;
    800027e8:	fff00513          	li	a0,-1
    800027ec:	ff1ff06f          	j	800027dc <_Z20kern_console_getcharv+0x50>

00000000800027f0 <_Z20kern_console_putcharc>:

int kern_console_putchar(char c)
{
    800027f0:	ff010113          	addi	sp,sp,-16
    800027f4:	00813423          	sd	s0,8(sp)
    800027f8:	01010413          	addi	s0,sp,16
    if(ReadReg(CONSOLE_STATUS) & CONSOLE_TX_STATUS_BIT){
    800027fc:	0000a797          	auipc	a5,0xa
    80002800:	4247b783          	ld	a5,1060(a5) # 8000cc20 <_GLOBAL_OFFSET_TABLE_+0x10>
    80002804:	0007b783          	ld	a5,0(a5)
    80002808:	0007c783          	lbu	a5,0(a5)
    8000280c:	0ff7f793          	andi	a5,a5,255
    80002810:	0207f793          	andi	a5,a5,32
    80002814:	02078263          	beqz	a5,80002838 <_Z20kern_console_putcharc+0x48>
        WriteReg(CONSOLE_TX_DATA,c);
    80002818:	0000a797          	auipc	a5,0xa
    8000281c:	4287b783          	ld	a5,1064(a5) # 8000cc40 <_GLOBAL_OFFSET_TABLE_+0x30>
    80002820:	0007b783          	ld	a5,0(a5)
    80002824:	00a78023          	sb	a0,0(a5)
    }
    else{
        if(console.output_r-console.output_w>=BUFFER_SIZE) return -1;
        console.output[(console.output_w++)%BUFFER_SIZE]=c;
    }
    return 0;
    80002828:	00000513          	li	a0,0
}
    8000282c:	00813403          	ld	s0,8(sp)
    80002830:	01010113          	addi	sp,sp,16
    80002834:	00008067          	ret
        if(console.output_r-console.output_w>=BUFFER_SIZE) return -1;
    80002838:	0000a797          	auipc	a5,0xa
    8000283c:	52878793          	addi	a5,a5,1320 # 8000cd60 <console>
    80002840:	0187a703          	lw	a4,24(a5)
    80002844:	01c7a783          	lw	a5,28(a5)
    80002848:	40f7073b          	subw	a4,a4,a5
    8000284c:	3ff00693          	li	a3,1023
    80002850:	02e6ce63          	blt	a3,a4,8000288c <_Z20kern_console_putcharc+0x9c>
        console.output[(console.output_w++)%BUFFER_SIZE]=c;
    80002854:	0000a717          	auipc	a4,0xa
    80002858:	50c70713          	addi	a4,a4,1292 # 8000cd60 <console>
    8000285c:	00873683          	ld	a3,8(a4)
    80002860:	0017861b          	addiw	a2,a5,1
    80002864:	00c72e23          	sw	a2,28(a4)
    80002868:	41f7d71b          	sraiw	a4,a5,0x1f
    8000286c:	0167571b          	srliw	a4,a4,0x16
    80002870:	00f707bb          	addw	a5,a4,a5
    80002874:	3ff7f793          	andi	a5,a5,1023
    80002878:	40e787bb          	subw	a5,a5,a4
    8000287c:	00f687b3          	add	a5,a3,a5
    80002880:	00a78023          	sb	a0,0(a5)
    return 0;
    80002884:	00000513          	li	a0,0
    80002888:	fa5ff06f          	j	8000282c <_Z20kern_console_putcharc+0x3c>
        if(console.output_r-console.output_w>=BUFFER_SIZE) return -1;
    8000288c:	fff00513          	li	a0,-1
    80002890:	f9dff06f          	j	8000282c <_Z20kern_console_putcharc+0x3c>

0000000080002894 <_Z8bodyIdlePv>:

Semaphore* semTest;

int idleAlive=1;
void bodyIdle(void* arg){
    while(idleAlive){
    80002894:	0000a797          	auipc	a5,0xa
    80002898:	1847a783          	lw	a5,388(a5) # 8000ca18 <idleAlive>
    8000289c:	02078c63          	beqz	a5,800028d4 <_Z8bodyIdlePv+0x40>
void bodyIdle(void* arg){
    800028a0:	ff010113          	addi	sp,sp,-16
    800028a4:	00113423          	sd	ra,8(sp)
    800028a8:	00813023          	sd	s0,0(sp)
    800028ac:	01010413          	addi	s0,sp,16
        thread_dispatch();
    800028b0:	fffff097          	auipc	ra,0xfffff
    800028b4:	ad8080e7          	jalr	-1320(ra) # 80001388 <_Z15thread_dispatchv>
    while(idleAlive){
    800028b8:	0000a797          	auipc	a5,0xa
    800028bc:	1607a783          	lw	a5,352(a5) # 8000ca18 <idleAlive>
    800028c0:	fe0798e3          	bnez	a5,800028b0 <_Z8bodyIdlePv+0x1c>
    };
}
    800028c4:	00813083          	ld	ra,8(sp)
    800028c8:	00013403          	ld	s0,0(sp)
    800028cc:	01010113          	addi	sp,sp,16
    800028d0:	00008067          	ret
    800028d4:	00008067          	ret

00000000800028d8 <_Z5bodyCPv>:

void bodyC(void* arg)
{
    800028d8:	fe010113          	addi	sp,sp,-32
    800028dc:	00113c23          	sd	ra,24(sp)
    800028e0:	00813823          	sd	s0,16(sp)
    800028e4:	00913423          	sd	s1,8(sp)
    800028e8:	01213023          	sd	s2,0(sp)
    800028ec:	02010413          	addi	s0,sp,32
    800028f0:	00050913          	mv	s2,a0
    int counter=0;
    800028f4:	00000493          	li	s1,0
    char*c = (char*)arg;
    while(counter<10){
    800028f8:	00900793          	li	a5,9
    800028fc:	0297c263          	blt	a5,s1,80002920 <_Z5bodyCPv+0x48>
        //if(++counter>5) delete semTest;
        putc(*c);
    80002900:	00094503          	lbu	a0,0(s2)
    80002904:	fffff097          	auipc	ra,0xfffff
    80002908:	cac080e7          	jalr	-852(ra) # 800015b0 <_Z4putcc>
        time_sleep(1);
    8000290c:	00100513          	li	a0,1
    80002910:	fffff097          	auipc	ra,0xfffff
    80002914:	c30080e7          	jalr	-976(ra) # 80001540 <_Z10time_sleepm>
        counter++;
    80002918:	0014849b          	addiw	s1,s1,1
    while(counter<10){
    8000291c:	fddff06f          	j	800028f8 <_Z5bodyCPv+0x20>
    }
    counter++;
    //thread_exit();
}
    80002920:	01813083          	ld	ra,24(sp)
    80002924:	01013403          	ld	s0,16(sp)
    80002928:	00813483          	ld	s1,8(sp)
    8000292c:	00013903          	ld	s2,0(sp)
    80002930:	02010113          	addi	sp,sp,32
    80002934:	00008067          	ret

0000000080002938 <_Z5bodyAPv>:

void bodyA(void* arg)
{
    80002938:	fe010113          	addi	sp,sp,-32
    8000293c:	00113c23          	sd	ra,24(sp)
    80002940:	00813823          	sd	s0,16(sp)
    80002944:	00913423          	sd	s1,8(sp)
    80002948:	02010413          	addi	s0,sp,32
    char c = 'a';
    //if(semTest->wait()) c='A';
    for(int i=0;i<10;i++){
    8000294c:	00000493          	li	s1,0
    80002950:	0180006f          	j	80002968 <_Z5bodyAPv+0x30>
        putc(c);
        if(i==5) thread_exit();
    80002954:	fffff097          	auipc	ra,0xfffff
    80002958:	a60080e7          	jalr	-1440(ra) # 800013b4 <_Z11thread_exitv>
        thread_dispatch();
    8000295c:	fffff097          	auipc	ra,0xfffff
    80002960:	a2c080e7          	jalr	-1492(ra) # 80001388 <_Z15thread_dispatchv>
    for(int i=0;i<10;i++){
    80002964:	0014849b          	addiw	s1,s1,1
    80002968:	00900793          	li	a5,9
    8000296c:	0097ce63          	blt	a5,s1,80002988 <_Z5bodyAPv+0x50>
        putc(c);
    80002970:	06100513          	li	a0,97
    80002974:	fffff097          	auipc	ra,0xfffff
    80002978:	c3c080e7          	jalr	-964(ra) # 800015b0 <_Z4putcc>
        if(i==5) thread_exit();
    8000297c:	00500793          	li	a5,5
    80002980:	fcf49ee3          	bne	s1,a5,8000295c <_Z5bodyAPv+0x24>
    80002984:	fd1ff06f          	j	80002954 <_Z5bodyAPv+0x1c>
    }
}
    80002988:	01813083          	ld	ra,24(sp)
    8000298c:	01013403          	ld	s0,16(sp)
    80002990:	00813483          	ld	s1,8(sp)
    80002994:	02010113          	addi	sp,sp,32
    80002998:	00008067          	ret

000000008000299c <_Z5bodyBPv>:

int g=0;

char str[15] = "tesa legenda";
void bodyB(void* arg)
{
    8000299c:	fe010113          	addi	sp,sp,-32
    800029a0:	00113c23          	sd	ra,24(sp)
    800029a4:	00813823          	sd	s0,16(sp)
    800029a8:	00913423          	sd	s1,8(sp)
    800029ac:	02010413          	addi	s0,sp,32

    //time_sleep(10);
    for(int i=0;i<10;i++){
    800029b0:	00000493          	li	s1,0
    800029b4:	0540006f          	j	80002a08 <_Z5bodyBPv+0x6c>
        putc(str[i]);
        for(int k=0;k<10000;k++){
            for(int m=0;m<1000;m++){
    800029b8:	0017071b          	addiw	a4,a4,1
    800029bc:	3e700793          	li	a5,999
    800029c0:	02e7c663          	blt	a5,a4,800029ec <_Z5bodyBPv+0x50>
                if((m*k)%1337==0) g++;
    800029c4:	02e607bb          	mulw	a5,a2,a4
    800029c8:	53900693          	li	a3,1337
    800029cc:	02d7e7bb          	remw	a5,a5,a3
    800029d0:	fe0794e3          	bnez	a5,800029b8 <_Z5bodyBPv+0x1c>
    800029d4:	0000a697          	auipc	a3,0xa
    800029d8:	3ac68693          	addi	a3,a3,940 # 8000cd80 <g>
    800029dc:	0006a783          	lw	a5,0(a3)
    800029e0:	0017879b          	addiw	a5,a5,1
    800029e4:	00f6a023          	sw	a5,0(a3)
    800029e8:	fd1ff06f          	j	800029b8 <_Z5bodyBPv+0x1c>
        for(int k=0;k<10000;k++){
    800029ec:	0016061b          	addiw	a2,a2,1
    800029f0:	000027b7          	lui	a5,0x2
    800029f4:	70f78793          	addi	a5,a5,1807 # 270f <_entry-0x7fffd8f1>
    800029f8:	00c7c663          	blt	a5,a2,80002a04 <_Z5bodyBPv+0x68>
            for(int m=0;m<1000;m++){
    800029fc:	00000713          	li	a4,0
    80002a00:	fbdff06f          	j	800029bc <_Z5bodyBPv+0x20>
    for(int i=0;i<10;i++){
    80002a04:	0014849b          	addiw	s1,s1,1
    80002a08:	00900793          	li	a5,9
    80002a0c:	0297c263          	blt	a5,s1,80002a30 <_Z5bodyBPv+0x94>
        putc(str[i]);
    80002a10:	0000a797          	auipc	a5,0xa
    80002a14:	00878793          	addi	a5,a5,8 # 8000ca18 <idleAlive>
    80002a18:	009787b3          	add	a5,a5,s1
    80002a1c:	0087c503          	lbu	a0,8(a5)
    80002a20:	fffff097          	auipc	ra,0xfffff
    80002a24:	b90080e7          	jalr	-1136(ra) # 800015b0 <_Z4putcc>
        for(int k=0;k<10000;k++){
    80002a28:	00000613          	li	a2,0
    80002a2c:	fc5ff06f          	j	800029f0 <_Z5bodyBPv+0x54>
        }
        int wait (){
            return sem_wait(myHandle);
        }
        int signal (){
            return sem_signal(myHandle);
    80002a30:	0000a797          	auipc	a5,0xa
    80002a34:	3587b783          	ld	a5,856(a5) # 8000cd88 <semTest>
    80002a38:	0087b503          	ld	a0,8(a5)
    80002a3c:	fffff097          	auipc	ra,0xfffff
    80002a40:	ac4080e7          	jalr	-1340(ra) # 80001500 <_Z10sem_signalP5sem_s>
            }
        }
    }
    semTest->signal();
}
    80002a44:	01813083          	ld	ra,24(sp)
    80002a48:	01013403          	ld	s0,16(sp)
    80002a4c:	00813483          	ld	s1,8(sp)
    80002a50:	02010113          	addi	sp,sp,32
    80002a54:	00008067          	ret

0000000080002a58 <main>:
        putc(c++);
    }
};

int main()
{
    80002a58:	fd010113          	addi	sp,sp,-48
    80002a5c:	02113423          	sd	ra,40(sp)
    80002a60:	02813023          	sd	s0,32(sp)
    80002a64:	00913c23          	sd	s1,24(sp)
    80002a68:	01213823          	sd	s2,16(sp)
    80002a6c:	03010413          	addi	s0,sp,48
    char* buddy_start = (char*)HEAP_START_ADDR;
    80002a70:	0000a797          	auipc	a5,0xa
    80002a74:	1b87b783          	ld	a5,440(a5) # 8000cc28 <_GLOBAL_OFFSET_TABLE_+0x18>
    80002a78:	0007b503          	ld	a0,0(a5)
    uint64 memory_size = ((char *)HEAP_END_ADDR-(char *)HEAP_START_ADDR);
    80002a7c:	0000a917          	auipc	s2,0xa
    80002a80:	1d493903          	ld	s2,468(s2) # 8000cc50 <_GLOBAL_OFFSET_TABLE_+0x40>
    80002a84:	00093583          	ld	a1,0(s2)
    80002a88:	40a585b3          	sub	a1,a1,a0
    uint64 buddy_size_in_blocks = (memory_size/8)/BLOCK_SIZE+1;
    80002a8c:	00f5d593          	srli	a1,a1,0xf
    80002a90:	00158593          	addi	a1,a1,1
    char* buddy_end = buddy_start+buddy_size_in_blocks*BLOCK_SIZE;
    80002a94:	00c59493          	slli	s1,a1,0xc
    80002a98:	009504b3          	add	s1,a0,s1
    kmem_init(buddy_start,buddy_size_in_blocks);
    80002a9c:	0005859b          	sext.w	a1,a1
    80002aa0:	00001097          	auipc	ra,0x1
    80002aa4:	f00080e7          	jalr	-256(ra) # 800039a0 <_Z9kmem_initPvi>
    kern_mem_init((void*)buddy_end, (void*)HEAP_END_ADDR);
    80002aa8:	00093583          	ld	a1,0(s2)
    80002aac:	00048513          	mv	a0,s1
    80002ab0:	00000097          	auipc	ra,0x0
    80002ab4:	ad0080e7          	jalr	-1328(ra) # 80002580 <_Z13kern_mem_initPvS_>
    kern_thread_init();
    80002ab8:	00000097          	auipc	ra,0x0
    80002abc:	1f8080e7          	jalr	504(ra) # 80002cb0 <_Z16kern_thread_initv>

    kern_interrupt_init();
    80002ac0:	00001097          	auipc	ra,0x1
    80002ac4:	a80080e7          	jalr	-1408(ra) # 80003540 <_Z19kern_interrupt_initv>
    kern_sem_init();
    80002ac8:	00001097          	auipc	ra,0x1
    80002acc:	828080e7          	jalr	-2008(ra) # 800032f0 <_Z13kern_sem_initv>
    kern_console_init();
    80002ad0:	00000097          	auipc	ra,0x0
    80002ad4:	b1c080e7          	jalr	-1252(ra) # 800025ec <_Z17kern_console_initv>

    Thread* thrIdle = new Thread(&bodyIdle,0);
    80002ad8:	02000513          	li	a0,32
    80002adc:	00000097          	auipc	ra,0x0
    80002ae0:	104080e7          	jalr	260(ra) # 80002be0 <_Znwm>
        {
    80002ae4:	0000a797          	auipc	a5,0xa
    80002ae8:	f5c78793          	addi	a5,a5,-164 # 8000ca40 <_ZTV6Thread+0x10>
    80002aec:	00f53023          	sd	a5,0(a0)
            this->body=body;
    80002af0:	00000597          	auipc	a1,0x0
    80002af4:	da458593          	addi	a1,a1,-604 # 80002894 <_Z8bodyIdlePv>
    80002af8:	00b53823          	sd	a1,16(a0)
            this->arg=arg;
    80002afc:	00053c23          	sd	zero,24(a0)
    80002b00:	fca43c23          	sd	a0,-40(s0)
            else return thread_create(&myHandle,body,arg);
    80002b04:	00000613          	li	a2,0
    80002b08:	00850513          	addi	a0,a0,8
    80002b0c:	ffffe097          	auipc	ra,0xffffe
    80002b10:	7f4080e7          	jalr	2036(ra) # 80001300 <_Z13thread_createPP8thread_sPFvPvES2_>
    thrIdle->start();

    printf("Printf proba %d valjda radi %x, %p\n", &thrIdle, &thrIdle, &thrIdle);
    80002b14:	fd840593          	addi	a1,s0,-40
    80002b18:	00058693          	mv	a3,a1
    80002b1c:	00058613          	mv	a2,a1
    80002b20:	00007517          	auipc	a0,0x7
    80002b24:	66050513          	addi	a0,a0,1632 # 8000a180 <CONSOLE_STATUS+0x170>
    80002b28:	fffff097          	auipc	ra,0xfffff
    80002b2c:	718080e7          	jalr	1816(ra) # 80002240 <_Z6printfPKcz>
*/
    /*char x = getc();
    x=getc();
    x++;
    putc(x);*/
    userMain();
    80002b30:	00004097          	auipc	ra,0x4
    80002b34:	1ec080e7          	jalr	492(ra) # 80006d1c <_Z8userMainv>
    }

    pt->terminate();
    pt2->terminate();
    */
    idleAlive=0;
    80002b38:	0000a797          	auipc	a5,0xa
    80002b3c:	ee07a023          	sw	zero,-288(a5) # 8000ca18 <idleAlive>
    return 0;
    80002b40:	00000513          	li	a0,0
    80002b44:	02813083          	ld	ra,40(sp)
    80002b48:	02013403          	ld	s0,32(sp)
    80002b4c:	01813483          	ld	s1,24(sp)
    80002b50:	01013903          	ld	s2,16(sp)
    80002b54:	03010113          	addi	sp,sp,48
    80002b58:	00008067          	ret

0000000080002b5c <_ZN6ThreadD1Ev>:
        virtual ~Thread (){
    80002b5c:	ff010113          	addi	sp,sp,-16
    80002b60:	00813423          	sd	s0,8(sp)
    80002b64:	01010413          	addi	s0,sp,16
        }
    80002b68:	00813403          	ld	s0,8(sp)
    80002b6c:	01010113          	addi	sp,sp,16
    80002b70:	00008067          	ret

0000000080002b74 <_ZN6Thread3runEv>:
        virtual void run () {}
    80002b74:	ff010113          	addi	sp,sp,-16
    80002b78:	00813423          	sd	s0,8(sp)
    80002b7c:	01010413          	addi	s0,sp,16
    80002b80:	00813403          	ld	s0,8(sp)
    80002b84:	01010113          	addi	sp,sp,16
    80002b88:	00008067          	ret

0000000080002b8c <_ZN6Thread11threadEntryEPv>:
        static void threadEntry(void* arg){
    80002b8c:	ff010113          	addi	sp,sp,-16
    80002b90:	00113423          	sd	ra,8(sp)
    80002b94:	00813023          	sd	s0,0(sp)
    80002b98:	01010413          	addi	s0,sp,16
            self->run();
    80002b9c:	00053783          	ld	a5,0(a0)
    80002ba0:	0107b783          	ld	a5,16(a5)
    80002ba4:	000780e7          	jalr	a5
        }
    80002ba8:	00813083          	ld	ra,8(sp)
    80002bac:	00013403          	ld	s0,0(sp)
    80002bb0:	01010113          	addi	sp,sp,16
    80002bb4:	00008067          	ret

0000000080002bb8 <_ZN6ThreadD0Ev>:
        virtual ~Thread (){
    80002bb8:	ff010113          	addi	sp,sp,-16
    80002bbc:	00113423          	sd	ra,8(sp)
    80002bc0:	00813023          	sd	s0,0(sp)
    80002bc4:	01010413          	addi	s0,sp,16
        }
    80002bc8:	00000097          	auipc	ra,0x0
    80002bcc:	040080e7          	jalr	64(ra) # 80002c08 <_ZdlPv>
    80002bd0:	00813083          	ld	ra,8(sp)
    80002bd4:	00013403          	ld	s0,0(sp)
    80002bd8:	01010113          	addi	sp,sp,16
    80002bdc:	00008067          	ret

0000000080002be0 <_Znwm>:
// Created by os on 6/7/23.
//
#include "../h/syscall_cpp.hpp"


void* operator new(size_t size) {
    80002be0:	ff010113          	addi	sp,sp,-16
    80002be4:	00113423          	sd	ra,8(sp)
    80002be8:	00813023          	sd	s0,0(sp)
    80002bec:	01010413          	addi	s0,sp,16
    void* ptr = mem_alloc(size);
    80002bf0:	ffffe097          	auipc	ra,0xffffe
    80002bf4:	690080e7          	jalr	1680(ra) # 80001280 <_Z9mem_allocm>
    return ptr;
}
    80002bf8:	00813083          	ld	ra,8(sp)
    80002bfc:	00013403          	ld	s0,0(sp)
    80002c00:	01010113          	addi	sp,sp,16
    80002c04:	00008067          	ret

0000000080002c08 <_ZdlPv>:

void operator delete(void* ptr) {
    80002c08:	ff010113          	addi	sp,sp,-16
    80002c0c:	00113423          	sd	ra,8(sp)
    80002c10:	00813023          	sd	s0,0(sp)
    80002c14:	01010413          	addi	s0,sp,16
    mem_free(ptr);
    80002c18:	ffffe097          	auipc	ra,0xffffe
    80002c1c:	6a8080e7          	jalr	1704(ra) # 800012c0 <_Z8mem_freePv>
}
    80002c20:	00813083          	ld	ra,8(sp)
    80002c24:	00013403          	ld	s0,0(sp)
    80002c28:	01010113          	addi	sp,sp,16
    80002c2c:	00008067          	ret

0000000080002c30 <_Z16kern_thread_ctorPv>:
    thread_t sleeping_head;
} scheduler;

void kern_thread_yield();

void kern_thread_ctor(void* addr){
    80002c30:	ff010113          	addi	sp,sp,-16
    80002c34:	00813423          	sd	s0,8(sp)
    80002c38:	01010413          	addi	s0,sp,16
    thread_t t = (thread_t)addr;
    t->status=UNUSED;
    80002c3c:	04052823          	sw	zero,80(a0)
    t->stack_space=0;
    80002c40:	04053023          	sd	zero,64(a0)
    t->arg=0;
    80002c44:	02053023          	sd	zero,32(a0)
    t->joined_tid=-1;
    80002c48:	fff00793          	li	a5,-1
    80002c4c:	02f53423          	sd	a5,40(a0)
    t->timeslice=DEFAULT_TIME_SLICE;
    80002c50:	00200793          	li	a5,2
    80002c54:	02f53823          	sd	a5,48(a0)
    t->body=0;
    80002c58:	00053c23          	sd	zero,24(a0)
    t->stack_space = 0;
    t->sp =0;
    80002c5c:	00053423          	sd	zero,8(a0)
    t->ra=0;
    80002c60:	00053023          	sd	zero,0(a0)
    t->sem_next=0;
    80002c64:	04053c23          	sd	zero,88(a0)
    t->next_thread=0;
    80002c68:	06053023          	sd	zero,96(a0)
    t->mailbox=0;
    80002c6c:	04053423          	sd	zero,72(a0)
}
    80002c70:	00813403          	ld	s0,8(sp)
    80002c74:	01010113          	addi	sp,sp,16
    80002c78:	00008067          	ret

0000000080002c7c <_Z16kern_thread_dtorPv>:

void kern_thread_dtor(void* addr)
{
    80002c7c:	ff010113          	addi	sp,sp,-16
    80002c80:	00113423          	sd	ra,8(sp)
    80002c84:	00813023          	sd	s0,0(sp)
    80002c88:	01010413          	addi	s0,sp,16
    thread_t t = (thread_t)addr;
    printf("\n Destroying thread id=%d\n",t->id);
    80002c8c:	01053583          	ld	a1,16(a0)
    80002c90:	00007517          	auipc	a0,0x7
    80002c94:	51850513          	addi	a0,a0,1304 # 8000a1a8 <CONSOLE_STATUS+0x198>
    80002c98:	fffff097          	auipc	ra,0xfffff
    80002c9c:	5a8080e7          	jalr	1448(ra) # 80002240 <_Z6printfPKcz>
}
    80002ca0:	00813083          	ld	ra,8(sp)
    80002ca4:	00013403          	ld	s0,0(sp)
    80002ca8:	01010113          	addi	sp,sp,16
    80002cac:	00008067          	ret

0000000080002cb0 <_Z16kern_thread_initv>:
void kern_thread_init()
{
    80002cb0:	fe010113          	addi	sp,sp,-32
    80002cb4:	00113c23          	sd	ra,24(sp)
    80002cb8:	00813823          	sd	s0,16(sp)
    80002cbc:	00913423          	sd	s1,8(sp)
    80002cc0:	02010413          	addi	s0,sp,32
    threads_cache=kmem_cache_create("thread cache", sizeof(thread_s),kern_thread_ctor,kern_thread_dtor);
    80002cc4:	00000697          	auipc	a3,0x0
    80002cc8:	fb868693          	addi	a3,a3,-72 # 80002c7c <_Z16kern_thread_dtorPv>
    80002ccc:	00000617          	auipc	a2,0x0
    80002cd0:	f6460613          	addi	a2,a2,-156 # 80002c30 <_Z16kern_thread_ctorPv>
    80002cd4:	06800593          	li	a1,104
    80002cd8:	00007517          	auipc	a0,0x7
    80002cdc:	4f050513          	addi	a0,a0,1264 # 8000a1c8 <CONSOLE_STATUS+0x1b8>
    80002ce0:	00001097          	auipc	ra,0x1
    80002ce4:	e68080e7          	jalr	-408(ra) # 80003b48 <_Z17kmem_cache_createPKcmPFvPvES3_>
    80002ce8:	0000a497          	auipc	s1,0xa
    80002cec:	0a848493          	addi	s1,s1,168 # 8000cd90 <threads_cache>
    80002cf0:	00a4b023          	sd	a0,0(s1)
    id=0;
    80002cf4:	0004a423          	sw	zero,8(s1)
    for (int i=0;i<MAX_THREADS;i++){
        kthreads[i].status=UNUSED;
    }
    */
    //set main thread
    thread_t main_thread = (thread_t) kmem_cache_alloc(threads_cache);
    80002cf8:	00001097          	auipc	ra,0x1
    80002cfc:	514080e7          	jalr	1300(ra) # 8000420c <_Z16kmem_cache_allocP12kmem_cache_s>
    main_thread->status=RUNNING;
    80002d00:	00100793          	li	a5,1
    80002d04:	04f52823          	sw	a5,80(a0)
    main_thread->id=0;
    80002d08:	00053823          	sd	zero,16(a0)
    main_thread->timeslice=DEFAULT_TIME_SLICE+2;
    80002d0c:	00400793          	li	a5,4
    80002d10:	02f53823          	sd	a5,48(a0)
    main_thread->endTime=0;
    80002d14:	02053c23          	sd	zero,56(a0)
    main_thread->next_thread=0;
    80002d18:	06053023          	sd	zero,96(a0)
    running=main_thread;
    80002d1c:	00a4b823          	sd	a0,16(s1)
    scheduler.ready_head=0;
    80002d20:	0004bc23          	sd	zero,24(s1)
    scheduler.ready_tail=0;
    80002d24:	0204b023          	sd	zero,32(s1)
    scheduler.joined_head=0;
    80002d28:	0204b423          	sd	zero,40(s1)
    scheduler.sleeping_head=0;
    80002d2c:	0204b823          	sd	zero,48(s1)
}
    80002d30:	01813083          	ld	ra,24(sp)
    80002d34:	01013403          	ld	s0,16(sp)
    80002d38:	00813483          	ld	s1,8(sp)
    80002d3c:	02010113          	addi	sp,sp,32
    80002d40:	00008067          	ret

0000000080002d44 <_Z18kern_scheduler_putP8thread_s>:

void kern_scheduler_put(thread_t t)
{
    80002d44:	ff010113          	addi	sp,sp,-16
    80002d48:	00813423          	sd	s0,8(sp)
    80002d4c:	01010413          	addi	s0,sp,16
    t->status=READY;
    80002d50:	00200793          	li	a5,2
    80002d54:	04f52823          	sw	a5,80(a0)
    if(scheduler.ready_tail==0){
    80002d58:	0000a797          	auipc	a5,0xa
    80002d5c:	0587b783          	ld	a5,88(a5) # 8000cdb0 <scheduler+0x8>
    80002d60:	02078063          	beqz	a5,80002d80 <_Z18kern_scheduler_putP8thread_s+0x3c>
        scheduler.ready_tail=t;
        scheduler.ready_head=t;
    } else{
        scheduler.ready_tail->next_thread=t;
    80002d64:	06a7b023          	sd	a0,96(a5)
        scheduler.ready_tail=t;
    80002d68:	0000a797          	auipc	a5,0xa
    80002d6c:	04a7b423          	sd	a0,72(a5) # 8000cdb0 <scheduler+0x8>
    }
    t->next_thread=0;
    80002d70:	06053023          	sd	zero,96(a0)
}
    80002d74:	00813403          	ld	s0,8(sp)
    80002d78:	01010113          	addi	sp,sp,16
    80002d7c:	00008067          	ret
        scheduler.ready_tail=t;
    80002d80:	0000a797          	auipc	a5,0xa
    80002d84:	01078793          	addi	a5,a5,16 # 8000cd90 <threads_cache>
    80002d88:	02a7b023          	sd	a0,32(a5)
        scheduler.ready_head=t;
    80002d8c:	00a7bc23          	sd	a0,24(a5)
    80002d90:	fe1ff06f          	j	80002d70 <_Z18kern_scheduler_putP8thread_s+0x2c>

0000000080002d94 <_Z18kern_scheduler_getv>:

thread_t kern_scheduler_get()
{
    80002d94:	ff010113          	addi	sp,sp,-16
    80002d98:	00813423          	sd	s0,8(sp)
    80002d9c:	01010413          	addi	s0,sp,16
    if(scheduler.ready_head==0) return 0;
    80002da0:	0000a517          	auipc	a0,0xa
    80002da4:	00853503          	ld	a0,8(a0) # 8000cda8 <scheduler>
    80002da8:	02050063          	beqz	a0,80002dc8 <_Z18kern_scheduler_getv+0x34>
    thread_t t = scheduler.ready_head;
    scheduler.ready_head=scheduler.ready_head->next_thread;
    80002dac:	06053703          	ld	a4,96(a0)
    80002db0:	0000a797          	auipc	a5,0xa
    80002db4:	fe078793          	addi	a5,a5,-32 # 8000cd90 <threads_cache>
    80002db8:	00e7bc23          	sd	a4,24(a5)
    if(scheduler.ready_tail==t) scheduler.ready_tail=0;
    80002dbc:	0207b783          	ld	a5,32(a5)
    80002dc0:	00f50a63          	beq	a0,a5,80002dd4 <_Z18kern_scheduler_getv+0x40>
    t->next_thread=0;
    80002dc4:	06053023          	sd	zero,96(a0)
    return t;
}
    80002dc8:	00813403          	ld	s0,8(sp)
    80002dcc:	01010113          	addi	sp,sp,16
    80002dd0:	00008067          	ret
    if(scheduler.ready_tail==t) scheduler.ready_tail=0;
    80002dd4:	0000a797          	auipc	a5,0xa
    80002dd8:	fc07be23          	sd	zero,-36(a5) # 8000cdb0 <scheduler+0x8>
    80002ddc:	fe9ff06f          	j	80002dc4 <_Z18kern_scheduler_getv+0x30>

0000000080002de0 <_Z10popSppSpiev>:
    w_sepc(v_sepc);
}

//samo izlazi iz kernela i vraca se odakle je pozvana
void popSppSpie()
{
    80002de0:	ff010113          	addi	sp,sp,-16
    80002de4:	00813423          	sd	s0,8(sp)
    80002de8:	01010413          	addi	s0,sp,16
    __asm__ volatile("csrw sepc, ra"); //ovde dodaj izlazak iz privilegovanog moda
    80002dec:	14109073          	csrw	sepc,ra
    __asm__ volatile("csrc sstatus, %[mask]" : : [mask] "r"(1 << 8));
    80002df0:	10000793          	li	a5,256
    80002df4:	1007b073          	csrc	sstatus,a5
    __asm__ volatile("sret");
    80002df8:	10200073          	sret
}
    80002dfc:	00813403          	ld	s0,8(sp)
    80002e00:	01010113          	addi	sp,sp,16
    80002e04:	00008067          	ret

0000000080002e08 <_Z19kern_thread_wrapperv>:
        contextSwitch(old,running);
    }
}

void kern_thread_wrapper()
{
    80002e08:	ff010113          	addi	sp,sp,-16
    80002e0c:	00113423          	sd	ra,8(sp)
    80002e10:	00813023          	sd	s0,0(sp)
    80002e14:	01010413          	addi	s0,sp,16
    popSppSpie();
    80002e18:	00000097          	auipc	ra,0x0
    80002e1c:	fc8080e7          	jalr	-56(ra) # 80002de0 <_Z10popSppSpiev>
    running->body(running->arg);
    80002e20:	0000a797          	auipc	a5,0xa
    80002e24:	f807b783          	ld	a5,-128(a5) # 8000cda0 <running>
    80002e28:	0187b703          	ld	a4,24(a5)
    80002e2c:	0207b503          	ld	a0,32(a5)
    80002e30:	000700e7          	jalr	a4
    running->joined_tid=-1;
    for(int i=0;i<MAX_THREADS;i++){
        if(kthreads[i].status==JOINED && kthreads[i].joined_tid==running->id) kthreads[i].status=READY;
    }
*/
    thread_exit();
    80002e34:	ffffe097          	auipc	ra,0xffffe
    80002e38:	580080e7          	jalr	1408(ra) # 800013b4 <_Z11thread_exitv>
}
    80002e3c:	00813083          	ld	ra,8(sp)
    80002e40:	00013403          	ld	s0,0(sp)
    80002e44:	01010113          	addi	sp,sp,16
    80002e48:	00008067          	ret

0000000080002e4c <_Z17kern_thread_yieldv>:
{
    80002e4c:	fe010113          	addi	sp,sp,-32
    80002e50:	00113c23          	sd	ra,24(sp)
    80002e54:	00813823          	sd	s0,16(sp)
    80002e58:	00913423          	sd	s1,8(sp)
    80002e5c:	01213023          	sd	s2,0(sp)
    80002e60:	02010413          	addi	s0,sp,32
    thread_t old = running;
    80002e64:	0000a917          	auipc	s2,0xa
    80002e68:	f2c90913          	addi	s2,s2,-212 # 8000cd90 <threads_cache>
    80002e6c:	01093483          	ld	s1,16(s2)
    running=kern_scheduler_get();
    80002e70:	00000097          	auipc	ra,0x0
    80002e74:	f24080e7          	jalr	-220(ra) # 80002d94 <_Z18kern_scheduler_getv>
    80002e78:	00a93823          	sd	a0,16(s2)
    if(old!=running){
    80002e7c:	04950663          	beq	a0,s1,80002ec8 <_Z17kern_thread_yieldv+0x7c>
    80002e80:	00050593          	mv	a1,a0
        running->status=RUNNING;
    80002e84:	00100793          	li	a5,1
    80002e88:	04f52823          	sw	a5,80(a0)
        if(old->status==RUNNING) old->status=READY;
    80002e8c:	0504a703          	lw	a4,80(s1)
    80002e90:	00100793          	li	a5,1
    80002e94:	02f70463          	beq	a4,a5,80002ebc <_Z17kern_thread_yieldv+0x70>
        contextSwitch(old,running);
    80002e98:	00048513          	mv	a0,s1
    80002e9c:	ffffe097          	auipc	ra,0xffffe
    80002ea0:	3d0080e7          	jalr	976(ra) # 8000126c <contextSwitch>
}
    80002ea4:	01813083          	ld	ra,24(sp)
    80002ea8:	01013403          	ld	s0,16(sp)
    80002eac:	00813483          	ld	s1,8(sp)
    80002eb0:	00013903          	ld	s2,0(sp)
    80002eb4:	02010113          	addi	sp,sp,32
    80002eb8:	00008067          	ret
        if(old->status==RUNNING) old->status=READY;
    80002ebc:	00200793          	li	a5,2
    80002ec0:	04f4a823          	sw	a5,80(s1)
    80002ec4:	fd5ff06f          	j	80002e98 <_Z17kern_thread_yieldv+0x4c>
        old->status=RUNNING;
    80002ec8:	00100793          	li	a5,1
    80002ecc:	04f4a823          	sw	a5,80(s1)
}
    80002ed0:	fd5ff06f          	j	80002ea4 <_Z17kern_thread_yieldv+0x58>

0000000080002ed4 <_Z20kern_thread_dispatchv>:
{
    80002ed4:	fd010113          	addi	sp,sp,-48
    80002ed8:	02113423          	sd	ra,40(sp)
    80002edc:	02813023          	sd	s0,32(sp)
    80002ee0:	03010413          	addi	s0,sp,48
    kern_scheduler_put(running);
    80002ee4:	0000a517          	auipc	a0,0xa
    80002ee8:	ebc53503          	ld	a0,-324(a0) # 8000cda0 <running>
    80002eec:	00000097          	auipc	ra,0x0
    80002ef0:	e58080e7          	jalr	-424(ra) # 80002d44 <_Z18kern_scheduler_putP8thread_s>
}

inline uint64 r_sstatus()
{
    uint64 volatile sstatus;
    __asm__ volatile ("csrr %[sstatus], sstatus" : [sstatus] "=r"(sstatus));
    80002ef4:	100027f3          	csrr	a5,sstatus
    80002ef8:	fcf43c23          	sd	a5,-40(s0)
    return sstatus;
    80002efc:	fd843783          	ld	a5,-40(s0)
    uint64 volatile sstatus = r_sstatus();
    80002f00:	fef43423          	sd	a5,-24(s0)
    __asm__ volatile ("csrr %[sepc], sepc" : [sepc] "=r"(sepc));
    80002f04:	141027f3          	csrr	a5,sepc
    80002f08:	fcf43823          	sd	a5,-48(s0)
    return sepc;
    80002f0c:	fd043783          	ld	a5,-48(s0)
    uint64 volatile v_sepc = r_sepc();
    80002f10:	fef43023          	sd	a5,-32(s0)
    kern_thread_yield();
    80002f14:	00000097          	auipc	ra,0x0
    80002f18:	f38080e7          	jalr	-200(ra) # 80002e4c <_Z17kern_thread_yieldv>
    w_sstatus(sstatus);
    80002f1c:	fe843783          	ld	a5,-24(s0)
}

inline void w_sstatus(uint64 sstatus)
{
    __asm__ volatile ("csrw sstatus, %[sstatus]" : : [sstatus] "r"(sstatus));
    80002f20:	10079073          	csrw	sstatus,a5
    w_sepc(v_sepc);
    80002f24:	fe043783          	ld	a5,-32(s0)
    __asm__ volatile ("csrw sepc, %[sepc]" : : [sepc] "r"(sepc));
    80002f28:	14179073          	csrw	sepc,a5
}
    80002f2c:	02813083          	ld	ra,40(sp)
    80002f30:	02013403          	ld	s0,32(sp)
    80002f34:	03010113          	addi	sp,sp,48
    80002f38:	00008067          	ret

0000000080002f3c <_Z25kern_thread_resume_joinedm>:
{
    80002f3c:	fd010113          	addi	sp,sp,-48
    80002f40:	02113423          	sd	ra,40(sp)
    80002f44:	02813023          	sd	s0,32(sp)
    80002f48:	00913c23          	sd	s1,24(sp)
    80002f4c:	01213823          	sd	s2,16(sp)
    80002f50:	01313423          	sd	s3,8(sp)
    80002f54:	03010413          	addi	s0,sp,48
    80002f58:	00050993          	mv	s3,a0
    thread_t curr = scheduler.joined_head;
    80002f5c:	0000a517          	auipc	a0,0xa
    80002f60:	e5c53503          	ld	a0,-420(a0) # 8000cdb8 <scheduler+0x10>
    thread_t prev = 0;
    80002f64:	00000913          	li	s2,0
    80002f68:	00c0006f          	j	80002f74 <_Z25kern_thread_resume_joinedm+0x38>
            prev=curr;
    80002f6c:	00050913          	mv	s2,a0
    80002f70:	00048513          	mv	a0,s1
    while (curr!=0){
    80002f74:	02050863          	beqz	a0,80002fa4 <_Z25kern_thread_resume_joinedm+0x68>
        next=curr->next_thread;
    80002f78:	06053483          	ld	s1,96(a0)
        if(curr->joined_tid<=joined_tid){
    80002f7c:	02853783          	ld	a5,40(a0)
    80002f80:	fef9e6e3          	bltu	s3,a5,80002f6c <_Z25kern_thread_resume_joinedm+0x30>
            if(prev!=0){
    80002f84:	00090a63          	beqz	s2,80002f98 <_Z25kern_thread_resume_joinedm+0x5c>
                prev->next_thread=curr->next_thread;
    80002f88:	06993023          	sd	s1,96(s2)
            kern_scheduler_put(curr);
    80002f8c:	00000097          	auipc	ra,0x0
    80002f90:	db8080e7          	jalr	-584(ra) # 80002d44 <_Z18kern_scheduler_putP8thread_s>
    80002f94:	fddff06f          	j	80002f70 <_Z25kern_thread_resume_joinedm+0x34>
                scheduler.joined_head=curr->next_thread;
    80002f98:	0000a797          	auipc	a5,0xa
    80002f9c:	e297b023          	sd	s1,-480(a5) # 8000cdb8 <scheduler+0x10>
    80002fa0:	fedff06f          	j	80002f8c <_Z25kern_thread_resume_joinedm+0x50>
}
    80002fa4:	02813083          	ld	ra,40(sp)
    80002fa8:	02013403          	ld	s0,32(sp)
    80002fac:	01813483          	ld	s1,24(sp)
    80002fb0:	01013903          	ld	s2,16(sp)
    80002fb4:	00813983          	ld	s3,8(sp)
    80002fb8:	03010113          	addi	sp,sp,48
    80002fbc:	00008067          	ret

0000000080002fc0 <_Z23kern_thread_end_runningv>:
{
    80002fc0:	fe010113          	addi	sp,sp,-32
    80002fc4:	00113c23          	sd	ra,24(sp)
    80002fc8:	00813823          	sd	s0,16(sp)
    80002fcc:	00913423          	sd	s1,8(sp)
    80002fd0:	01213023          	sd	s2,0(sp)
    80002fd4:	02010413          	addi	s0,sp,32
    thread_t old = running;
    80002fd8:	0000a917          	auipc	s2,0xa
    80002fdc:	db890913          	addi	s2,s2,-584 # 8000cd90 <threads_cache>
    80002fe0:	01093483          	ld	s1,16(s2)
    old->status=UNUSED;
    80002fe4:	0404a823          	sw	zero,80(s1)
    kern_thread_resume_joined(old->id);
    80002fe8:	0104b503          	ld	a0,16(s1)
    80002fec:	00000097          	auipc	ra,0x0
    80002ff0:	f50080e7          	jalr	-176(ra) # 80002f3c <_Z25kern_thread_resume_joinedm>
    running=kern_scheduler_get();
    80002ff4:	00000097          	auipc	ra,0x0
    80002ff8:	da0080e7          	jalr	-608(ra) # 80002d94 <_Z18kern_scheduler_getv>
    80002ffc:	00a93823          	sd	a0,16(s2)
    if(old->stack_space!=0) kern_mem_free((void*)old->stack_space);
    80003000:	0404b503          	ld	a0,64(s1)
    80003004:	04051463          	bnez	a0,8000304c <_Z23kern_thread_end_runningv+0x8c>
    kmem_cache_free(threads_cache,old);
    80003008:	0000a917          	auipc	s2,0xa
    8000300c:	d8890913          	addi	s2,s2,-632 # 8000cd90 <threads_cache>
    80003010:	00048593          	mv	a1,s1
    80003014:	00093503          	ld	a0,0(s2)
    80003018:	00001097          	auipc	ra,0x1
    8000301c:	230080e7          	jalr	560(ra) # 80004248 <_Z15kmem_cache_freeP12kmem_cache_sPv>
    if(old!=running){
    80003020:	01093583          	ld	a1,16(s2)
    80003024:	00958863          	beq	a1,s1,80003034 <_Z23kern_thread_end_runningv+0x74>
        contextSwitch(old,running);
    80003028:	00048513          	mv	a0,s1
    8000302c:	ffffe097          	auipc	ra,0xffffe
    80003030:	240080e7          	jalr	576(ra) # 8000126c <contextSwitch>
}
    80003034:	01813083          	ld	ra,24(sp)
    80003038:	01013403          	ld	s0,16(sp)
    8000303c:	00813483          	ld	s1,8(sp)
    80003040:	00013903          	ld	s2,0(sp)
    80003044:	02010113          	addi	sp,sp,32
    80003048:	00008067          	ret
    if(old->stack_space!=0) kern_mem_free((void*)old->stack_space);
    8000304c:	fffff097          	auipc	ra,0xfffff
    80003050:	484080e7          	jalr	1156(ra) # 800024d0 <_Z13kern_mem_freePv>
    80003054:	fb5ff06f          	j	80003008 <_Z23kern_thread_end_runningv+0x48>

0000000080003058 <_Z18kern_thread_createPP8thread_sPFvPvES2_S2_>:

int kern_thread_create(thread_t* handle, void(*start_routine)(void*), void* arg, void* stack_space)
{
    80003058:	fd010113          	addi	sp,sp,-48
    8000305c:	02113423          	sd	ra,40(sp)
    80003060:	02813023          	sd	s0,32(sp)
    80003064:	00913c23          	sd	s1,24(sp)
    80003068:	01213823          	sd	s2,16(sp)
    8000306c:	01313423          	sd	s3,8(sp)
    80003070:	01413023          	sd	s4,0(sp)
    80003074:	03010413          	addi	s0,sp,48
    80003078:	00050913          	mv	s2,a0
    8000307c:	00058a13          	mv	s4,a1
    80003080:	00060993          	mv	s3,a2
    80003084:	00068493          	mv	s1,a3
    *handle=0;
    80003088:	00053023          	sd	zero,0(a0)
    thread_t t= (thread_t)kmem_cache_alloc(threads_cache);
    8000308c:	0000a517          	auipc	a0,0xa
    80003090:	d0453503          	ld	a0,-764(a0) # 8000cd90 <threads_cache>
    80003094:	00001097          	auipc	ra,0x1
    80003098:	178080e7          	jalr	376(ra) # 8000420c <_Z16kmem_cache_allocP12kmem_cache_s>
    if(t==0) return -1;
    8000309c:	08050c63          	beqz	a0,80003134 <_Z18kern_thread_createPP8thread_sPFvPvES2_S2_+0xdc>
    *handle=t;
    800030a0:	00a93023          	sd	a0,0(s2)

    t->id=++id;
    800030a4:	0000a717          	auipc	a4,0xa
    800030a8:	cec70713          	addi	a4,a4,-788 # 8000cd90 <threads_cache>
    800030ac:	00872783          	lw	a5,8(a4)
    800030b0:	0017879b          	addiw	a5,a5,1
    800030b4:	0007869b          	sext.w	a3,a5
    800030b8:	00f72423          	sw	a5,8(a4)
    800030bc:	00d53823          	sd	a3,16(a0)
    t->status=READY;
    800030c0:	00200793          	li	a5,2
    800030c4:	04f52823          	sw	a5,80(a0)
    t->arg=arg;
    800030c8:	03353023          	sd	s3,32(a0)
    t->joined_tid=-1;
    800030cc:	fff00793          	li	a5,-1
    800030d0:	02f53423          	sd	a5,40(a0)
    t->timeslice=DEFAULT_TIME_SLICE;
    800030d4:	00200793          	li	a5,2
    800030d8:	02f53823          	sd	a5,48(a0)
    t->body=start_routine;
    800030dc:	01453c23          	sd	s4,24(a0)
    t->stack_space = ((uint64)stack_space);
    800030e0:	04953023          	sd	s1,64(a0)
    t->sp = t->stack_space+(DEFAULT_STACK_SIZE);
    800030e4:	000016b7          	lui	a3,0x1
    800030e8:	00d484b3          	add	s1,s1,a3
    800030ec:	00953423          	sd	s1,8(a0)
    t->ra=(uint64) &kern_thread_wrapper;
    800030f0:	00000797          	auipc	a5,0x0
    800030f4:	d1878793          	addi	a5,a5,-744 # 80002e08 <_Z19kern_thread_wrapperv>
    800030f8:	00f53023          	sd	a5,0(a0)
    t->sem_next=0;
    800030fc:	04053c23          	sd	zero,88(a0)
    t->next_thread=0;
    80003100:	06053023          	sd	zero,96(a0)
    t->mailbox=0;
    80003104:	04053423          	sd	zero,72(a0)
    kern_scheduler_put(t);
    80003108:	00000097          	auipc	ra,0x0
    8000310c:	c3c080e7          	jalr	-964(ra) # 80002d44 <_Z18kern_scheduler_putP8thread_s>

    return 0;
    80003110:	00000513          	li	a0,0
}
    80003114:	02813083          	ld	ra,40(sp)
    80003118:	02013403          	ld	s0,32(sp)
    8000311c:	01813483          	ld	s1,24(sp)
    80003120:	01013903          	ld	s2,16(sp)
    80003124:	00813983          	ld	s3,8(sp)
    80003128:	00013a03          	ld	s4,0(sp)
    8000312c:	03010113          	addi	sp,sp,48
    80003130:	00008067          	ret
    if(t==0) return -1;
    80003134:	fff00513          	li	a0,-1
    80003138:	fddff06f          	j	80003114 <_Z18kern_thread_createPP8thread_sPFvPvES2_S2_+0xbc>

000000008000313c <_Z16kern_thread_joinP8thread_s>:

void kern_thread_join(thread_t handle)
{
    if(handle->status==UNUSED) return;
    8000313c:	05052783          	lw	a5,80(a0)
    80003140:	00079463          	bnez	a5,80003148 <_Z16kern_thread_joinP8thread_s+0xc>
    80003144:	00008067          	ret
{
    80003148:	fd010113          	addi	sp,sp,-48
    8000314c:	02113423          	sd	ra,40(sp)
    80003150:	02813023          	sd	s0,32(sp)
    80003154:	03010413          	addi	s0,sp,48
    running->joined_tid=handle->id;
    80003158:	0000a717          	auipc	a4,0xa
    8000315c:	c3870713          	addi	a4,a4,-968 # 8000cd90 <threads_cache>
    80003160:	01073783          	ld	a5,16(a4)
    80003164:	01053683          	ld	a3,16(a0)
    80003168:	02d7b423          	sd	a3,40(a5)
    running->status=JOINED;
    8000316c:	00400693          	li	a3,4
    80003170:	04d7a823          	sw	a3,80(a5)
    running->next_thread=scheduler.joined_head;
    80003174:	02873683          	ld	a3,40(a4)
    80003178:	06d7b023          	sd	a3,96(a5)
    scheduler.joined_head=running;
    8000317c:	02f73423          	sd	a5,40(a4)
    __asm__ volatile ("csrr %[sstatus], sstatus" : [sstatus] "=r"(sstatus));
    80003180:	100027f3          	csrr	a5,sstatus
    80003184:	fcf43c23          	sd	a5,-40(s0)
    return sstatus;
    80003188:	fd843783          	ld	a5,-40(s0)
    uint64 volatile sstatus = r_sstatus();
    8000318c:	fef43423          	sd	a5,-24(s0)
    __asm__ volatile ("csrr %[sepc], sepc" : [sepc] "=r"(sepc));
    80003190:	141027f3          	csrr	a5,sepc
    80003194:	fcf43823          	sd	a5,-48(s0)
    return sepc;
    80003198:	fd043783          	ld	a5,-48(s0)
    uint64 volatile v_sepc = r_sepc();
    8000319c:	fef43023          	sd	a5,-32(s0)
    kern_thread_yield();
    800031a0:	00000097          	auipc	ra,0x0
    800031a4:	cac080e7          	jalr	-852(ra) # 80002e4c <_Z17kern_thread_yieldv>
    w_sstatus(sstatus);
    800031a8:	fe843783          	ld	a5,-24(s0)
    __asm__ volatile ("csrw sstatus, %[sstatus]" : : [sstatus] "r"(sstatus));
    800031ac:	10079073          	csrw	sstatus,a5
    w_sepc(v_sepc);
    800031b0:	fe043783          	ld	a5,-32(s0)
    __asm__ volatile ("csrw sepc, %[sepc]" : : [sepc] "r"(sepc));
    800031b4:	14179073          	csrw	sepc,a5
}
    800031b8:	02813083          	ld	ra,40(sp)
    800031bc:	02013403          	ld	s0,32(sp)
    800031c0:	03010113          	addi	sp,sp,48
    800031c4:	00008067          	ret

00000000800031c8 <_Z18kern_thread_wakeupm>:

void kern_thread_wakeup(uint64 system_time)
{
    800031c8:	fd010113          	addi	sp,sp,-48
    800031cc:	02113423          	sd	ra,40(sp)
    800031d0:	02813023          	sd	s0,32(sp)
    800031d4:	00913c23          	sd	s1,24(sp)
    800031d8:	01213823          	sd	s2,16(sp)
    800031dc:	01313423          	sd	s3,8(sp)
    800031e0:	03010413          	addi	s0,sp,48
    800031e4:	00050993          	mv	s3,a0
    thread_t curr = scheduler.sleeping_head;
    800031e8:	0000a517          	auipc	a0,0xa
    800031ec:	bd853503          	ld	a0,-1064(a0) # 8000cdc0 <scheduler+0x18>
    thread_t prev = 0;
    800031f0:	00000913          	li	s2,0
    800031f4:	00c0006f          	j	80003200 <_Z18kern_thread_wakeupm+0x38>
            } else{
                scheduler.sleeping_head=curr->next_thread;
            }
            kern_scheduler_put(curr);
        } else{
            prev=curr;
    800031f8:	00050913          	mv	s2,a0
    800031fc:	00048513          	mv	a0,s1
    while (curr!=0){
    80003200:	02050863          	beqz	a0,80003230 <_Z18kern_thread_wakeupm+0x68>
        next=curr->next_thread;
    80003204:	06053483          	ld	s1,96(a0)
        if(curr->endTime<=system_time){
    80003208:	03853783          	ld	a5,56(a0)
    8000320c:	fef9e6e3          	bltu	s3,a5,800031f8 <_Z18kern_thread_wakeupm+0x30>
            if(prev!=0){
    80003210:	00090a63          	beqz	s2,80003224 <_Z18kern_thread_wakeupm+0x5c>
                prev->next_thread=curr->next_thread;
    80003214:	06993023          	sd	s1,96(s2)
            kern_scheduler_put(curr);
    80003218:	00000097          	auipc	ra,0x0
    8000321c:	b2c080e7          	jalr	-1236(ra) # 80002d44 <_Z18kern_scheduler_putP8thread_s>
    80003220:	fddff06f          	j	800031fc <_Z18kern_thread_wakeupm+0x34>
                scheduler.sleeping_head=curr->next_thread;
    80003224:	0000a797          	auipc	a5,0xa
    80003228:	b897be23          	sd	s1,-1124(a5) # 8000cdc0 <scheduler+0x18>
    8000322c:	fedff06f          	j	80003218 <_Z18kern_thread_wakeupm+0x50>
        }
        curr=next;
    }

}
    80003230:	02813083          	ld	ra,40(sp)
    80003234:	02013403          	ld	s0,32(sp)
    80003238:	01813483          	ld	s1,24(sp)
    8000323c:	01013903          	ld	s2,16(sp)
    80003240:	00813983          	ld	s3,8(sp)
    80003244:	03010113          	addi	sp,sp,48
    80003248:	00008067          	ret

000000008000324c <_Z17kern_thread_sleepm>:

void kern_thread_sleep(uint64 wakeTime)
{
    8000324c:	fd010113          	addi	sp,sp,-48
    80003250:	02113423          	sd	ra,40(sp)
    80003254:	02813023          	sd	s0,32(sp)
    80003258:	03010413          	addi	s0,sp,48
    running->status=SLEEPING;
    8000325c:	0000a717          	auipc	a4,0xa
    80003260:	b3470713          	addi	a4,a4,-1228 # 8000cd90 <threads_cache>
    80003264:	01073783          	ld	a5,16(a4)
    80003268:	00500693          	li	a3,5
    8000326c:	04d7a823          	sw	a3,80(a5)
    running->endTime=wakeTime;
    80003270:	02a7bc23          	sd	a0,56(a5)
    running->next_thread=scheduler.sleeping_head;
    80003274:	03073683          	ld	a3,48(a4)
    80003278:	06d7b023          	sd	a3,96(a5)
    scheduler.sleeping_head=running;
    8000327c:	02f73823          	sd	a5,48(a4)
    __asm__ volatile ("csrr %[sstatus], sstatus" : [sstatus] "=r"(sstatus));
    80003280:	100027f3          	csrr	a5,sstatus
    80003284:	fcf43c23          	sd	a5,-40(s0)
    return sstatus;
    80003288:	fd843783          	ld	a5,-40(s0)
    uint64 volatile sstatus = r_sstatus();
    8000328c:	fef43423          	sd	a5,-24(s0)
    __asm__ volatile ("csrr %[sepc], sepc" : [sepc] "=r"(sepc));
    80003290:	141027f3          	csrr	a5,sepc
    80003294:	fcf43823          	sd	a5,-48(s0)
    return sepc;
    80003298:	fd043783          	ld	a5,-48(s0)
    uint64 volatile v_sepc = r_sepc();
    8000329c:	fef43023          	sd	a5,-32(s0)
    kern_thread_yield();
    800032a0:	00000097          	auipc	ra,0x0
    800032a4:	bac080e7          	jalr	-1108(ra) # 80002e4c <_Z17kern_thread_yieldv>
    w_sstatus(sstatus);
    800032a8:	fe843783          	ld	a5,-24(s0)
    __asm__ volatile ("csrw sstatus, %[sstatus]" : : [sstatus] "r"(sstatus));
    800032ac:	10079073          	csrw	sstatus,a5
    w_sepc(v_sepc);
    800032b0:	fe043783          	ld	a5,-32(s0)
    __asm__ volatile ("csrw sepc, %[sepc]" : : [sepc] "r"(sepc));
    800032b4:	14179073          	csrw	sepc,a5
}
    800032b8:	02813083          	ld	ra,40(sp)
    800032bc:	02013403          	ld	s0,32(sp)
    800032c0:	03010113          	addi	sp,sp,48
    800032c4:	00008067          	ret

00000000800032c8 <_Z13kern_sem_ctorPv>:

struct sem_s semaphores[MAX_SEMAPHORES];
kmem_cache_t * semaphore_cache;

void kern_sem_ctor(void* addr)
{
    800032c8:	ff010113          	addi	sp,sp,-16
    800032cc:	00813423          	sd	s0,8(sp)
    800032d0:	01010413          	addi	s0,sp,16
    sem_t sem = (sem_t) addr;
    sem->status=SEM_UNUSED;
    800032d4:	00100793          	li	a5,1
    800032d8:	00f52223          	sw	a5,4(a0)
    sem->waiting_thread=0;
    800032dc:	00053423          	sd	zero,8(a0)
    sem->val=0;
    800032e0:	00052023          	sw	zero,0(a0)
}
    800032e4:	00813403          	ld	s0,8(sp)
    800032e8:	01010113          	addi	sp,sp,16
    800032ec:	00008067          	ret

00000000800032f0 <_Z13kern_sem_initv>:

void kern_sem_init()
{
    800032f0:	ff010113          	addi	sp,sp,-16
    800032f4:	00113423          	sd	ra,8(sp)
    800032f8:	00813023          	sd	s0,0(sp)
    800032fc:	01010413          	addi	s0,sp,16
    semaphore_cache = (kmem_cache_t*) kmem_cache_create("sem cache", sizeof(sem_s),kern_sem_ctor,0);
    80003300:	00000693          	li	a3,0
    80003304:	00000617          	auipc	a2,0x0
    80003308:	fc460613          	addi	a2,a2,-60 # 800032c8 <_Z13kern_sem_ctorPv>
    8000330c:	01000593          	li	a1,16
    80003310:	00007517          	auipc	a0,0x7
    80003314:	ec850513          	addi	a0,a0,-312 # 8000a1d8 <CONSOLE_STATUS+0x1c8>
    80003318:	00001097          	auipc	ra,0x1
    8000331c:	830080e7          	jalr	-2000(ra) # 80003b48 <_Z17kmem_cache_createPKcmPFvPvES3_>
    80003320:	0000a797          	auipc	a5,0xa
    80003324:	aaa7b423          	sd	a0,-1368(a5) # 8000cdc8 <semaphore_cache>

}
    80003328:	00813083          	ld	ra,8(sp)
    8000332c:	00013403          	ld	s0,0(sp)
    80003330:	01010113          	addi	sp,sp,16
    80003334:	00008067          	ret

0000000080003338 <_Z13kern_sem_openPP5sem_sj>:

int kern_sem_open (sem_t* handle, unsigned init)
{
    80003338:	fe010113          	addi	sp,sp,-32
    8000333c:	00113c23          	sd	ra,24(sp)
    80003340:	00813823          	sd	s0,16(sp)
    80003344:	00913423          	sd	s1,8(sp)
    80003348:	01213023          	sd	s2,0(sp)
    8000334c:	02010413          	addi	s0,sp,32
    80003350:	00050493          	mv	s1,a0
    80003354:	00058913          	mv	s2,a1
    sem_t sem=(sem_t) kmem_cache_alloc(semaphore_cache);
    80003358:	0000a517          	auipc	a0,0xa
    8000335c:	a7053503          	ld	a0,-1424(a0) # 8000cdc8 <semaphore_cache>
    80003360:	00001097          	auipc	ra,0x1
    80003364:	eac080e7          	jalr	-340(ra) # 8000420c <_Z16kmem_cache_allocP12kmem_cache_s>
    *handle=sem;
    80003368:	00a4b023          	sd	a0,0(s1)
    if(sem==0) return -1;
    8000336c:	02050463          	beqz	a0,80003394 <_Z13kern_sem_openPP5sem_sj+0x5c>
    sem->status=SEM_USED;
    80003370:	00052223          	sw	zero,4(a0)
    sem->val=init;
    80003374:	01252023          	sw	s2,0(a0)
    return 0;
    80003378:	00000513          	li	a0,0
}
    8000337c:	01813083          	ld	ra,24(sp)
    80003380:	01013403          	ld	s0,16(sp)
    80003384:	00813483          	ld	s1,8(sp)
    80003388:	00013903          	ld	s2,0(sp)
    8000338c:	02010113          	addi	sp,sp,32
    80003390:	00008067          	ret
    if(sem==0) return -1;
    80003394:	fff00513          	li	a0,-1
    80003398:	fe5ff06f          	j	8000337c <_Z13kern_sem_openPP5sem_sj+0x44>

000000008000339c <_Z14kern_sem_closeP5sem_s>:

int kern_sem_close (sem_t handle)
{
    8000339c:	fe010113          	addi	sp,sp,-32
    800033a0:	00113c23          	sd	ra,24(sp)
    800033a4:	00813823          	sd	s0,16(sp)
    800033a8:	00913423          	sd	s1,8(sp)
    800033ac:	01213023          	sd	s2,0(sp)
    800033b0:	02010413          	addi	s0,sp,32
    800033b4:	00050913          	mv	s2,a0
    handle->status=SEM_UNUSED;
    800033b8:	00100793          	li	a5,1
    800033bc:	00f52223          	sw	a5,4(a0)
    handle->val=0;
    800033c0:	00052023          	sw	zero,0(a0)
    if(handle->waiting_thread!=0){
    800033c4:	00853503          	ld	a0,8(a0)
    800033c8:	02051663          	bnez	a0,800033f4 <_Z14kern_sem_closeP5sem_s+0x58>
    800033cc:	0300006f          	j	800033fc <_Z14kern_sem_closeP5sem_s+0x60>
        thread_t curr = handle->waiting_thread;
        while(curr){
            curr->mailbox=-2;
    800033d0:	ffe00793          	li	a5,-2
    800033d4:	04f53423          	sd	a5,72(a0)
            curr->status=READY;
    800033d8:	00200793          	li	a5,2
    800033dc:	04f52823          	sw	a5,80(a0)
            thread_t prev=curr;
            curr=curr->sem_next;
    800033e0:	05853483          	ld	s1,88(a0)
            prev->sem_next=0;
    800033e4:	04053c23          	sd	zero,88(a0)
            kern_scheduler_put(prev);
    800033e8:	00000097          	auipc	ra,0x0
    800033ec:	95c080e7          	jalr	-1700(ra) # 80002d44 <_Z18kern_scheduler_putP8thread_s>
            curr=curr->sem_next;
    800033f0:	00048513          	mv	a0,s1
        while(curr){
    800033f4:	fc051ee3          	bnez	a0,800033d0 <_Z14kern_sem_closeP5sem_s+0x34>
        }
        handle->waiting_thread=0;
    800033f8:	00093423          	sd	zero,8(s2)
    }
    kmem_cache_free(semaphore_cache,handle);
    800033fc:	00090593          	mv	a1,s2
    80003400:	0000a517          	auipc	a0,0xa
    80003404:	9c853503          	ld	a0,-1592(a0) # 8000cdc8 <semaphore_cache>
    80003408:	00001097          	auipc	ra,0x1
    8000340c:	e40080e7          	jalr	-448(ra) # 80004248 <_Z15kmem_cache_freeP12kmem_cache_sPv>
    return 0;
}
    80003410:	00000513          	li	a0,0
    80003414:	01813083          	ld	ra,24(sp)
    80003418:	01013403          	ld	s0,16(sp)
    8000341c:	00813483          	ld	s1,8(sp)
    80003420:	00013903          	ld	s2,0(sp)
    80003424:	02010113          	addi	sp,sp,32
    80003428:	00008067          	ret

000000008000342c <_Z15kern_sem_signalP5sem_s>:

void kern_sem_signal(sem_t id)
{
    if(id->val>0 || id->waiting_thread==0) id->val++;
    8000342c:	00052783          	lw	a5,0(a0)
    80003430:	00f05863          	blez	a5,80003440 <_Z15kern_sem_signalP5sem_s+0x14>
    80003434:	0017879b          	addiw	a5,a5,1
    80003438:	00f52023          	sw	a5,0(a0)
    8000343c:	00008067          	ret
    80003440:	00853703          	ld	a4,8(a0)
    80003444:	fe0708e3          	beqz	a4,80003434 <_Z15kern_sem_signalP5sem_s+0x8>
{
    80003448:	ff010113          	addi	sp,sp,-16
    8000344c:	00113423          	sd	ra,8(sp)
    80003450:	00813023          	sd	s0,0(sp)
    80003454:	01010413          	addi	s0,sp,16
    else {
        thread_t woken = id->waiting_thread;
        id->waiting_thread=woken->sem_next;
    80003458:	05873783          	ld	a5,88(a4)
    8000345c:	00f53423          	sd	a5,8(a0)
        woken->mailbox=0;
    80003460:	04073423          	sd	zero,72(a4)
        woken->status=READY;
    80003464:	00200793          	li	a5,2
    80003468:	04f72823          	sw	a5,80(a4)
        kern_scheduler_put(woken);
    8000346c:	00070513          	mv	a0,a4
    80003470:	00000097          	auipc	ra,0x0
    80003474:	8d4080e7          	jalr	-1836(ra) # 80002d44 <_Z18kern_scheduler_putP8thread_s>
    }
}
    80003478:	00813083          	ld	ra,8(sp)
    8000347c:	00013403          	ld	s0,0(sp)
    80003480:	01010113          	addi	sp,sp,16
    80003484:	00008067          	ret

0000000080003488 <_Z13kern_sem_waitP5sem_s>:

int kern_sem_wait(sem_t id)
{
    if(id->val<=0){
    80003488:	00052783          	lw	a5,0(a0)
    8000348c:	00f05a63          	blez	a5,800034a0 <_Z13kern_sem_waitP5sem_s+0x18>
        w_sstatus(sstatus);
        w_sepc(v_sepc);
        return running->mailbox;
    }
    else {
        id->val--;
    80003490:	fff7879b          	addiw	a5,a5,-1
    80003494:	00f52023          	sw	a5,0(a0)
        return 1;
    80003498:	00100513          	li	a0,1
    }
}
    8000349c:	00008067          	ret
{
    800034a0:	fd010113          	addi	sp,sp,-48
    800034a4:	02113423          	sd	ra,40(sp)
    800034a8:	02813023          	sd	s0,32(sp)
    800034ac:	03010413          	addi	s0,sp,48
        running->status=SUSPENDED;
    800034b0:	00009797          	auipc	a5,0x9
    800034b4:	7807b783          	ld	a5,1920(a5) # 8000cc30 <_GLOBAL_OFFSET_TABLE_+0x20>
    800034b8:	0007b683          	ld	a3,0(a5)
    800034bc:	00300793          	li	a5,3
    800034c0:	04f6a823          	sw	a5,80(a3) # 1050 <_entry-0x7fffefb0>
        if(id->waiting_thread==0) id->waiting_thread=running;
    800034c4:	00853783          	ld	a5,8(a0)
    800034c8:	06078863          	beqz	a5,80003538 <_Z13kern_sem_waitP5sem_s+0xb0>
            while (curr->sem_next!=0) curr=curr->sem_next;
    800034cc:	00078713          	mv	a4,a5
    800034d0:	0587b783          	ld	a5,88(a5)
    800034d4:	fe079ce3          	bnez	a5,800034cc <_Z13kern_sem_waitP5sem_s+0x44>
            curr->sem_next=running;
    800034d8:	04d73c23          	sd	a3,88(a4)
        running->sem_next=0;
    800034dc:	0406bc23          	sd	zero,88(a3)
    __asm__ volatile ("csrr %[sstatus], sstatus" : [sstatus] "=r"(sstatus));
    800034e0:	100027f3          	csrr	a5,sstatus
    800034e4:	fef43423          	sd	a5,-24(s0)
    return sstatus;
    800034e8:	fe843783          	ld	a5,-24(s0)
        uint64 volatile sstatus = r_sstatus();
    800034ec:	fcf43823          	sd	a5,-48(s0)
    __asm__ volatile ("csrr %[sepc], sepc" : [sepc] "=r"(sepc));
    800034f0:	141027f3          	csrr	a5,sepc
    800034f4:	fef43023          	sd	a5,-32(s0)
    return sepc;
    800034f8:	fe043783          	ld	a5,-32(s0)
        uint64 volatile v_sepc = r_sepc();
    800034fc:	fcf43c23          	sd	a5,-40(s0)
        kern_thread_yield();
    80003500:	00000097          	auipc	ra,0x0
    80003504:	94c080e7          	jalr	-1716(ra) # 80002e4c <_Z17kern_thread_yieldv>
        w_sstatus(sstatus);
    80003508:	fd043783          	ld	a5,-48(s0)
    __asm__ volatile ("csrw sstatus, %[sstatus]" : : [sstatus] "r"(sstatus));
    8000350c:	10079073          	csrw	sstatus,a5
        w_sepc(v_sepc);
    80003510:	fd843783          	ld	a5,-40(s0)
    __asm__ volatile ("csrw sepc, %[sepc]" : : [sepc] "r"(sepc));
    80003514:	14179073          	csrw	sepc,a5
        return running->mailbox;
    80003518:	00009797          	auipc	a5,0x9
    8000351c:	7187b783          	ld	a5,1816(a5) # 8000cc30 <_GLOBAL_OFFSET_TABLE_+0x20>
    80003520:	0007b783          	ld	a5,0(a5)
    80003524:	0487a503          	lw	a0,72(a5)
}
    80003528:	02813083          	ld	ra,40(sp)
    8000352c:	02013403          	ld	s0,32(sp)
    80003530:	03010113          	addi	sp,sp,48
    80003534:	00008067          	ret
        if(id->waiting_thread==0) id->waiting_thread=running;
    80003538:	00d53423          	sd	a3,8(a0)
    8000353c:	fa1ff06f          	j	800034dc <_Z13kern_sem_waitP5sem_s+0x54>

0000000080003540 <_Z19kern_interrupt_initv>:
#ifdef __cplusplus
}
#endif

void kern_interrupt_init()
{
    80003540:	ff010113          	addi	sp,sp,-16
    80003544:	00813423          	sd	s0,8(sp)
    80003548:	01010413          	addi	s0,sp,16
    SYSTEM_TIME=0;
    8000354c:	0000b797          	auipc	a5,0xb
    80003550:	8807b223          	sd	zero,-1916(a5) # 8000ddd0 <SYSTEM_TIME>
    w_stvec((uint64) &supervisorTrap);
    80003554:	00009797          	auipc	a5,0x9
    80003558:	6e47b783          	ld	a5,1764(a5) # 8000cc38 <_GLOBAL_OFFSET_TABLE_+0x28>
    __asm__ volatile ("csrw stvec, %[stvec]" : : [stvec] "r"(stvec));
    8000355c:	10579073          	csrw	stvec,a5
    __asm__ volatile ("csrs sstatus, %[mask]" : : [mask] "r"(mask));
    80003560:	00200793          	li	a5,2
    80003564:	1007a073          	csrs	sstatus,a5
    ms_sstatus(SSTATUS_SIE);
}
    80003568:	00813403          	ld	s0,8(sp)
    8000356c:	01010113          	addi	sp,sp,16
    80003570:	00008067          	ret

0000000080003574 <_Z12kern_syscall13SyscallNumberz>:


void kern_syscall(enum SyscallNumber num, ...)
{
    80003574:	fb010113          	addi	sp,sp,-80
    80003578:	00813423          	sd	s0,8(sp)
    8000357c:	01010413          	addi	s0,sp,16
    80003580:	00b43423          	sd	a1,8(s0)
    80003584:	00c43823          	sd	a2,16(s0)
    80003588:	00d43c23          	sd	a3,24(s0)
    8000358c:	02e43023          	sd	a4,32(s0)
    80003590:	02f43423          	sd	a5,40(s0)
    80003594:	03043823          	sd	a6,48(s0)
    80003598:	03143c23          	sd	a7,56(s0)
    __asm__ volatile ("ecall");
    8000359c:	00000073          	ecall
    return;
}
    800035a0:	00813403          	ld	s0,8(sp)
    800035a4:	05010113          	addi	sp,sp,80
    800035a8:	00008067          	ret

00000000800035ac <handleEcall>:
#ifdef __cplusplus
extern "C" {
#endif


void handleEcall(uint64 a0, uint64 a1, uint64 a2, uint64 a3, uint64 a4) {
    800035ac:	fd010113          	addi	sp,sp,-48
    800035b0:	02113423          	sd	ra,40(sp)
    800035b4:	02813023          	sd	s0,32(sp)
    800035b8:	00913c23          	sd	s1,24(sp)
    800035bc:	01213823          	sd	s2,16(sp)
    800035c0:	03010413          	addi	s0,sp,48
    800035c4:	00060913          	mv	s2,a2
    800035c8:	00068613          	mv	a2,a3
    __asm__ volatile ("csrr %[scause], scause" : [scause] "=r"(scause));
    800035cc:	142027f3          	csrr	a5,scause
    800035d0:	fcf43823          	sd	a5,-48(s0)
    return scause;
    800035d4:	fd043783          	ld	a5,-48(s0)
    __asm__ volatile ("mv %[a2], a2" : [a2] "=r"(a2));
    __asm__ volatile ("mv %[a3], a3" : [a3] "=r"(a3));
    __asm__ volatile ("mv %[a4], a4" : [a4] "=r"(a4));
     */
    uint64 scause = r_scause();
    if (scause == INTR_USER_ECALL || scause == INTR_KERNEL_ECALL) {
    800035d8:	ff878793          	addi	a5,a5,-8
    800035dc:	00100693          	li	a3,1
    800035e0:	00f6fe63          	bgeu	a3,a5,800035fc <handleEcall+0x50>
            }


        }
    }
}
    800035e4:	02813083          	ld	ra,40(sp)
    800035e8:	02013403          	ld	s0,32(sp)
    800035ec:	01813483          	ld	s1,24(sp)
    800035f0:	01013903          	ld	s2,16(sp)
    800035f4:	03010113          	addi	sp,sp,48
    800035f8:	00008067          	ret
    800035fc:	00058493          	mv	s1,a1
    __asm__ volatile ("csrr %[sepc], sepc" : [sepc] "=r"(sepc));
    80003600:	141027f3          	csrr	a5,sepc
    80003604:	fcf43c23          	sd	a5,-40(s0)
    return sepc;
    80003608:	fd843783          	ld	a5,-40(s0)
        uint64 sepc = r_sepc() + 4;
    8000360c:	00478793          	addi	a5,a5,4
        uint64 time = SYSTEM_TIME;
    80003610:	0000a597          	auipc	a1,0xa
    80003614:	7c05b583          	ld	a1,1984(a1) # 8000ddd0 <SYSTEM_TIME>
    __asm__ volatile ("csrw sepc, %[sepc]" : : [sepc] "r"(sepc));
    80003618:	14179073          	csrw	sepc,a5
        switch (syscall_num) {
    8000361c:	04200793          	li	a5,66
    80003620:	fca7e2e3          	bltu	a5,a0,800035e4 <handleEcall+0x38>
    80003624:	00251513          	slli	a0,a0,0x2
    80003628:	00007697          	auipc	a3,0x7
    8000362c:	bbc68693          	addi	a3,a3,-1092 # 8000a1e4 <CONSOLE_STATUS+0x1d4>
    80003630:	00d50533          	add	a0,a0,a3
    80003634:	00052783          	lw	a5,0(a0)
    80003638:	00d787b3          	add	a5,a5,a3
    8000363c:	00078067          	jr	a5
                retval = (uint64) kern_mem_alloc(size);
    80003640:	0004851b          	sext.w	a0,s1
    80003644:	fffff097          	auipc	ra,0xfffff
    80003648:	dc8080e7          	jalr	-568(ra) # 8000240c <_Z14kern_mem_alloci>
    __asm__ volatile ("mv a0, %[value]" :: [value] "r"(value));
    8000364c:	00050513          	mv	a0,a0
}
    80003650:	f95ff06f          	j	800035e4 <handleEcall+0x38>
                retval = (uint64) kern_mem_free((void *) addr);
    80003654:	00048513          	mv	a0,s1
    80003658:	fffff097          	auipc	ra,0xfffff
    8000365c:	e78080e7          	jalr	-392(ra) # 800024d0 <_Z13kern_mem_freePv>
    __asm__ volatile ("mv a0, %[value]" :: [value] "r"(value));
    80003660:	00050513          	mv	a0,a0
}
    80003664:	f81ff06f          	j	800035e4 <handleEcall+0x38>
                retval = (uint64) kern_thread_create((thread_t *) handle,
    80003668:	00070693          	mv	a3,a4
    8000366c:	00090593          	mv	a1,s2
    80003670:	00048513          	mv	a0,s1
    80003674:	00000097          	auipc	ra,0x0
    80003678:	9e4080e7          	jalr	-1564(ra) # 80003058 <_Z18kern_thread_createPP8thread_sPFvPvES2_S2_>
                (*(thread_t *) handle)->endTime = SYSTEM_TIME + DEFAULT_TIME_SLICE;
    8000367c:	0004b703          	ld	a4,0(s1)
    80003680:	0000a797          	auipc	a5,0xa
    80003684:	7507b783          	ld	a5,1872(a5) # 8000ddd0 <SYSTEM_TIME>
    80003688:	00278793          	addi	a5,a5,2
    8000368c:	02f73c23          	sd	a5,56(a4)
    __asm__ volatile ("mv a0, %[value]" :: [value] "r"(value));
    80003690:	00050513          	mv	a0,a0
}
    80003694:	f51ff06f          	j	800035e4 <handleEcall+0x38>
                kern_thread_dispatch();
    80003698:	00000097          	auipc	ra,0x0
    8000369c:	83c080e7          	jalr	-1988(ra) # 80002ed4 <_Z20kern_thread_dispatchv>
                running->endTime = SYSTEM_TIME + running->timeslice;
    800036a0:	00009797          	auipc	a5,0x9
    800036a4:	5907b783          	ld	a5,1424(a5) # 8000cc30 <_GLOBAL_OFFSET_TABLE_+0x20>
    800036a8:	0007b703          	ld	a4,0(a5)
    800036ac:	03073783          	ld	a5,48(a4)
    800036b0:	0000a697          	auipc	a3,0xa
    800036b4:	7206b683          	ld	a3,1824(a3) # 8000ddd0 <SYSTEM_TIME>
    800036b8:	00d787b3          	add	a5,a5,a3
    800036bc:	02f73c23          	sd	a5,56(a4)
                break;
    800036c0:	f25ff06f          	j	800035e4 <handleEcall+0x38>
                kern_thread_join(handle);
    800036c4:	00048513          	mv	a0,s1
    800036c8:	00000097          	auipc	ra,0x0
    800036cc:	a74080e7          	jalr	-1420(ra) # 8000313c <_Z16kern_thread_joinP8thread_s>
                running->endTime = SYSTEM_TIME + running->timeslice;
    800036d0:	00009797          	auipc	a5,0x9
    800036d4:	5607b783          	ld	a5,1376(a5) # 8000cc30 <_GLOBAL_OFFSET_TABLE_+0x20>
    800036d8:	0007b703          	ld	a4,0(a5)
    800036dc:	03073783          	ld	a5,48(a4)
    800036e0:	0000a697          	auipc	a3,0xa
    800036e4:	6f06b683          	ld	a3,1776(a3) # 8000ddd0 <SYSTEM_TIME>
    800036e8:	00d787b3          	add	a5,a5,a3
    800036ec:	02f73c23          	sd	a5,56(a4)
                break;
    800036f0:	ef5ff06f          	j	800035e4 <handleEcall+0x38>
                kern_thread_end_running();
    800036f4:	00000097          	auipc	ra,0x0
    800036f8:	8cc080e7          	jalr	-1844(ra) # 80002fc0 <_Z23kern_thread_end_runningv>
                retval = kern_sem_open(handle, init);
    800036fc:	0009059b          	sext.w	a1,s2
    80003700:	00048513          	mv	a0,s1
    80003704:	00000097          	auipc	ra,0x0
    80003708:	c34080e7          	jalr	-972(ra) # 80003338 <_Z13kern_sem_openPP5sem_sj>
    __asm__ volatile ("mv a0, %[value]" :: [value] "r"(value));
    8000370c:	00050513          	mv	a0,a0
}
    80003710:	ed5ff06f          	j	800035e4 <handleEcall+0x38>
                retval = kern_sem_close(handle);
    80003714:	00048513          	mv	a0,s1
    80003718:	00000097          	auipc	ra,0x0
    8000371c:	c84080e7          	jalr	-892(ra) # 8000339c <_Z14kern_sem_closeP5sem_s>
    __asm__ volatile ("mv a0, %[value]" :: [value] "r"(value));
    80003720:	00050513          	mv	a0,a0
}
    80003724:	ec1ff06f          	j	800035e4 <handleEcall+0x38>
                kern_sem_signal(handle);
    80003728:	00048513          	mv	a0,s1
    8000372c:	00000097          	auipc	ra,0x0
    80003730:	d00080e7          	jalr	-768(ra) # 8000342c <_Z15kern_sem_signalP5sem_s>
    __asm__ volatile ("mv a0, %[value]" :: [value] "r"(value));
    80003734:	00000793          	li	a5,0
    80003738:	00078513          	mv	a0,a5
}
    8000373c:	ea9ff06f          	j	800035e4 <handleEcall+0x38>
                retval = kern_sem_wait(handle);
    80003740:	00048513          	mv	a0,s1
    80003744:	00000097          	auipc	ra,0x0
    80003748:	d44080e7          	jalr	-700(ra) # 80003488 <_Z13kern_sem_waitP5sem_s>
                if (retval == 1) { //nije promenjen kontekst
    8000374c:	00100793          	li	a5,1
    80003750:	02f50663          	beq	a0,a5,8000377c <handleEcall+0x1d0>
                    running->endTime = SYSTEM_TIME + running->timeslice;
    80003754:	00009797          	auipc	a5,0x9
    80003758:	4dc7b783          	ld	a5,1244(a5) # 8000cc30 <_GLOBAL_OFFSET_TABLE_+0x20>
    8000375c:	0007b703          	ld	a4,0(a5)
    80003760:	03073783          	ld	a5,48(a4)
    80003764:	0000a697          	auipc	a3,0xa
    80003768:	66c6b683          	ld	a3,1644(a3) # 8000ddd0 <SYSTEM_TIME>
    8000376c:	00d787b3          	add	a5,a5,a3
    80003770:	02f73c23          	sd	a5,56(a4)
    __asm__ volatile ("mv a0, %[value]" :: [value] "r"(value));
    80003774:	00050513          	mv	a0,a0
}
    80003778:	e6dff06f          	j	800035e4 <handleEcall+0x38>
                    retval = 0;
    8000377c:	00000513          	li	a0,0
    80003780:	ff5ff06f          	j	80003774 <handleEcall+0x1c8>
                kern_thread_sleep(wakeTime);
    80003784:	00958533          	add	a0,a1,s1
    80003788:	00000097          	auipc	ra,0x0
    8000378c:	ac4080e7          	jalr	-1340(ra) # 8000324c <_Z17kern_thread_sleepm>
                running->endTime=time+running->timeslice;
    80003790:	00009797          	auipc	a5,0x9
    80003794:	4a07b783          	ld	a5,1184(a5) # 8000cc30 <_GLOBAL_OFFSET_TABLE_+0x20>
    80003798:	0007b703          	ld	a4,0(a5)
    8000379c:	03073783          	ld	a5,48(a4)
    800037a0:	0000a697          	auipc	a3,0xa
    800037a4:	6306b683          	ld	a3,1584(a3) # 8000ddd0 <SYSTEM_TIME>
    800037a8:	00d787b3          	add	a5,a5,a3
    800037ac:	02f73c23          	sd	a5,56(a4)
                break;
    800037b0:	e35ff06f          	j	800035e4 <handleEcall+0x38>
                    c = kern_console_getchar();
    800037b4:	fffff097          	auipc	ra,0xfffff
    800037b8:	fd8080e7          	jalr	-40(ra) # 8000278c <_Z20kern_console_getcharv>
                    if(c==-1){
    800037bc:	fff00793          	li	a5,-1
    800037c0:	02f51863          	bne	a0,a5,800037f0 <handleEcall+0x244>
                        kern_thread_dispatch();
    800037c4:	fffff097          	auipc	ra,0xfffff
    800037c8:	710080e7          	jalr	1808(ra) # 80002ed4 <_Z20kern_thread_dispatchv>
                        running->endTime = SYSTEM_TIME + running->timeslice;
    800037cc:	00009797          	auipc	a5,0x9
    800037d0:	4647b783          	ld	a5,1124(a5) # 8000cc30 <_GLOBAL_OFFSET_TABLE_+0x20>
    800037d4:	0007b703          	ld	a4,0(a5)
    800037d8:	03073783          	ld	a5,48(a4)
    800037dc:	0000a697          	auipc	a3,0xa
    800037e0:	5f46b683          	ld	a3,1524(a3) # 8000ddd0 <SYSTEM_TIME>
    800037e4:	00d787b3          	add	a5,a5,a3
    800037e8:	02f73c23          	sd	a5,56(a4)
                    c = kern_console_getchar();
    800037ec:	fc9ff06f          	j	800037b4 <handleEcall+0x208>
    __asm__ volatile ("mv a0, %[value]" :: [value] "r"(value));
    800037f0:	00050513          	mv	a0,a0
}
    800037f4:	df1ff06f          	j	800035e4 <handleEcall+0x38>
                char c = a1;
    800037f8:	0ff4f493          	andi	s1,s1,255
                    res=kern_console_putchar(c);
    800037fc:	00048513          	mv	a0,s1
    80003800:	fffff097          	auipc	ra,0xfffff
    80003804:	ff0080e7          	jalr	-16(ra) # 800027f0 <_Z20kern_console_putcharc>
                    if(res==-1){
    80003808:	fff00793          	li	a5,-1
    8000380c:	dcf51ce3          	bne	a0,a5,800035e4 <handleEcall+0x38>
                        kern_thread_dispatch();
    80003810:	fffff097          	auipc	ra,0xfffff
    80003814:	6c4080e7          	jalr	1732(ra) # 80002ed4 <_Z20kern_thread_dispatchv>
                        running->endTime = SYSTEM_TIME + running->timeslice;
    80003818:	00009797          	auipc	a5,0x9
    8000381c:	4187b783          	ld	a5,1048(a5) # 8000cc30 <_GLOBAL_OFFSET_TABLE_+0x20>
    80003820:	0007b703          	ld	a4,0(a5)
    80003824:	03073783          	ld	a5,48(a4)
    80003828:	0000a697          	auipc	a3,0xa
    8000382c:	5a86b683          	ld	a3,1448(a3) # 8000ddd0 <SYSTEM_TIME>
    80003830:	00d787b3          	add	a5,a5,a3
    80003834:	02f73c23          	sd	a5,56(a4)
                    res=kern_console_putchar(c);
    80003838:	fc5ff06f          	j	800037fc <handleEcall+0x250>

000000008000383c <handleInterrupt>:
int counter=0;
#define BUFFER_SIZE 1024
char cbuf[BUFFER_SIZE];

void handleInterrupt()
{
    8000383c:	fd010113          	addi	sp,sp,-48
    80003840:	02113423          	sd	ra,40(sp)
    80003844:	02813023          	sd	s0,32(sp)
    80003848:	00913c23          	sd	s1,24(sp)
    8000384c:	03010413          	addi	s0,sp,48
    __asm__ volatile ("csrr %[scause], scause" : [scause] "=r"(scause));
    80003850:	142027f3          	csrr	a5,scause
    80003854:	fcf43c23          	sd	a5,-40(s0)
    return scause;
    80003858:	fd843703          	ld	a4,-40(s0)
    uint64 scause = r_scause();
    if (scause == INTR_TIMER)
    8000385c:	fff00793          	li	a5,-1
    80003860:	03f79793          	slli	a5,a5,0x3f
    80003864:	00178793          	addi	a5,a5,1
    80003868:	02f70863          	beq	a4,a5,80003898 <handleInterrupt+0x5c>
        if(SYSTEM_TIME>=running->endTime){
            kern_thread_dispatch();
            running->endTime=SYSTEM_TIME+running->timeslice;
        }
    }
    else if (scause == INTR_CONSOLE)
    8000386c:	fff00793          	li	a5,-1
    80003870:	03f79793          	slli	a5,a5,0x3f
    80003874:	00978793          	addi	a5,a5,9
    80003878:	08f70463          	beq	a4,a5,80003900 <handleInterrupt+0xc4>
            kern_uart_handler();
        }
        plic_complete(irq);
        // console_handler();
    }
    else if(scause == INTR_ILLEGAL_INSTRUCTION)
    8000387c:	00200793          	li	a5,2
    80003880:	0af70863          	beq	a4,a5,80003930 <handleInterrupt+0xf4>

    }
    else if(scause==INTR_ILLEGAL_ADDR_WR){

    }
}
    80003884:	02813083          	ld	ra,40(sp)
    80003888:	02013403          	ld	s0,32(sp)
    8000388c:	01813483          	ld	s1,24(sp)
    80003890:	03010113          	addi	sp,sp,48
    80003894:	00008067          	ret
        SYSTEM_TIME++;
    80003898:	0000a497          	auipc	s1,0xa
    8000389c:	53848493          	addi	s1,s1,1336 # 8000ddd0 <SYSTEM_TIME>
    800038a0:	0004b503          	ld	a0,0(s1)
    800038a4:	00150513          	addi	a0,a0,1
    800038a8:	00a4b023          	sd	a0,0(s1)
    __asm__ volatile ("csrc sip, %[mask]" : : [mask] "r"(mask));
    800038ac:	00200793          	li	a5,2
    800038b0:	1447b073          	csrc	sip,a5
        kern_thread_wakeup(SYSTEM_TIME);
    800038b4:	00000097          	auipc	ra,0x0
    800038b8:	914080e7          	jalr	-1772(ra) # 800031c8 <_Z18kern_thread_wakeupm>
        if(SYSTEM_TIME>=running->endTime){
    800038bc:	00009797          	auipc	a5,0x9
    800038c0:	3747b783          	ld	a5,884(a5) # 8000cc30 <_GLOBAL_OFFSET_TABLE_+0x20>
    800038c4:	0007b783          	ld	a5,0(a5)
    800038c8:	0387b703          	ld	a4,56(a5)
    800038cc:	0004b783          	ld	a5,0(s1)
    800038d0:	fae7eae3          	bltu	a5,a4,80003884 <handleInterrupt+0x48>
            kern_thread_dispatch();
    800038d4:	fffff097          	auipc	ra,0xfffff
    800038d8:	600080e7          	jalr	1536(ra) # 80002ed4 <_Z20kern_thread_dispatchv>
            running->endTime=SYSTEM_TIME+running->timeslice;
    800038dc:	00009797          	auipc	a5,0x9
    800038e0:	3547b783          	ld	a5,852(a5) # 8000cc30 <_GLOBAL_OFFSET_TABLE_+0x20>
    800038e4:	0007b703          	ld	a4,0(a5)
    800038e8:	03073783          	ld	a5,48(a4)
    800038ec:	0000a697          	auipc	a3,0xa
    800038f0:	4e46b683          	ld	a3,1252(a3) # 8000ddd0 <SYSTEM_TIME>
    800038f4:	00d787b3          	add	a5,a5,a3
    800038f8:	02f73c23          	sd	a5,56(a4)
    800038fc:	f89ff06f          	j	80003884 <handleInterrupt+0x48>
        int irq = plic_claim();
    80003900:	00005097          	auipc	ra,0x5
    80003904:	804080e7          	jalr	-2044(ra) # 80008104 <plic_claim>
    80003908:	00050493          	mv	s1,a0
        if(irq==CONSOLE_IRQ) {
    8000390c:	00a00793          	li	a5,10
    80003910:	00f50a63          	beq	a0,a5,80003924 <handleInterrupt+0xe8>
        plic_complete(irq);
    80003914:	00048513          	mv	a0,s1
    80003918:	00005097          	auipc	ra,0x5
    8000391c:	824080e7          	jalr	-2012(ra) # 8000813c <plic_complete>
    80003920:	f65ff06f          	j	80003884 <handleInterrupt+0x48>
            kern_uart_handler();
    80003924:	fffff097          	auipc	ra,0xfffff
    80003928:	df8080e7          	jalr	-520(ra) # 8000271c <_Z17kern_uart_handlerv>
    8000392c:	fe9ff06f          	j	80003914 <handleInterrupt+0xd8>
        kern_mem_free((void*)running->stack_space);
    80003930:	00009797          	auipc	a5,0x9
    80003934:	3007b783          	ld	a5,768(a5) # 8000cc30 <_GLOBAL_OFFSET_TABLE_+0x20>
    80003938:	0007b783          	ld	a5,0(a5)
    8000393c:	0407b503          	ld	a0,64(a5)
    80003940:	fffff097          	auipc	ra,0xfffff
    80003944:	b90080e7          	jalr	-1136(ra) # 800024d0 <_Z13kern_mem_freePv>
        kern_thread_end_running();
    80003948:	fffff097          	auipc	ra,0xfffff
    8000394c:	678080e7          	jalr	1656(ra) # 80002fc0 <_Z23kern_thread_end_runningv>
}
    80003950:	f35ff06f          	j	80003884 <handleInterrupt+0x48>

0000000080003954 <_Z11kmem_strcpyPcPKc>:
#define ALLOCATION_CHUNK_SIZE 16

kmem_cache_t *kmem_cache_head;


void kmem_strcpy(char* dst, const char* src) {
    80003954:	ff010113          	addi	sp,sp,-16
    80003958:	00813423          	sd	s0,8(sp)
    8000395c:	01010413          	addi	s0,sp,16
    int i = 0;
    80003960:	00000793          	li	a5,0
    while (src[i] != '\0' && i < 15) {
    80003964:	00078713          	mv	a4,a5
    80003968:	00f586b3          	add	a3,a1,a5
    8000396c:	0006c683          	lbu	a3,0(a3)
    80003970:	00068e63          	beqz	a3,8000398c <_Z11kmem_strcpyPcPKc+0x38>
    80003974:	00e00613          	li	a2,14
    80003978:	00f64a63          	blt	a2,a5,8000398c <_Z11kmem_strcpyPcPKc+0x38>
        dst[i] = src[i];
    8000397c:	00f50733          	add	a4,a0,a5
    80003980:	00d70023          	sb	a3,0(a4)
        i++;
    80003984:	0017879b          	addiw	a5,a5,1
    while (src[i] != '\0' && i < 15) {
    80003988:	fddff06f          	j	80003964 <_Z11kmem_strcpyPcPKc+0x10>
    }
    dst[i] = '\0';
    8000398c:	00e50533          	add	a0,a0,a4
    80003990:	00050023          	sb	zero,0(a0)
}
    80003994:	00813403          	ld	s0,8(sp)
    80003998:	01010113          	addi	sp,sp,16
    8000399c:	00008067          	ret

00000000800039a0 <_Z9kmem_initPvi>:

void kmem_init(void *space, int block_num)
{
    800039a0:	ff010113          	addi	sp,sp,-16
    800039a4:	00113423          	sd	ra,8(sp)
    800039a8:	00813023          	sd	s0,0(sp)
    800039ac:	01010413          	addi	s0,sp,16
    bba_init((char*)space,(char*)space+block_num*BLOCK_SIZE);
    800039b0:	00c5959b          	slliw	a1,a1,0xc
    800039b4:	00b505b3          	add	a1,a0,a1
    800039b8:	ffffe097          	auipc	ra,0xffffe
    800039bc:	d40080e7          	jalr	-704(ra) # 800016f8 <_Z8bba_initPcS_>
    kmem_cache_head=0;
    800039c0:	0000b797          	auipc	a5,0xb
    800039c4:	8207b023          	sd	zero,-2016(a5) # 8000e1e0 <kmem_cache_head>
}
    800039c8:	00813083          	ld	ra,8(sp)
    800039cc:	00013403          	ld	s0,0(sp)
    800039d0:	01010113          	addi	sp,sp,16
    800039d4:	00008067          	ret

00000000800039d8 <_Z14kmem_slab_initP12kmem_cache_s>:
    }
}

//creates a slab, adds it to cache list, initializes up to ALLOCATION_CHUNK_SIZE objs if needed
kmem_slab_t *kmem_slab_init(kmem_cache_t* cache)
{
    800039d8:	fd010113          	addi	sp,sp,-48
    800039dc:	02113423          	sd	ra,40(sp)
    800039e0:	02813023          	sd	s0,32(sp)
    800039e4:	00913c23          	sd	s1,24(sp)
    800039e8:	01213823          	sd	s2,16(sp)
    800039ec:	01313423          	sd	s3,8(sp)
    800039f0:	01413023          	sd	s4,0(sp)
    800039f4:	03010413          	addi	s0,sp,48
    800039f8:	00050913          	mv	s2,a0
    void* memory = bba_allocate(cache->memorySize);
    800039fc:	04852503          	lw	a0,72(a0)
    80003a00:	ffffe097          	auipc	ra,0xffffe
    80003a04:	020080e7          	jalr	32(ra) # 80001a20 <_Z12bba_allocatem>
    80003a08:	00050a13          	mv	s4,a0
    if(memory==0) return 0;
    80003a0c:	10050a63          	beqz	a0,80003b20 <_Z14kmem_slab_initP12kmem_cache_s+0x148>

    int bitmapCharCount = (cache->slotsInSlab+8-1)/8;
    80003a10:	05092503          	lw	a0,80(s2)
    80003a14:	0075079b          	addiw	a5,a0,7
    80003a18:	41f7d51b          	sraiw	a0,a5,0x1f
    80003a1c:	01d5551b          	srliw	a0,a0,0x1d
    80003a20:	00f5053b          	addw	a0,a0,a5
    80003a24:	4035551b          	sraiw	a0,a0,0x3
    80003a28:	0005049b          	sext.w	s1,a0
    int descriptorSize = sizeof(kmem_slab_t) + bitmapCharCount*2;
    80003a2c:	0015151b          	slliw	a0,a0,0x1
    kmem_slab_t *slab = (kmem_slab_t*) bba_allocate(descriptorSize);
    80003a30:	0285051b          	addiw	a0,a0,40
    80003a34:	ffffe097          	auipc	ra,0xffffe
    80003a38:	fec080e7          	jalr	-20(ra) # 80001a20 <_Z12bba_allocatem>
    80003a3c:	00050993          	mv	s3,a0
    if(slab==0){
    80003a40:	02050663          	beqz	a0,80003a6c <_Z14kmem_slab_initP12kmem_cache_s+0x94>
        bba_free_block(memory);
        return 0;
    }

    slab->memory=memory;
    80003a44:	01453423          	sd	s4,8(a0)
    slab->freeSlotsBitmap = (char*)slab + sizeof(kmem_slab_t);
    80003a48:	02850793          	addi	a5,a0,40
    80003a4c:	00f53c23          	sd	a5,24(a0)
    slab->initializedSlotsBitmap = slab->freeSlotsBitmap + bitmapCharCount;
    80003a50:	009787b3          	add	a5,a5,s1
    80003a54:	00f53823          	sd	a5,16(a0)
    slab->usedSlotsCount=0;
    80003a58:	00052023          	sw	zero,0(a0)
    slab->initializedSlotsCount=0;
    80003a5c:	00052223          	sw	zero,4(a0)
    slab->nextSlab=0;
    80003a60:	02053023          	sd	zero,32(a0)


    //marks all slots as free, if ctor is provided initializes objects in slab, but no more than ALLOCATION_CHUNK_SIZE objects
    for (int i = 0; i < cache->slotsInSlab; i++) {
    80003a64:	00000493          	li	s1,0
    80003a68:	04c0006f          	j	80003ab4 <_Z14kmem_slab_initP12kmem_cache_s+0xdc>
        bba_free_block(memory);
    80003a6c:	000a0513          	mv	a0,s4
    80003a70:	ffffe097          	auipc	ra,0xffffe
    80003a74:	278080e7          	jalr	632(ra) # 80001ce8 <_Z14bba_free_blockPKv>
        return 0;
    80003a78:	0ac0006f          	j	80003b24 <_Z14kmem_slab_initP12kmem_cache_s+0x14c>
        if (cache->ctor!=0 && i < ALLOCATION_CHUNK_SIZE) {
            cache->ctor(curr);
            slab->initializedSlotsCount++;
            setBitmapValue(slab->initializedSlotsBitmap, i, SLOT_INITIALIZED);
        }
        setBitmapValue(slab->freeSlotsBitmap, i, SLOT_FREE);
    80003a7c:	0189b703          	ld	a4,24(s3)
    int wordPosition = position/8;
    80003a80:	41f4d79b          	sraiw	a5,s1,0x1f
    80003a84:	01d7d69b          	srliw	a3,a5,0x1d
    80003a88:	009687bb          	addw	a5,a3,s1
    80003a8c:	4037d61b          	sraiw	a2,a5,0x3
    int bitPosition = position%8;
    80003a90:	0077f793          	andi	a5,a5,7
    80003a94:	40d787bb          	subw	a5,a5,a3
        bitmapStart[wordPosition] = bitmapStart[wordPosition] | (1<<bitPosition);
    80003a98:	00c70733          	add	a4,a4,a2
    80003a9c:	00070683          	lb	a3,0(a4)
    80003aa0:	00100613          	li	a2,1
    80003aa4:	00f617bb          	sllw	a5,a2,a5
    80003aa8:	00f6e7b3          	or	a5,a3,a5
    80003aac:	00f70023          	sb	a5,0(a4)
    for (int i = 0; i < cache->slotsInSlab; i++) {
    80003ab0:	0014849b          	addiw	s1,s1,1
    80003ab4:	05092783          	lw	a5,80(s2)
    80003ab8:	06f4d663          	bge	s1,a5,80003b24 <_Z14kmem_slab_initP12kmem_cache_s+0x14c>
        char *curr = (char*)memory + i * cache->slotSize;
    80003abc:	02093783          	ld	a5,32(s2)
    80003ac0:	02f487b3          	mul	a5,s1,a5
    80003ac4:	00fa0533          	add	a0,s4,a5
        if (cache->ctor!=0 && i < ALLOCATION_CHUNK_SIZE) {
    80003ac8:	02893783          	ld	a5,40(s2)
    80003acc:	fa0788e3          	beqz	a5,80003a7c <_Z14kmem_slab_initP12kmem_cache_s+0xa4>
    80003ad0:	00f00713          	li	a4,15
    80003ad4:	fa9744e3          	blt	a4,s1,80003a7c <_Z14kmem_slab_initP12kmem_cache_s+0xa4>
            cache->ctor(curr);
    80003ad8:	000780e7          	jalr	a5
            slab->initializedSlotsCount++;
    80003adc:	0049a783          	lw	a5,4(s3)
    80003ae0:	0017879b          	addiw	a5,a5,1
    80003ae4:	00f9a223          	sw	a5,4(s3)
            setBitmapValue(slab->initializedSlotsBitmap, i, SLOT_INITIALIZED);
    80003ae8:	0109b703          	ld	a4,16(s3)
    int wordPosition = position/8;
    80003aec:	41f4d79b          	sraiw	a5,s1,0x1f
    80003af0:	01d7d69b          	srliw	a3,a5,0x1d
    80003af4:	009687bb          	addw	a5,a3,s1
    80003af8:	4037d61b          	sraiw	a2,a5,0x3
    int bitPosition = position%8;
    80003afc:	0077f793          	andi	a5,a5,7
    80003b00:	40d787bb          	subw	a5,a5,a3
        bitmapStart[wordPosition] = bitmapStart[wordPosition] | (1<<bitPosition);
    80003b04:	00c70733          	add	a4,a4,a2
    80003b08:	00070683          	lb	a3,0(a4)
    80003b0c:	00100613          	li	a2,1
    80003b10:	00f617bb          	sllw	a5,a2,a5
    80003b14:	00f6e7b3          	or	a5,a3,a5
    80003b18:	00f70023          	sb	a5,0(a4)
    80003b1c:	f61ff06f          	j	80003a7c <_Z14kmem_slab_initP12kmem_cache_s+0xa4>
    if(memory==0) return 0;
    80003b20:	00050993          	mv	s3,a0
    }

    return slab;
}
    80003b24:	00098513          	mv	a0,s3
    80003b28:	02813083          	ld	ra,40(sp)
    80003b2c:	02013403          	ld	s0,32(sp)
    80003b30:	01813483          	ld	s1,24(sp)
    80003b34:	01013903          	ld	s2,16(sp)
    80003b38:	00813983          	ld	s3,8(sp)
    80003b3c:	00013a03          	ld	s4,0(sp)
    80003b40:	03010113          	addi	sp,sp,48
    80003b44:	00008067          	ret

0000000080003b48 <_Z17kmem_cache_createPKcmPFvPvES3_>:

//creates cache with one empty slab
kmem_cache_t *kmem_cache_create(const char *name, unsigned long size,void (*ctor)(void *),void (*dtor)(void *))
{
    80003b48:	fc010113          	addi	sp,sp,-64
    80003b4c:	02113c23          	sd	ra,56(sp)
    80003b50:	02813823          	sd	s0,48(sp)
    80003b54:	02913423          	sd	s1,40(sp)
    80003b58:	03213023          	sd	s2,32(sp)
    80003b5c:	01313c23          	sd	s3,24(sp)
    80003b60:	01413823          	sd	s4,16(sp)
    80003b64:	01513423          	sd	s5,8(sp)
    80003b68:	04010413          	addi	s0,sp,64
    80003b6c:	00050a93          	mv	s5,a0
    80003b70:	00058913          	mv	s2,a1
    80003b74:	00060a13          	mv	s4,a2
    80003b78:	00068993          	mv	s3,a3
    kmem_cache_t* cache = (kmem_cache_t*) bba_allocate(sizeof(kmem_cache_t));
    80003b7c:	05800513          	li	a0,88
    80003b80:	ffffe097          	auipc	ra,0xffffe
    80003b84:	ea0080e7          	jalr	-352(ra) # 80001a20 <_Z12bba_allocatem>
    80003b88:	00050493          	mv	s1,a0
    if(cache==0) return 0;
    80003b8c:	06050c63          	beqz	a0,80003c04 <_Z17kmem_cache_createPKcmPFvPvES3_+0xbc>

    if(size<SMALL_SIZE) cache->memorySize=SMALL_SLAB;
    80003b90:	03f00793          	li	a5,63
    80003b94:	0927ec63          	bltu	a5,s2,80003c2c <_Z17kmem_cache_createPKcmPFvPvES3_+0xe4>
    80003b98:	000017b7          	lui	a5,0x1
    80003b9c:	04f52423          	sw	a5,72(a0)
    else if(size<LARGE_SIZE) cache->memorySize=MEDIUM_SLAB;
    else cache->memorySize=LARGE_SLAB;

    cache->error=0;
    80003ba0:	0404a623          	sw	zero,76(s1)
    cache->slotsInSlab = cache->memorySize/size;
    80003ba4:	0484a783          	lw	a5,72(s1)
    80003ba8:	0327d7b3          	divu	a5,a5,s2
    80003bac:	04f4a823          	sw	a5,80(s1)
    cache->slotSize=size;
    80003bb0:	0324b023          	sd	s2,32(s1)
    cache->dtor=dtor;
    80003bb4:	0334b823          	sd	s3,48(s1)
    cache->ctor=ctor;
    80003bb8:	0344b423          	sd	s4,40(s1)
    cache->emptySlabsHead=0;
    80003bbc:	0004b023          	sd	zero,0(s1)
    cache->usedSlabsHead=0;
    80003bc0:	0004b423          	sd	zero,8(s1)
    cache->fullSlabsHead=0;
    80003bc4:	0004b823          	sd	zero,16(s1)
    kmem_strcpy(cache->name,name);
    80003bc8:	000a8593          	mv	a1,s5
    80003bcc:	03848513          	addi	a0,s1,56
    80003bd0:	00000097          	auipc	ra,0x0
    80003bd4:	d84080e7          	jalr	-636(ra) # 80003954 <_Z11kmem_strcpyPcPKc>

    kmem_slab_t * slab = kmem_slab_init(cache);
    80003bd8:	00048513          	mv	a0,s1
    80003bdc:	00000097          	auipc	ra,0x0
    80003be0:	dfc080e7          	jalr	-516(ra) # 800039d8 <_Z14kmem_slab_initP12kmem_cache_s>
    80003be4:	00050913          	mv	s2,a0
    if(slab==0){
    80003be8:	06050263          	beqz	a0,80003c4c <_Z17kmem_cache_createPKcmPFvPvES3_+0x104>
        bba_free_block(cache);
        return 0;
    }
    cache->emptySlabsHead=slab;
    80003bec:	00a4b023          	sd	a0,0(s1)

    cache->nextCache=kmem_cache_head;
    80003bf0:	0000a797          	auipc	a5,0xa
    80003bf4:	5f078793          	addi	a5,a5,1520 # 8000e1e0 <kmem_cache_head>
    80003bf8:	0007b703          	ld	a4,0(a5)
    80003bfc:	00e4bc23          	sd	a4,24(s1)
    kmem_cache_head=cache;
    80003c00:	0097b023          	sd	s1,0(a5)
    return cache;
}
    80003c04:	00048513          	mv	a0,s1
    80003c08:	03813083          	ld	ra,56(sp)
    80003c0c:	03013403          	ld	s0,48(sp)
    80003c10:	02813483          	ld	s1,40(sp)
    80003c14:	02013903          	ld	s2,32(sp)
    80003c18:	01813983          	ld	s3,24(sp)
    80003c1c:	01013a03          	ld	s4,16(sp)
    80003c20:	00813a83          	ld	s5,8(sp)
    80003c24:	04010113          	addi	sp,sp,64
    80003c28:	00008067          	ret
    else if(size<LARGE_SIZE) cache->memorySize=MEDIUM_SLAB;
    80003c2c:	0ff00793          	li	a5,255
    80003c30:	0127e863          	bltu	a5,s2,80003c40 <_Z17kmem_cache_createPKcmPFvPvES3_+0xf8>
    80003c34:	000027b7          	lui	a5,0x2
    80003c38:	04f52423          	sw	a5,72(a0)
    80003c3c:	f65ff06f          	j	80003ba0 <_Z17kmem_cache_createPKcmPFvPvES3_+0x58>
    else cache->memorySize=LARGE_SLAB;
    80003c40:	000047b7          	lui	a5,0x4
    80003c44:	04f52423          	sw	a5,72(a0)
    80003c48:	f59ff06f          	j	80003ba0 <_Z17kmem_cache_createPKcmPFvPvES3_+0x58>
        bba_free_block(cache);
    80003c4c:	00048513          	mv	a0,s1
    80003c50:	ffffe097          	auipc	ra,0xffffe
    80003c54:	098080e7          	jalr	152(ra) # 80001ce8 <_Z14bba_free_blockPKv>
        return 0;
    80003c58:	00090493          	mv	s1,s2
    80003c5c:	fa9ff06f          	j	80003c04 <_Z17kmem_cache_createPKcmPFvPvES3_+0xbc>

0000000080003c60 <_Z24kmem_slab_destoy_objectsP11kmem_slab_sP12kmem_cache_s>:

void kmem_slab_destoy_objects(kmem_slab_t* slab, kmem_cache_t* cache)
{
    80003c60:	fd010113          	addi	sp,sp,-48
    80003c64:	02113423          	sd	ra,40(sp)
    80003c68:	02813023          	sd	s0,32(sp)
    80003c6c:	00913c23          	sd	s1,24(sp)
    80003c70:	01213823          	sd	s2,16(sp)
    80003c74:	01313423          	sd	s3,8(sp)
    80003c78:	03010413          	addi	s0,sp,48
    80003c7c:	00050913          	mv	s2,a0
    80003c80:	00058993          	mv	s3,a1
    for(int i=0;i < (cache->slotsInSlab) && (slab->initializedSlotsCount>0); i++){
    80003c84:	00000493          	li	s1,0
    80003c88:	0080006f          	j	80003c90 <_Z24kmem_slab_destoy_objectsP11kmem_slab_sP12kmem_cache_s+0x30>
    80003c8c:	0014849b          	addiw	s1,s1,1
    80003c90:	0509a783          	lw	a5,80(s3)
    80003c94:	06f4d063          	bge	s1,a5,80003cf4 <_Z24kmem_slab_destoy_objectsP11kmem_slab_sP12kmem_cache_s+0x94>
    80003c98:	00492783          	lw	a5,4(s2)
    80003c9c:	04f05c63          	blez	a5,80003cf4 <_Z24kmem_slab_destoy_objectsP11kmem_slab_sP12kmem_cache_s+0x94>
       if(getBitmapValue(slab->initializedSlotsBitmap,i)==SLOT_INITIALIZED){
    80003ca0:	01093703          	ld	a4,16(s2)
    int wordPosition = position/8;
    80003ca4:	41f4d79b          	sraiw	a5,s1,0x1f
    80003ca8:	01d7d79b          	srliw	a5,a5,0x1d
    80003cac:	009787bb          	addw	a5,a5,s1
    80003cb0:	4037d79b          	sraiw	a5,a5,0x3
    return (bitmapStart[wordPosition]>>position)&1;
    80003cb4:	00f707b3          	add	a5,a4,a5
    80003cb8:	0007c783          	lbu	a5,0(a5) # 4000 <_entry-0x7fffc000>
    80003cbc:	4097d7bb          	sraw	a5,a5,s1
    80003cc0:	0017f793          	andi	a5,a5,1
       if(getBitmapValue(slab->initializedSlotsBitmap,i)==SLOT_INITIALIZED){
    80003cc4:	fc0784e3          	beqz	a5,80003c8c <_Z24kmem_slab_destoy_objectsP11kmem_slab_sP12kmem_cache_s+0x2c>
           cache->dtor((char*)(slab->memory)+i*cache->slotSize);
    80003cc8:	0309b703          	ld	a4,48(s3)
    80003ccc:	00893503          	ld	a0,8(s2)
    80003cd0:	0209b783          	ld	a5,32(s3)
    80003cd4:	02f487b3          	mul	a5,s1,a5
    80003cd8:	00f50533          	add	a0,a0,a5
    80003cdc:	000700e7          	jalr	a4
           slab->initializedSlotsCount--;
    80003ce0:	00492783          	lw	a5,4(s2)
    80003ce4:	fff7879b          	addiw	a5,a5,-1
    80003ce8:	0007871b          	sext.w	a4,a5
    80003cec:	00f92223          	sw	a5,4(s2)
           if(slab->initializedSlotsCount==0) return;
    80003cf0:	f8071ee3          	bnez	a4,80003c8c <_Z24kmem_slab_destoy_objectsP11kmem_slab_sP12kmem_cache_s+0x2c>
       }
    }
}
    80003cf4:	02813083          	ld	ra,40(sp)
    80003cf8:	02013403          	ld	s0,32(sp)
    80003cfc:	01813483          	ld	s1,24(sp)
    80003d00:	01013903          	ld	s2,16(sp)
    80003d04:	00813983          	ld	s3,8(sp)
    80003d08:	03010113          	addi	sp,sp,48
    80003d0c:	00008067          	ret

0000000080003d10 <_Z17kmem_cache_shrinkP12kmem_cache_s>:


int kmem_cache_shrink(kmem_cache_t *cachep)
{
    80003d10:	fd010113          	addi	sp,sp,-48
    80003d14:	02113423          	sd	ra,40(sp)
    80003d18:	02813023          	sd	s0,32(sp)
    80003d1c:	00913c23          	sd	s1,24(sp)
    80003d20:	01213823          	sd	s2,16(sp)
    80003d24:	01313423          	sd	s3,8(sp)
    80003d28:	03010413          	addi	s0,sp,48
    80003d2c:	00050913          	mv	s2,a0
    kmem_slab_t *curr = cachep->emptySlabsHead;
    80003d30:	00053483          	ld	s1,0(a0)
    kmem_slab_t *prev = 0;
    80003d34:	0300006f          	j	80003d64 <_Z17kmem_cache_shrinkP12kmem_cache_s+0x54>
    while (curr!=0){
        prev=curr;
        curr=curr->nextSlab;

        if(cachep->ctor!=0){
            kmem_slab_destoy_objects(prev,cachep);
    80003d38:	00090593          	mv	a1,s2
    80003d3c:	00048513          	mv	a0,s1
    80003d40:	00000097          	auipc	ra,0x0
    80003d44:	f20080e7          	jalr	-224(ra) # 80003c60 <_Z24kmem_slab_destoy_objectsP11kmem_slab_sP12kmem_cache_s>
        }

        bba_free_block(prev->memory);
    80003d48:	0084b503          	ld	a0,8(s1)
    80003d4c:	ffffe097          	auipc	ra,0xffffe
    80003d50:	f9c080e7          	jalr	-100(ra) # 80001ce8 <_Z14bba_free_blockPKv>
        bba_free_block(prev);
    80003d54:	00048513          	mv	a0,s1
    80003d58:	ffffe097          	auipc	ra,0xffffe
    80003d5c:	f90080e7          	jalr	-112(ra) # 80001ce8 <_Z14bba_free_blockPKv>
        curr=curr->nextSlab;
    80003d60:	00098493          	mv	s1,s3
    while (curr!=0){
    80003d64:	00048a63          	beqz	s1,80003d78 <_Z17kmem_cache_shrinkP12kmem_cache_s+0x68>
        curr=curr->nextSlab;
    80003d68:	0204b983          	ld	s3,32(s1)
        if(cachep->ctor!=0){
    80003d6c:	02893783          	ld	a5,40(s2)
    80003d70:	fc0794e3          	bnez	a5,80003d38 <_Z17kmem_cache_shrinkP12kmem_cache_s+0x28>
    80003d74:	fd5ff06f          	j	80003d48 <_Z17kmem_cache_shrinkP12kmem_cache_s+0x38>
    }

    cachep->emptySlabsHead=0;
    80003d78:	00093023          	sd	zero,0(s2)
    return 0;
}
    80003d7c:	00000513          	li	a0,0
    80003d80:	02813083          	ld	ra,40(sp)
    80003d84:	02013403          	ld	s0,32(sp)
    80003d88:	01813483          	ld	s1,24(sp)
    80003d8c:	01013903          	ld	s2,16(sp)
    80003d90:	00813983          	ld	s3,8(sp)
    80003d94:	03010113          	addi	sp,sp,48
    80003d98:	00008067          	ret

0000000080003d9c <_Z27kmem_slab_construct_objectsP11kmem_slab_sP12kmem_cache_s>:

//initialize up to ALLOCATION_CHUNK_SIZE objects in a given slab
void kmem_slab_construct_objects(kmem_slab_t *slab, kmem_cache_t *cache)
{
    80003d9c:	fc010113          	addi	sp,sp,-64
    80003da0:	02113c23          	sd	ra,56(sp)
    80003da4:	02813823          	sd	s0,48(sp)
    80003da8:	02913423          	sd	s1,40(sp)
    80003dac:	03213023          	sd	s2,32(sp)
    80003db0:	01313c23          	sd	s3,24(sp)
    80003db4:	01413823          	sd	s4,16(sp)
    80003db8:	01513423          	sd	s5,8(sp)
    80003dbc:	04010413          	addi	s0,sp,64
    80003dc0:	00050993          	mv	s3,a0
    80003dc4:	00058a13          	mv	s4,a1
    int count=0;
    for(int i=0;i<cache->slotsInSlab;i++){
    80003dc8:	00000913          	li	s2,0
    int count=0;
    80003dcc:	00000a93          	li	s5,0
    80003dd0:	0080006f          	j	80003dd8 <_Z27kmem_slab_construct_objectsP11kmem_slab_sP12kmem_cache_s+0x3c>
    for(int i=0;i<cache->slotsInSlab;i++){
    80003dd4:	0019091b          	addiw	s2,s2,1
    80003dd8:	050a2783          	lw	a5,80(s4)
    80003ddc:	0af95863          	bge	s2,a5,80003e8c <_Z27kmem_slab_construct_objectsP11kmem_slab_sP12kmem_cache_s+0xf0>
        if(getBitmapValue(slab->freeSlotsBitmap,i)==SLOT_FREE &&
    80003de0:	0189b783          	ld	a5,24(s3)
    int wordPosition = position/8;
    80003de4:	41f9549b          	sraiw	s1,s2,0x1f
    80003de8:	01d4d49b          	srliw	s1,s1,0x1d
    80003dec:	012484bb          	addw	s1,s1,s2
    80003df0:	4034d49b          	sraiw	s1,s1,0x3
    return (bitmapStart[wordPosition]>>position)&1;
    80003df4:	009787b3          	add	a5,a5,s1
    80003df8:	0007c783          	lbu	a5,0(a5)
    80003dfc:	4127d7bb          	sraw	a5,a5,s2
    80003e00:	0017f793          	andi	a5,a5,1
        if(getBitmapValue(slab->freeSlotsBitmap,i)==SLOT_FREE &&
    80003e04:	fc0788e3          	beqz	a5,80003dd4 <_Z27kmem_slab_construct_objectsP11kmem_slab_sP12kmem_cache_s+0x38>
           getBitmapValue(slab->initializedSlotsBitmap,i)!=SLOT_INITIALIZED)
    80003e08:	0109b783          	ld	a5,16(s3)
    return (bitmapStart[wordPosition]>>position)&1;
    80003e0c:	009787b3          	add	a5,a5,s1
    80003e10:	0007c783          	lbu	a5,0(a5)
    80003e14:	4127d7bb          	sraw	a5,a5,s2
    80003e18:	0017f793          	andi	a5,a5,1
        if(getBitmapValue(slab->freeSlotsBitmap,i)==SLOT_FREE &&
    80003e1c:	fa079ce3          	bnez	a5,80003dd4 <_Z27kmem_slab_construct_objectsP11kmem_slab_sP12kmem_cache_s+0x38>
        {
            cache->ctor((char*)(slab->memory)+i*cache->slotSize);
    80003e20:	028a3703          	ld	a4,40(s4)
    80003e24:	0089b503          	ld	a0,8(s3)
    80003e28:	020a3783          	ld	a5,32(s4)
    80003e2c:	02f907b3          	mul	a5,s2,a5
    80003e30:	00f50533          	add	a0,a0,a5
    80003e34:	000700e7          	jalr	a4
            slab->initializedSlotsCount++;
    80003e38:	0049a783          	lw	a5,4(s3)
    80003e3c:	0017879b          	addiw	a5,a5,1
    80003e40:	00f9a223          	sw	a5,4(s3)
            setBitmapValue(slab->initializedSlotsBitmap,i,SLOT_INITIALIZED);
    80003e44:	0109b703          	ld	a4,16(s3)
    int bitPosition = position%8;
    80003e48:	41f9579b          	sraiw	a5,s2,0x1f
    80003e4c:	01d7d69b          	srliw	a3,a5,0x1d
    80003e50:	012687bb          	addw	a5,a3,s2
    80003e54:	0077f793          	andi	a5,a5,7
    80003e58:	40d787bb          	subw	a5,a5,a3
        bitmapStart[wordPosition] = bitmapStart[wordPosition] | (1<<bitPosition);
    80003e5c:	009704b3          	add	s1,a4,s1
    80003e60:	00048703          	lb	a4,0(s1)
    80003e64:	00100693          	li	a3,1
    80003e68:	00f697bb          	sllw	a5,a3,a5
    80003e6c:	00f767b3          	or	a5,a4,a5
    80003e70:	00f48023          	sb	a5,0(s1)
            count++;
    80003e74:	001a8a9b          	addiw	s5,s5,1
            if(count==ALLOCATION_CHUNK_SIZE || slab->initializedSlotsCount==cache->slotsInSlab) return;
    80003e78:	01000793          	li	a5,16
    80003e7c:	00fa8863          	beq	s5,a5,80003e8c <_Z27kmem_slab_construct_objectsP11kmem_slab_sP12kmem_cache_s+0xf0>
    80003e80:	0049a703          	lw	a4,4(s3)
    80003e84:	050a2783          	lw	a5,80(s4)
    80003e88:	f4f716e3          	bne	a4,a5,80003dd4 <_Z27kmem_slab_construct_objectsP11kmem_slab_sP12kmem_cache_s+0x38>
        }
    }
}
    80003e8c:	03813083          	ld	ra,56(sp)
    80003e90:	03013403          	ld	s0,48(sp)
    80003e94:	02813483          	ld	s1,40(sp)
    80003e98:	02013903          	ld	s2,32(sp)
    80003e9c:	01813983          	ld	s3,24(sp)
    80003ea0:	01013a03          	ld	s4,16(sp)
    80003ea4:	00813a83          	ld	s5,8(sp)
    80003ea8:	04010113          	addi	sp,sp,64
    80003eac:	00008067          	ret

0000000080003eb0 <_Z25kmem_slab_get_free_objectP11kmem_slab_sP12kmem_cache_s>:



void* kmem_slab_get_free_object(kmem_slab_t *slab, kmem_cache_t *cache)
{
    80003eb0:	ff010113          	addi	sp,sp,-16
    80003eb4:	00813423          	sd	s0,8(sp)
    80003eb8:	01010413          	addi	s0,sp,16
    int charCnt = (cache->slotsInSlab+8-1)/8;
    80003ebc:	0505a783          	lw	a5,80(a1)
    80003ec0:	0077871b          	addiw	a4,a5,7
    80003ec4:	41f7579b          	sraiw	a5,a4,0x1f
    80003ec8:	01d7d79b          	srliw	a5,a5,0x1d
    80003ecc:	00e787bb          	addw	a5,a5,a4
    80003ed0:	4037d79b          	sraiw	a5,a5,0x3
    for(int i=0;i<charCnt;i++){
    80003ed4:	00000693          	li	a3,0
    80003ed8:	0af6d263          	bge	a3,a5,80003f7c <_Z25kmem_slab_get_free_objectP11kmem_slab_sP12kmem_cache_s+0xcc>
        char c = slab->freeSlotsBitmap[i];
    80003edc:	01853803          	ld	a6,24(a0)
    80003ee0:	00d80733          	add	a4,a6,a3
    80003ee4:	00074603          	lbu	a2,0(a4)
        if(c==0) continue; //a quick way to check 8 slots at once
    80003ee8:	02060263          	beqz	a2,80003f0c <_Z25kmem_slab_get_free_objectP11kmem_slab_sP12kmem_cache_s+0x5c>
        int k = 0;
    80003eec:	00000793          	li	a5,0
        while(k<8){
    80003ef0:	00700713          	li	a4,7
    80003ef4:	02f74063          	blt	a4,a5,80003f14 <_Z25kmem_slab_get_free_objectP11kmem_slab_sP12kmem_cache_s+0x64>
            if( ((c>>k)&1) == SLOT_FREE) break;
    80003ef8:	40f6573b          	sraw	a4,a2,a5
    80003efc:	00177713          	andi	a4,a4,1
    80003f00:	00071a63          	bnez	a4,80003f14 <_Z25kmem_slab_get_free_objectP11kmem_slab_sP12kmem_cache_s+0x64>
            k++;
    80003f04:	0017879b          	addiw	a5,a5,1
        while(k<8){
    80003f08:	fe9ff06f          	j	80003ef0 <_Z25kmem_slab_get_free_objectP11kmem_slab_sP12kmem_cache_s+0x40>
    for(int i=0;i<charCnt;i++){
    80003f0c:	0016869b          	addiw	a3,a3,1
    80003f10:	fc9ff06f          	j	80003ed8 <_Z25kmem_slab_get_free_objectP11kmem_slab_sP12kmem_cache_s+0x28>
        }

        slab->usedSlotsCount++;
    80003f14:	00052703          	lw	a4,0(a0)
    80003f18:	0017071b          	addiw	a4,a4,1
    80003f1c:	00e52023          	sw	a4,0(a0)
        setBitmapValue(slab->freeSlotsBitmap,i*8+k,SLOT_TAKEN);
    80003f20:	0036969b          	slliw	a3,a3,0x3
    80003f24:	00f687bb          	addw	a5,a3,a5
    80003f28:	0007869b          	sext.w	a3,a5
    int wordPosition = position/8;
    80003f2c:	41f7d71b          	sraiw	a4,a5,0x1f
    80003f30:	01d7571b          	srliw	a4,a4,0x1d
    80003f34:	00f707bb          	addw	a5,a4,a5
    80003f38:	4037d61b          	sraiw	a2,a5,0x3
    int bitPosition = position%8;
    80003f3c:	0077f793          	andi	a5,a5,7
    80003f40:	40e787bb          	subw	a5,a5,a4
        bitmapStart[wordPosition] = bitmapStart[wordPosition] & (~(1<<bitPosition));
    80003f44:	00c80833          	add	a6,a6,a2
    80003f48:	00080603          	lb	a2,0(a6)
    80003f4c:	00100713          	li	a4,1
    80003f50:	00f717bb          	sllw	a5,a4,a5
    80003f54:	fff7c793          	not	a5,a5
    80003f58:	00f677b3          	and	a5,a2,a5
    80003f5c:	00f80023          	sb	a5,0(a6)
        return ((char*)slab->memory+(i*8+k)*cache->slotSize);
    80003f60:	00853503          	ld	a0,8(a0)
    80003f64:	0205b783          	ld	a5,32(a1)
    80003f68:	02f687b3          	mul	a5,a3,a5
    80003f6c:	00f50533          	add	a0,a0,a5
    }
    return 0;
}
    80003f70:	00813403          	ld	s0,8(sp)
    80003f74:	01010113          	addi	sp,sp,16
    80003f78:	00008067          	ret
    return 0;
    80003f7c:	00000513          	li	a0,0
    80003f80:	ff1ff06f          	j	80003f70 <_Z25kmem_slab_get_free_objectP11kmem_slab_sP12kmem_cache_s+0xc0>

0000000080003f84 <_Z37kmem_slab_get_initialized_free_objectP11kmem_slab_sP12kmem_cache_s>:

void* kmem_slab_get_initialized_free_object(kmem_slab_t *slab, kmem_cache_t *cache)
{
    80003f84:	ff010113          	addi	sp,sp,-16
    80003f88:	00813423          	sd	s0,8(sp)
    80003f8c:	01010413          	addi	s0,sp,16
    int charCnt = (cache->slotsInSlab+8-1)/8;
    80003f90:	0505a783          	lw	a5,80(a1)
    80003f94:	0077871b          	addiw	a4,a5,7
    80003f98:	41f7579b          	sraiw	a5,a4,0x1f
    80003f9c:	01d7d79b          	srliw	a5,a5,0x1d
    80003fa0:	00e787bb          	addw	a5,a5,a4
    80003fa4:	4037d79b          	sraiw	a5,a5,0x3
    for(int i=0;i<charCnt;i++){
    80003fa8:	00000693          	li	a3,0
    80003fac:	0af6da63          	bge	a3,a5,80004060 <_Z37kmem_slab_get_initialized_free_objectP11kmem_slab_sP12kmem_cache_s+0xdc>
        char c = (char)(slab->initializedSlotsBitmap[i]&slab->freeSlotsBitmap[i]);
    80003fb0:	01053703          	ld	a4,16(a0)
    80003fb4:	00d70733          	add	a4,a4,a3
    80003fb8:	00074603          	lbu	a2,0(a4)
    80003fbc:	01853803          	ld	a6,24(a0)
    80003fc0:	00d80733          	add	a4,a6,a3
    80003fc4:	00074703          	lbu	a4,0(a4)
    80003fc8:	00e67633          	and	a2,a2,a4
        if(c==0) continue; //a quick way to check 8 slots at once
    80003fcc:	02060263          	beqz	a2,80003ff0 <_Z37kmem_slab_get_initialized_free_objectP11kmem_slab_sP12kmem_cache_s+0x6c>
        int k = 0;
    80003fd0:	00000793          	li	a5,0
        while(k<8){
    80003fd4:	00700713          	li	a4,7
    80003fd8:	02f74063          	blt	a4,a5,80003ff8 <_Z37kmem_slab_get_initialized_free_objectP11kmem_slab_sP12kmem_cache_s+0x74>
            if((c>>k)&SLOT_INITIALIZED) break;
    80003fdc:	40f6573b          	sraw	a4,a2,a5
    80003fe0:	00177713          	andi	a4,a4,1
    80003fe4:	00071a63          	bnez	a4,80003ff8 <_Z37kmem_slab_get_initialized_free_objectP11kmem_slab_sP12kmem_cache_s+0x74>
            k++;
    80003fe8:	0017879b          	addiw	a5,a5,1
        while(k<8){
    80003fec:	fe9ff06f          	j	80003fd4 <_Z37kmem_slab_get_initialized_free_objectP11kmem_slab_sP12kmem_cache_s+0x50>
    for(int i=0;i<charCnt;i++){
    80003ff0:	0016869b          	addiw	a3,a3,1
    80003ff4:	fb9ff06f          	j	80003fac <_Z37kmem_slab_get_initialized_free_objectP11kmem_slab_sP12kmem_cache_s+0x28>
        }

        slab->usedSlotsCount++;
    80003ff8:	00052703          	lw	a4,0(a0)
    80003ffc:	0017071b          	addiw	a4,a4,1
    80004000:	00e52023          	sw	a4,0(a0)
        setBitmapValue(slab->freeSlotsBitmap,i*8+k,SLOT_TAKEN);
    80004004:	0036969b          	slliw	a3,a3,0x3
    80004008:	00f687bb          	addw	a5,a3,a5
    8000400c:	0007869b          	sext.w	a3,a5
    int wordPosition = position/8;
    80004010:	41f7d71b          	sraiw	a4,a5,0x1f
    80004014:	01d7571b          	srliw	a4,a4,0x1d
    80004018:	00f707bb          	addw	a5,a4,a5
    8000401c:	4037d61b          	sraiw	a2,a5,0x3
    int bitPosition = position%8;
    80004020:	0077f793          	andi	a5,a5,7
    80004024:	40e787bb          	subw	a5,a5,a4
        bitmapStart[wordPosition] = bitmapStart[wordPosition] & (~(1<<bitPosition));
    80004028:	00c80833          	add	a6,a6,a2
    8000402c:	00080603          	lb	a2,0(a6)
    80004030:	00100713          	li	a4,1
    80004034:	00f717bb          	sllw	a5,a4,a5
    80004038:	fff7c793          	not	a5,a5
    8000403c:	00f677b3          	and	a5,a2,a5
    80004040:	00f80023          	sb	a5,0(a6)
        return ((char*)slab->memory+(i*8+k)*cache->slotSize);
    80004044:	00853503          	ld	a0,8(a0)
    80004048:	0205b783          	ld	a5,32(a1)
    8000404c:	02f687b3          	mul	a5,a3,a5
    80004050:	00f50533          	add	a0,a0,a5
    }
    return 0;
}
    80004054:	00813403          	ld	s0,8(sp)
    80004058:	01010113          	addi	sp,sp,16
    8000405c:	00008067          	ret
    return 0;
    80004060:	00000513          	li	a0,0
    80004064:	ff1ff06f          	j	80004054 <_Z37kmem_slab_get_initialized_free_objectP11kmem_slab_sP12kmem_cache_s+0xd0>

0000000080004068 <_Z31kmem_cache_alloc_no_constructorP12kmem_cache_s>:


void *kmem_cache_alloc_no_constructor(kmem_cache_t* cachep)
{
    80004068:	fe010113          	addi	sp,sp,-32
    8000406c:	00113c23          	sd	ra,24(sp)
    80004070:	00813823          	sd	s0,16(sp)
    80004074:	00913423          	sd	s1,8(sp)
    80004078:	02010413          	addi	s0,sp,32
    8000407c:	00050493          	mv	s1,a0
    if(cachep->usedSlabsHead==0){
    80004080:	00853503          	ld	a0,8(a0)
    80004084:	04051863          	bnez	a0,800040d4 <_Z31kmem_cache_alloc_no_constructorP12kmem_cache_s+0x6c>
        if(cachep->emptySlabsHead==0){
    80004088:	0004b783          	ld	a5,0(s1)
    8000408c:	02078a63          	beqz	a5,800040c0 <_Z31kmem_cache_alloc_no_constructorP12kmem_cache_s+0x58>
            cachep->usedSlabsHead = kmem_slab_init(cachep);
        }
        else {
            cachep->usedSlabsHead=cachep->emptySlabsHead;
    80004090:	00f4b423          	sd	a5,8(s1)
            cachep->emptySlabsHead=cachep->emptySlabsHead->nextSlab;
    80004094:	0207b783          	ld	a5,32(a5)
    80004098:	00f4b023          	sd	a5,0(s1)
        }
        return kmem_slab_get_free_object(cachep->usedSlabsHead,cachep);
    8000409c:	00048593          	mv	a1,s1
    800040a0:	0084b503          	ld	a0,8(s1)
    800040a4:	00000097          	auipc	ra,0x0
    800040a8:	e0c080e7          	jalr	-500(ra) # 80003eb0 <_Z25kmem_slab_get_free_objectP11kmem_slab_sP12kmem_cache_s>
            head->nextSlab=cachep->fullSlabsHead;
            cachep->fullSlabsHead=head;
        }
        return result;
    }
}
    800040ac:	01813083          	ld	ra,24(sp)
    800040b0:	01013403          	ld	s0,16(sp)
    800040b4:	00813483          	ld	s1,8(sp)
    800040b8:	02010113          	addi	sp,sp,32
    800040bc:	00008067          	ret
            cachep->usedSlabsHead = kmem_slab_init(cachep);
    800040c0:	00048513          	mv	a0,s1
    800040c4:	00000097          	auipc	ra,0x0
    800040c8:	914080e7          	jalr	-1772(ra) # 800039d8 <_Z14kmem_slab_initP12kmem_cache_s>
    800040cc:	00a4b423          	sd	a0,8(s1)
    800040d0:	fcdff06f          	j	8000409c <_Z31kmem_cache_alloc_no_constructorP12kmem_cache_s+0x34>
        void* result = kmem_slab_get_free_object(cachep->usedSlabsHead,cachep);
    800040d4:	00048593          	mv	a1,s1
    800040d8:	00000097          	auipc	ra,0x0
    800040dc:	dd8080e7          	jalr	-552(ra) # 80003eb0 <_Z25kmem_slab_get_free_objectP11kmem_slab_sP12kmem_cache_s>
        kmem_slab_t* head = cachep->usedSlabsHead;
    800040e0:	0084b783          	ld	a5,8(s1)
        if(head->usedSlotsCount==cachep->slotsInSlab){
    800040e4:	0007a683          	lw	a3,0(a5)
    800040e8:	0504a703          	lw	a4,80(s1)
    800040ec:	fce690e3          	bne	a3,a4,800040ac <_Z31kmem_cache_alloc_no_constructorP12kmem_cache_s+0x44>
            cachep->usedSlabsHead=head->nextSlab;
    800040f0:	0207b703          	ld	a4,32(a5)
    800040f4:	00e4b423          	sd	a4,8(s1)
            head->nextSlab=cachep->fullSlabsHead;
    800040f8:	0104b703          	ld	a4,16(s1)
    800040fc:	02e7b023          	sd	a4,32(a5)
            cachep->fullSlabsHead=head;
    80004100:	00f4b823          	sd	a5,16(s1)
        return result;
    80004104:	fa9ff06f          	j	800040ac <_Z31kmem_cache_alloc_no_constructorP12kmem_cache_s+0x44>

0000000080004108 <_Z28kmem_cache_alloc_constructorP12kmem_cache_s>:


void *kmem_cache_alloc_constructor(kmem_cache_t *cachep)
{
    80004108:	fd010113          	addi	sp,sp,-48
    8000410c:	02113423          	sd	ra,40(sp)
    80004110:	02813023          	sd	s0,32(sp)
    80004114:	00913c23          	sd	s1,24(sp)
    80004118:	01213823          	sd	s2,16(sp)
    8000411c:	01313423          	sd	s3,8(sp)
    80004120:	03010413          	addi	s0,sp,48
    80004124:	00050913          	mv	s2,a0
    if(cachep->usedSlabsHead==0){
    80004128:	00853983          	ld	s3,8(a0)
    8000412c:	02098063          	beqz	s3,8000414c <_Z28kmem_cache_alloc_constructorP12kmem_cache_s+0x44>
            cachep->emptySlabsHead=cachep->emptySlabsHead->nextSlab;
        }
        return kmem_slab_get_initialized_free_object(cachep->usedSlabsHead,cachep);
    }
    else{
        kmem_slab_t* target = cachep->usedSlabsHead;
    80004130:	00098493          	mv	s1,s3
        while (target!=0){
    80004134:	06048463          	beqz	s1,8000419c <_Z28kmem_cache_alloc_constructorP12kmem_cache_s+0x94>
            if(target->initializedSlotsCount>target->usedSlotsCount) break;
    80004138:	0044a703          	lw	a4,4(s1)
    8000413c:	0004a783          	lw	a5,0(s1)
    80004140:	04e7ce63          	blt	a5,a4,8000419c <_Z28kmem_cache_alloc_constructorP12kmem_cache_s+0x94>
            target=target->nextSlab;
    80004144:	0204b483          	ld	s1,32(s1)
        while (target!=0){
    80004148:	fedff06f          	j	80004134 <_Z28kmem_cache_alloc_constructorP12kmem_cache_s+0x2c>
        if(cachep->emptySlabsHead==0){
    8000414c:	00053783          	ld	a5,0(a0)
    80004150:	02078e63          	beqz	a5,8000418c <_Z28kmem_cache_alloc_constructorP12kmem_cache_s+0x84>
            cachep->usedSlabsHead=cachep->emptySlabsHead;
    80004154:	00f53423          	sd	a5,8(a0)
            cachep->emptySlabsHead=cachep->emptySlabsHead->nextSlab;
    80004158:	0207b783          	ld	a5,32(a5)
    8000415c:	00f53023          	sd	a5,0(a0)
        return kmem_slab_get_initialized_free_object(cachep->usedSlabsHead,cachep);
    80004160:	00090593          	mv	a1,s2
    80004164:	00893503          	ld	a0,8(s2)
    80004168:	00000097          	auipc	ra,0x0
    8000416c:	e1c080e7          	jalr	-484(ra) # 80003f84 <_Z37kmem_slab_get_initialized_free_objectP11kmem_slab_sP12kmem_cache_s>
            target->nextSlab=cachep->fullSlabsHead;
            cachep->fullSlabsHead=target;
        }
        return result;
    }
}
    80004170:	02813083          	ld	ra,40(sp)
    80004174:	02013403          	ld	s0,32(sp)
    80004178:	01813483          	ld	s1,24(sp)
    8000417c:	01013903          	ld	s2,16(sp)
    80004180:	00813983          	ld	s3,8(sp)
    80004184:	03010113          	addi	sp,sp,48
    80004188:	00008067          	ret
            cachep->usedSlabsHead = kmem_slab_init(cachep);
    8000418c:	00000097          	auipc	ra,0x0
    80004190:	84c080e7          	jalr	-1972(ra) # 800039d8 <_Z14kmem_slab_initP12kmem_cache_s>
    80004194:	00a93423          	sd	a0,8(s2)
    80004198:	fc9ff06f          	j	80004160 <_Z28kmem_cache_alloc_constructorP12kmem_cache_s+0x58>
        if(target==0){
    8000419c:	04048663          	beqz	s1,800041e8 <_Z28kmem_cache_alloc_constructorP12kmem_cache_s+0xe0>
        void* result = kmem_slab_get_initialized_free_object(target,cachep);
    800041a0:	00090593          	mv	a1,s2
    800041a4:	00048513          	mv	a0,s1
    800041a8:	00000097          	auipc	ra,0x0
    800041ac:	ddc080e7          	jalr	-548(ra) # 80003f84 <_Z37kmem_slab_get_initialized_free_objectP11kmem_slab_sP12kmem_cache_s>
        if(target->usedSlotsCount==cachep->slotsInSlab){
    800041b0:	0004a703          	lw	a4,0(s1)
    800041b4:	05092783          	lw	a5,80(s2)
    800041b8:	faf71ce3          	bne	a4,a5,80004170 <_Z28kmem_cache_alloc_constructorP12kmem_cache_s+0x68>
            if(target==cachep->usedSlabsHead){
    800041bc:	00893783          	ld	a5,8(s2)
    800041c0:	04978063          	beq	a5,s1,80004200 <_Z28kmem_cache_alloc_constructorP12kmem_cache_s+0xf8>
                while (prev->nextSlab!=target) prev=prev->nextSlab;
    800041c4:	00078713          	mv	a4,a5
    800041c8:	0207b783          	ld	a5,32(a5)
    800041cc:	fe979ce3          	bne	a5,s1,800041c4 <_Z28kmem_cache_alloc_constructorP12kmem_cache_s+0xbc>
                prev->nextSlab=target->nextSlab;
    800041d0:	0204b783          	ld	a5,32(s1)
    800041d4:	02f73023          	sd	a5,32(a4)
            target->nextSlab=cachep->fullSlabsHead;
    800041d8:	01093783          	ld	a5,16(s2)
    800041dc:	02f4b023          	sd	a5,32(s1)
            cachep->fullSlabsHead=target;
    800041e0:	00993823          	sd	s1,16(s2)
        return result;
    800041e4:	f8dff06f          	j	80004170 <_Z28kmem_cache_alloc_constructorP12kmem_cache_s+0x68>
            kmem_slab_construct_objects(target,cachep);
    800041e8:	00090593          	mv	a1,s2
    800041ec:	00098513          	mv	a0,s3
    800041f0:	00000097          	auipc	ra,0x0
    800041f4:	bac080e7          	jalr	-1108(ra) # 80003d9c <_Z27kmem_slab_construct_objectsP11kmem_slab_sP12kmem_cache_s>
            target=cachep->usedSlabsHead;
    800041f8:	00098493          	mv	s1,s3
    800041fc:	fa5ff06f          	j	800041a0 <_Z28kmem_cache_alloc_constructorP12kmem_cache_s+0x98>
                cachep->usedSlabsHead=target->nextSlab;
    80004200:	0204b783          	ld	a5,32(s1)
    80004204:	00f93423          	sd	a5,8(s2)
    80004208:	fd1ff06f          	j	800041d8 <_Z28kmem_cache_alloc_constructorP12kmem_cache_s+0xd0>

000000008000420c <_Z16kmem_cache_allocP12kmem_cache_s>:

void *kmem_cache_alloc(kmem_cache_t* cachep){
    8000420c:	ff010113          	addi	sp,sp,-16
    80004210:	00113423          	sd	ra,8(sp)
    80004214:	00813023          	sd	s0,0(sp)
    80004218:	01010413          	addi	s0,sp,16
    if(cachep->ctor!=0) return kmem_cache_alloc_constructor(cachep);
    8000421c:	02853783          	ld	a5,40(a0)
    80004220:	00078e63          	beqz	a5,8000423c <_Z16kmem_cache_allocP12kmem_cache_s+0x30>
    80004224:	00000097          	auipc	ra,0x0
    80004228:	ee4080e7          	jalr	-284(ra) # 80004108 <_Z28kmem_cache_alloc_constructorP12kmem_cache_s>
    else return kmem_cache_alloc_no_constructor(cachep);
}
    8000422c:	00813083          	ld	ra,8(sp)
    80004230:	00013403          	ld	s0,0(sp)
    80004234:	01010113          	addi	sp,sp,16
    80004238:	00008067          	ret
    else return kmem_cache_alloc_no_constructor(cachep);
    8000423c:	00000097          	auipc	ra,0x0
    80004240:	e2c080e7          	jalr	-468(ra) # 80004068 <_Z31kmem_cache_alloc_no_constructorP12kmem_cache_s>
    80004244:	fe9ff06f          	j	8000422c <_Z16kmem_cache_allocP12kmem_cache_s+0x20>

0000000080004248 <_Z15kmem_cache_freeP12kmem_cache_sPv>:

// Deallocate one object from cache
void kmem_cache_free(kmem_cache_t *cachep, void *objp)
{
    80004248:	ff010113          	addi	sp,sp,-16
    8000424c:	00813423          	sd	s0,8(sp)
    80004250:	01010413          	addi	s0,sp,16
    //look for the object amongst nonfull slabs
    kmem_slab_t* curr = cachep->usedSlabsHead;
    80004254:	00853783          	ld	a5,8(a0)
    kmem_slab_t* prev = 0;
    80004258:	00000613          	li	a2,0
    8000425c:	0180006f          	j	80004274 <_Z15kmem_cache_freeP12kmem_cache_sPv+0x2c>
            int positionInSlab = ((char*)objp - (char*)curr->memory)/cachep->slotSize;
            setBitmapValue(curr->freeSlotsBitmap,positionInSlab,SLOT_FREE);
            curr->usedSlotsCount--;
            if(curr->usedSlotsCount==0){
                if(prev==0){
                    cachep->usedSlabsHead=curr->nextSlab;
    80004260:	0207b703          	ld	a4,32(a5)
    80004264:	00e53423          	sd	a4,8(a0)
    80004268:	0840006f          	j	800042ec <_Z15kmem_cache_freeP12kmem_cache_sPv+0xa4>
                curr->nextSlab=cachep->emptySlabsHead;
                cachep->emptySlabsHead=curr;
            }
            return;
        }
        prev=curr;
    8000426c:	00078613          	mv	a2,a5
        curr=curr->nextSlab;
    80004270:	0207b783          	ld	a5,32(a5)
    while(curr!=0){
    80004274:	08078463          	beqz	a5,800042fc <_Z15kmem_cache_freeP12kmem_cache_sPv+0xb4>
        if(objp>curr->memory && objp<((char*)(curr->memory)+cachep->memorySize)){
    80004278:	0087b703          	ld	a4,8(a5)
    8000427c:	feb778e3          	bgeu	a4,a1,8000426c <_Z15kmem_cache_freeP12kmem_cache_sPv+0x24>
    80004280:	04852683          	lw	a3,72(a0)
    80004284:	00d706b3          	add	a3,a4,a3
    80004288:	fed5f2e3          	bgeu	a1,a3,8000426c <_Z15kmem_cache_freeP12kmem_cache_sPv+0x24>
            int positionInSlab = ((char*)objp - (char*)curr->memory)/cachep->slotSize;
    8000428c:	40e58733          	sub	a4,a1,a4
    80004290:	02053583          	ld	a1,32(a0)
    80004294:	02b75733          	divu	a4,a4,a1
            setBitmapValue(curr->freeSlotsBitmap,positionInSlab,SLOT_FREE);
    80004298:	0187b683          	ld	a3,24(a5)
    int wordPosition = position/8;
    8000429c:	41f7559b          	sraiw	a1,a4,0x1f
    800042a0:	01d5d59b          	srliw	a1,a1,0x1d
    800042a4:	00e5873b          	addw	a4,a1,a4
    800042a8:	4037581b          	sraiw	a6,a4,0x3
    int bitPosition = position%8;
    800042ac:	00777713          	andi	a4,a4,7
    800042b0:	40b7073b          	subw	a4,a4,a1
        bitmapStart[wordPosition] = bitmapStart[wordPosition] | (1<<bitPosition);
    800042b4:	010686b3          	add	a3,a3,a6
    800042b8:	00068583          	lb	a1,0(a3)
    800042bc:	00100813          	li	a6,1
    800042c0:	00e8173b          	sllw	a4,a6,a4
    800042c4:	00e5e733          	or	a4,a1,a4
    800042c8:	00e68023          	sb	a4,0(a3)
            curr->usedSlotsCount--;
    800042cc:	0007a703          	lw	a4,0(a5)
    800042d0:	fff7071b          	addiw	a4,a4,-1
    800042d4:	0007069b          	sext.w	a3,a4
    800042d8:	00e7a023          	sw	a4,0(a5)
            if(curr->usedSlotsCount==0){
    800042dc:	0a069c63          	bnez	a3,80004394 <_Z15kmem_cache_freeP12kmem_cache_sPv+0x14c>
                if(prev==0){
    800042e0:	f80600e3          	beqz	a2,80004260 <_Z15kmem_cache_freeP12kmem_cache_sPv+0x18>
                    prev->nextSlab=curr->nextSlab;
    800042e4:	0207b703          	ld	a4,32(a5)
    800042e8:	02e63023          	sd	a4,32(a2)
                curr->nextSlab=cachep->emptySlabsHead;
    800042ec:	00053703          	ld	a4,0(a0)
    800042f0:	02e7b023          	sd	a4,32(a5)
                cachep->emptySlabsHead=curr;
    800042f4:	00f53023          	sd	a5,0(a0)
            return;
    800042f8:	09c0006f          	j	80004394 <_Z15kmem_cache_freeP12kmem_cache_sPv+0x14c>
    }

    //amongst full slabs
    curr=cachep->fullSlabsHead;
    800042fc:	01053703          	ld	a4,16(a0)
    prev=0;
    80004300:	0180006f          	j	80004318 <_Z15kmem_cache_freeP12kmem_cache_sPv+0xd0>
        if(objp>curr->memory && objp<((char*)(curr->memory)+cachep->memorySize)){
            int positionInSlab = ((char*)objp - (char*)curr->memory)/cachep->slotSize;
            setBitmapValue(curr->freeSlotsBitmap,positionInSlab,SLOT_FREE);
            curr->usedSlotsCount--;
            if(prev==0){
                cachep->fullSlabsHead=curr->nextSlab;
    80004304:	02073783          	ld	a5,32(a4)
    80004308:	00f53823          	sd	a5,16(a0)
    8000430c:	07c0006f          	j	80004388 <_Z15kmem_cache_freeP12kmem_cache_sPv+0x140>
            }
            curr->nextSlab=cachep->usedSlabsHead;
            cachep->usedSlabsHead=curr;
            return;
        }
        prev=curr;
    80004310:	00070793          	mv	a5,a4
        curr=curr->nextSlab;
    80004314:	02073703          	ld	a4,32(a4)
    while(curr!=0){
    80004318:	06070e63          	beqz	a4,80004394 <_Z15kmem_cache_freeP12kmem_cache_sPv+0x14c>
        if(objp>curr->memory && objp<((char*)(curr->memory)+cachep->memorySize)){
    8000431c:	00873683          	ld	a3,8(a4)
    80004320:	feb6f8e3          	bgeu	a3,a1,80004310 <_Z15kmem_cache_freeP12kmem_cache_sPv+0xc8>
    80004324:	04852603          	lw	a2,72(a0)
    80004328:	00c68633          	add	a2,a3,a2
    8000432c:	fec5f2e3          	bgeu	a1,a2,80004310 <_Z15kmem_cache_freeP12kmem_cache_sPv+0xc8>
            int positionInSlab = ((char*)objp - (char*)curr->memory)/cachep->slotSize;
    80004330:	40d586b3          	sub	a3,a1,a3
    80004334:	02053583          	ld	a1,32(a0)
    80004338:	02b6d6b3          	divu	a3,a3,a1
            setBitmapValue(curr->freeSlotsBitmap,positionInSlab,SLOT_FREE);
    8000433c:	01873603          	ld	a2,24(a4)
    int wordPosition = position/8;
    80004340:	41f6d59b          	sraiw	a1,a3,0x1f
    80004344:	01d5d59b          	srliw	a1,a1,0x1d
    80004348:	00d586bb          	addw	a3,a1,a3
    8000434c:	4036d81b          	sraiw	a6,a3,0x3
    int bitPosition = position%8;
    80004350:	0076f693          	andi	a3,a3,7
    80004354:	40b686bb          	subw	a3,a3,a1
        bitmapStart[wordPosition] = bitmapStart[wordPosition] | (1<<bitPosition);
    80004358:	01060633          	add	a2,a2,a6
    8000435c:	00060583          	lb	a1,0(a2)
    80004360:	00100813          	li	a6,1
    80004364:	00d816bb          	sllw	a3,a6,a3
    80004368:	00d5e6b3          	or	a3,a1,a3
    8000436c:	00d60023          	sb	a3,0(a2)
            curr->usedSlotsCount--;
    80004370:	00072683          	lw	a3,0(a4)
    80004374:	fff6869b          	addiw	a3,a3,-1
    80004378:	00d72023          	sw	a3,0(a4)
            if(prev==0){
    8000437c:	f80784e3          	beqz	a5,80004304 <_Z15kmem_cache_freeP12kmem_cache_sPv+0xbc>
                prev->nextSlab=curr->nextSlab;
    80004380:	02073683          	ld	a3,32(a4)
    80004384:	02d7b023          	sd	a3,32(a5)
            curr->nextSlab=cachep->usedSlabsHead;
    80004388:	00853783          	ld	a5,8(a0)
    8000438c:	02f73023          	sd	a5,32(a4)
            cachep->usedSlabsHead=curr;
    80004390:	00e53423          	sd	a4,8(a0)
    }
}
    80004394:	00813403          	ld	s0,8(sp)
    80004398:	01010113          	addi	sp,sp,16
    8000439c:	00008067          	ret

00000000800043a0 <_Z7kmallocm>:

// Alloacate one small memory buffer
void *kmalloc(unsigned long size)
{
    800043a0:	ff010113          	addi	sp,sp,-16
    800043a4:	00113423          	sd	ra,8(sp)
    800043a8:	00813023          	sd	s0,0(sp)
    800043ac:	01010413          	addi	s0,sp,16
    return bba_allocate(size);
    800043b0:	ffffd097          	auipc	ra,0xffffd
    800043b4:	670080e7          	jalr	1648(ra) # 80001a20 <_Z12bba_allocatem>
}
    800043b8:	00813083          	ld	ra,8(sp)
    800043bc:	00013403          	ld	s0,0(sp)
    800043c0:	01010113          	addi	sp,sp,16
    800043c4:	00008067          	ret

00000000800043c8 <_Z5kfreePKv>:

// Deallocate one small memory buffer
void kfree(const void *objp)
{
    800043c8:	ff010113          	addi	sp,sp,-16
    800043cc:	00113423          	sd	ra,8(sp)
    800043d0:	00813023          	sd	s0,0(sp)
    800043d4:	01010413          	addi	s0,sp,16
    bba_free_block(objp);
    800043d8:	ffffe097          	auipc	ra,0xffffe
    800043dc:	910080e7          	jalr	-1776(ra) # 80001ce8 <_Z14bba_free_blockPKv>
}
    800043e0:	00813083          	ld	ra,8(sp)
    800043e4:	00013403          	ld	s0,0(sp)
    800043e8:	01010113          	addi	sp,sp,16
    800043ec:	00008067          	ret

00000000800043f0 <_Z17kmem_destroy_listP12kmem_cache_sP11kmem_slab_s>:

void kmem_destroy_list(kmem_cache_t* cachep,kmem_slab_t* head){
    if(head==0) return;
    800043f0:	08058e63          	beqz	a1,8000448c <_Z17kmem_destroy_listP12kmem_cache_sP11kmem_slab_s+0x9c>
void kmem_destroy_list(kmem_cache_t* cachep,kmem_slab_t* head){
    800043f4:	fd010113          	addi	sp,sp,-48
    800043f8:	02113423          	sd	ra,40(sp)
    800043fc:	02813023          	sd	s0,32(sp)
    80004400:	00913c23          	sd	s1,24(sp)
    80004404:	01213823          	sd	s2,16(sp)
    80004408:	01313423          	sd	s3,8(sp)
    8000440c:	03010413          	addi	s0,sp,48
    80004410:	00050993          	mv	s3,a0
    80004414:	00058493          	mv	s1,a1
    kmem_slab_t *curr = head->nextSlab;
    80004418:	0205b903          	ld	s2,32(a1)
    kmem_slab_t * prev = head;
    8000441c:	0440006f          	j	80004460 <_Z17kmem_destroy_listP12kmem_cache_sP11kmem_slab_s+0x70>
    80004420:	00090793          	mv	a5,s2
    80004424:	0340006f          	j	80004458 <_Z17kmem_destroy_listP12kmem_cache_sP11kmem_slab_s+0x68>
    while (prev!=0){
        if(cachep->dtor!=0) kmem_slab_destoy_objects(prev,cachep);
    80004428:	00098593          	mv	a1,s3
    8000442c:	00048513          	mv	a0,s1
    80004430:	00000097          	auipc	ra,0x0
    80004434:	830080e7          	jalr	-2000(ra) # 80003c60 <_Z24kmem_slab_destoy_objectsP11kmem_slab_sP12kmem_cache_s>
        bba_free_block(prev->memory);
    80004438:	0084b503          	ld	a0,8(s1)
    8000443c:	ffffe097          	auipc	ra,0xffffe
    80004440:	8ac080e7          	jalr	-1876(ra) # 80001ce8 <_Z14bba_free_blockPKv>
        bba_free_block(prev);
    80004444:	00048513          	mv	a0,s1
    80004448:	ffffe097          	auipc	ra,0xffffe
    8000444c:	8a0080e7          	jalr	-1888(ra) # 80001ce8 <_Z14bba_free_blockPKv>
        prev=curr;
        if(curr!=0) curr=curr->nextSlab;
    80004450:	fc0908e3          	beqz	s2,80004420 <_Z17kmem_destroy_listP12kmem_cache_sP11kmem_slab_s+0x30>
    80004454:	02093783          	ld	a5,32(s2)
    80004458:	00090493          	mv	s1,s2
    8000445c:	00078913          	mv	s2,a5
    while (prev!=0){
    80004460:	00048863          	beqz	s1,80004470 <_Z17kmem_destroy_listP12kmem_cache_sP11kmem_slab_s+0x80>
        if(cachep->dtor!=0) kmem_slab_destoy_objects(prev,cachep);
    80004464:	0309b783          	ld	a5,48(s3)
    80004468:	fc0790e3          	bnez	a5,80004428 <_Z17kmem_destroy_listP12kmem_cache_sP11kmem_slab_s+0x38>
    8000446c:	fcdff06f          	j	80004438 <_Z17kmem_destroy_listP12kmem_cache_sP11kmem_slab_s+0x48>
    }
}
    80004470:	02813083          	ld	ra,40(sp)
    80004474:	02013403          	ld	s0,32(sp)
    80004478:	01813483          	ld	s1,24(sp)
    8000447c:	01013903          	ld	s2,16(sp)
    80004480:	00813983          	ld	s3,8(sp)
    80004484:	03010113          	addi	sp,sp,48
    80004488:	00008067          	ret
    8000448c:	00008067          	ret

0000000080004490 <_Z18kmem_cache_destroyP12kmem_cache_s>:

// Deallocate cache
void kmem_cache_destroy(kmem_cache_t *cachep)
{
    80004490:	fe010113          	addi	sp,sp,-32
    80004494:	00113c23          	sd	ra,24(sp)
    80004498:	00813823          	sd	s0,16(sp)
    8000449c:	00913423          	sd	s1,8(sp)
    800044a0:	02010413          	addi	s0,sp,32
    800044a4:	00050493          	mv	s1,a0
    kmem_destroy_list(cachep,cachep->usedSlabsHead);
    800044a8:	00853583          	ld	a1,8(a0)
    800044ac:	00000097          	auipc	ra,0x0
    800044b0:	f44080e7          	jalr	-188(ra) # 800043f0 <_Z17kmem_destroy_listP12kmem_cache_sP11kmem_slab_s>
    kmem_destroy_list(cachep,cachep->emptySlabsHead);
    800044b4:	0004b583          	ld	a1,0(s1)
    800044b8:	00048513          	mv	a0,s1
    800044bc:	00000097          	auipc	ra,0x0
    800044c0:	f34080e7          	jalr	-204(ra) # 800043f0 <_Z17kmem_destroy_listP12kmem_cache_sP11kmem_slab_s>
    kmem_destroy_list(cachep,cachep->fullSlabsHead);
    800044c4:	0104b583          	ld	a1,16(s1)
    800044c8:	00048513          	mv	a0,s1
    800044cc:	00000097          	auipc	ra,0x0
    800044d0:	f24080e7          	jalr	-220(ra) # 800043f0 <_Z17kmem_destroy_listP12kmem_cache_sP11kmem_slab_s>
    bba_free_block(cachep);
    800044d4:	00048513          	mv	a0,s1
    800044d8:	ffffe097          	auipc	ra,0xffffe
    800044dc:	810080e7          	jalr	-2032(ra) # 80001ce8 <_Z14bba_free_blockPKv>
}
    800044e0:	01813083          	ld	ra,24(sp)
    800044e4:	01013403          	ld	s0,16(sp)
    800044e8:	00813483          	ld	s1,8(sp)
    800044ec:	02010113          	addi	sp,sp,32
    800044f0:	00008067          	ret

00000000800044f4 <_Z15kmem_cache_infoP12kmem_cache_s>:
{
    printf("\n Slab at addr %lx, %d used slots, %d initialized slots",  slab->memory, slab->usedSlotsCount, slab->initializedSlotsCount);
}
// Print cache info
void kmem_cache_info(kmem_cache_t *cachep)
{
    800044f4:	fc010113          	addi	sp,sp,-64
    800044f8:	02113c23          	sd	ra,56(sp)
    800044fc:	02813823          	sd	s0,48(sp)
    80004500:	02913423          	sd	s1,40(sp)
    80004504:	03213023          	sd	s2,32(sp)
    80004508:	01313c23          	sd	s3,24(sp)
    8000450c:	01413823          	sd	s4,16(sp)
    80004510:	01513423          	sd	s5,8(sp)
    80004514:	04010413          	addi	s0,sp,64
    80004518:	00050a93          	mv	s5,a0
    int initObjCount=0, usedObjCount=0, slabsCount=0;
    printf("\n Cache '%s' has %d slots of size %d in each slab",cachep->name, cachep->slotsInSlab, cachep->slotSize);
    8000451c:	02053683          	ld	a3,32(a0)
    80004520:	05052603          	lw	a2,80(a0)
    80004524:	03850593          	addi	a1,a0,56
    80004528:	00006517          	auipc	a0,0x6
    8000452c:	dc850513          	addi	a0,a0,-568 # 8000a2f0 <CONSOLE_STATUS+0x2e0>
    80004530:	ffffe097          	auipc	ra,0xffffe
    80004534:	d10080e7          	jalr	-752(ra) # 80002240 <_Z6printfPKcz>
    printf("\n Empty slabs:");
    80004538:	00006517          	auipc	a0,0x6
    8000453c:	df050513          	addi	a0,a0,-528 # 8000a328 <CONSOLE_STATUS+0x318>
    80004540:	ffffe097          	auipc	ra,0xffffe
    80004544:	d00080e7          	jalr	-768(ra) # 80002240 <_Z6printfPKcz>
    kmem_slab_t * curr = cachep->emptySlabsHead;
    80004548:	000ab483          	ld	s1,0(s5)
    int initObjCount=0, usedObjCount=0, slabsCount=0;
    8000454c:	00000a13          	li	s4,0
    80004550:	00000913          	li	s2,0
    80004554:	00000993          	li	s3,0
    while (curr!=0){
    80004558:	02048e63          	beqz	s1,80004594 <_Z15kmem_cache_infoP12kmem_cache_s+0xa0>
    printf("\n Slab at addr %lx, %d used slots, %d initialized slots",  slab->memory, slab->usedSlotsCount, slab->initializedSlotsCount);
    8000455c:	0044a683          	lw	a3,4(s1)
    80004560:	0004a603          	lw	a2,0(s1)
    80004564:	0084b583          	ld	a1,8(s1)
    80004568:	00006517          	auipc	a0,0x6
    8000456c:	dd050513          	addi	a0,a0,-560 # 8000a338 <CONSOLE_STATUS+0x328>
    80004570:	ffffe097          	auipc	ra,0xffffe
    80004574:	cd0080e7          	jalr	-816(ra) # 80002240 <_Z6printfPKcz>
        kmem_slab_info(curr);
        slabsCount++;
    80004578:	001a0a1b          	addiw	s4,s4,1
        initObjCount+=curr->initializedSlotsCount;
    8000457c:	0044a783          	lw	a5,4(s1)
    80004580:	013789bb          	addw	s3,a5,s3
        usedObjCount+=curr->usedSlotsCount;
    80004584:	0004a783          	lw	a5,0(s1)
    80004588:	0127893b          	addw	s2,a5,s2
        curr=curr->nextSlab;
    8000458c:	0204b483          	ld	s1,32(s1)
    while (curr!=0){
    80004590:	fc9ff06f          	j	80004558 <_Z15kmem_cache_infoP12kmem_cache_s+0x64>
    }
    printf("\n Full slabs:");
    80004594:	00006517          	auipc	a0,0x6
    80004598:	ddc50513          	addi	a0,a0,-548 # 8000a370 <CONSOLE_STATUS+0x360>
    8000459c:	ffffe097          	auipc	ra,0xffffe
    800045a0:	ca4080e7          	jalr	-860(ra) # 80002240 <_Z6printfPKcz>
    curr = cachep->fullSlabsHead;
    800045a4:	010ab483          	ld	s1,16(s5)
    while (curr!=0){
    800045a8:	02048e63          	beqz	s1,800045e4 <_Z15kmem_cache_infoP12kmem_cache_s+0xf0>
    printf("\n Slab at addr %lx, %d used slots, %d initialized slots",  slab->memory, slab->usedSlotsCount, slab->initializedSlotsCount);
    800045ac:	0044a683          	lw	a3,4(s1)
    800045b0:	0004a603          	lw	a2,0(s1)
    800045b4:	0084b583          	ld	a1,8(s1)
    800045b8:	00006517          	auipc	a0,0x6
    800045bc:	d8050513          	addi	a0,a0,-640 # 8000a338 <CONSOLE_STATUS+0x328>
    800045c0:	ffffe097          	auipc	ra,0xffffe
    800045c4:	c80080e7          	jalr	-896(ra) # 80002240 <_Z6printfPKcz>
        kmem_slab_info(curr);
        slabsCount++;
    800045c8:	001a0a1b          	addiw	s4,s4,1
        initObjCount+=curr->initializedSlotsCount;
    800045cc:	0044a783          	lw	a5,4(s1)
    800045d0:	013789bb          	addw	s3,a5,s3
        usedObjCount+=curr->usedSlotsCount;
    800045d4:	0004a783          	lw	a5,0(s1)
    800045d8:	0127893b          	addw	s2,a5,s2
        curr=curr->nextSlab;
    800045dc:	0204b483          	ld	s1,32(s1)
    while (curr!=0){
    800045e0:	fc9ff06f          	j	800045a8 <_Z15kmem_cache_infoP12kmem_cache_s+0xb4>
    }
    printf("\n Partially full slabs:");
    800045e4:	00006517          	auipc	a0,0x6
    800045e8:	d9c50513          	addi	a0,a0,-612 # 8000a380 <CONSOLE_STATUS+0x370>
    800045ec:	ffffe097          	auipc	ra,0xffffe
    800045f0:	c54080e7          	jalr	-940(ra) # 80002240 <_Z6printfPKcz>
    curr = cachep->usedSlabsHead;
    800045f4:	008ab483          	ld	s1,8(s5)
    while (curr!=0){
    800045f8:	02048e63          	beqz	s1,80004634 <_Z15kmem_cache_infoP12kmem_cache_s+0x140>
    printf("\n Slab at addr %lx, %d used slots, %d initialized slots",  slab->memory, slab->usedSlotsCount, slab->initializedSlotsCount);
    800045fc:	0044a683          	lw	a3,4(s1)
    80004600:	0004a603          	lw	a2,0(s1)
    80004604:	0084b583          	ld	a1,8(s1)
    80004608:	00006517          	auipc	a0,0x6
    8000460c:	d3050513          	addi	a0,a0,-720 # 8000a338 <CONSOLE_STATUS+0x328>
    80004610:	ffffe097          	auipc	ra,0xffffe
    80004614:	c30080e7          	jalr	-976(ra) # 80002240 <_Z6printfPKcz>
        kmem_slab_info(curr);
        slabsCount++;
    80004618:	001a0a1b          	addiw	s4,s4,1
        initObjCount+=curr->initializedSlotsCount;
    8000461c:	0044a783          	lw	a5,4(s1)
    80004620:	013789bb          	addw	s3,a5,s3
        usedObjCount+=curr->usedSlotsCount;
    80004624:	0004a783          	lw	a5,0(s1)
    80004628:	0127893b          	addw	s2,a5,s2
        curr=curr->nextSlab;
    8000462c:	0204b483          	ld	s1,32(s1)
    while (curr!=0){
    80004630:	fc9ff06f          	j	800045f8 <_Z15kmem_cache_infoP12kmem_cache_s+0x104>
    }
    printf("\n Total slabs: %d, total used slots: %d, total initialized slots: %d", slabsCount, usedObjCount,initObjCount);
    80004634:	00098693          	mv	a3,s3
    80004638:	00090613          	mv	a2,s2
    8000463c:	000a0593          	mv	a1,s4
    80004640:	00006517          	auipc	a0,0x6
    80004644:	d5850513          	addi	a0,a0,-680 # 8000a398 <CONSOLE_STATUS+0x388>
    80004648:	ffffe097          	auipc	ra,0xffffe
    8000464c:	bf8080e7          	jalr	-1032(ra) # 80002240 <_Z6printfPKcz>
    printf("\n-------------------------", usedObjCount,initObjCount);
    80004650:	00098613          	mv	a2,s3
    80004654:	00090593          	mv	a1,s2
    80004658:	00006517          	auipc	a0,0x6
    8000465c:	d8850513          	addi	a0,a0,-632 # 8000a3e0 <CONSOLE_STATUS+0x3d0>
    80004660:	ffffe097          	auipc	ra,0xffffe
    80004664:	be0080e7          	jalr	-1056(ra) # 80002240 <_Z6printfPKcz>
}
    80004668:	03813083          	ld	ra,56(sp)
    8000466c:	03013403          	ld	s0,48(sp)
    80004670:	02813483          	ld	s1,40(sp)
    80004674:	02013903          	ld	s2,32(sp)
    80004678:	01813983          	ld	s3,24(sp)
    8000467c:	01013a03          	ld	s4,16(sp)
    80004680:	00813a83          	ld	s5,8(sp)
    80004684:	04010113          	addi	sp,sp,64
    80004688:	00008067          	ret

000000008000468c <_ZL16producerKeyboardPv>:
    sem_t wait;
};

static volatile int threadEnd = 0;

static void producerKeyboard(void *arg) {
    8000468c:	fe010113          	addi	sp,sp,-32
    80004690:	00113c23          	sd	ra,24(sp)
    80004694:	00813823          	sd	s0,16(sp)
    80004698:	00913423          	sd	s1,8(sp)
    8000469c:	01213023          	sd	s2,0(sp)
    800046a0:	02010413          	addi	s0,sp,32
    800046a4:	00050493          	mv	s1,a0
    struct thread_data *data = (struct thread_data *) arg;

    int key;
    int i = 0;
    800046a8:	00000913          	li	s2,0
    800046ac:	00c0006f          	j	800046b8 <_ZL16producerKeyboardPv+0x2c>
    while ((key = getc()) != 13) {
        data->buffer->put(key);
        i++;

        if (i % (10 * data->id) == 0) {
            thread_dispatch();
    800046b0:	ffffd097          	auipc	ra,0xffffd
    800046b4:	cd8080e7          	jalr	-808(ra) # 80001388 <_Z15thread_dispatchv>
    while ((key = getc()) != 13) {
    800046b8:	ffffd097          	auipc	ra,0xffffd
    800046bc:	ebc080e7          	jalr	-324(ra) # 80001574 <_Z4getcv>
    800046c0:	0005059b          	sext.w	a1,a0
    800046c4:	00d00793          	li	a5,13
    800046c8:	02f58a63          	beq	a1,a5,800046fc <_ZL16producerKeyboardPv+0x70>
        data->buffer->put(key);
    800046cc:	0084b503          	ld	a0,8(s1)
    800046d0:	00003097          	auipc	ra,0x3
    800046d4:	f50080e7          	jalr	-176(ra) # 80007620 <_ZN6Buffer3putEi>
        i++;
    800046d8:	0019071b          	addiw	a4,s2,1
    800046dc:	0007091b          	sext.w	s2,a4
        if (i % (10 * data->id) == 0) {
    800046e0:	0004a683          	lw	a3,0(s1)
    800046e4:	0026979b          	slliw	a5,a3,0x2
    800046e8:	00d787bb          	addw	a5,a5,a3
    800046ec:	0017979b          	slliw	a5,a5,0x1
    800046f0:	02f767bb          	remw	a5,a4,a5
    800046f4:	fc0792e3          	bnez	a5,800046b8 <_ZL16producerKeyboardPv+0x2c>
    800046f8:	fb9ff06f          	j	800046b0 <_ZL16producerKeyboardPv+0x24>
        }
    }

    threadEnd = 1;
    800046fc:	00100793          	li	a5,1
    80004700:	0000a717          	auipc	a4,0xa
    80004704:	aef72423          	sw	a5,-1304(a4) # 8000e1e8 <_ZL9threadEnd>
    data->buffer->put('!');
    80004708:	02100593          	li	a1,33
    8000470c:	0084b503          	ld	a0,8(s1)
    80004710:	00003097          	auipc	ra,0x3
    80004714:	f10080e7          	jalr	-240(ra) # 80007620 <_ZN6Buffer3putEi>

    sem_signal(data->wait);
    80004718:	0104b503          	ld	a0,16(s1)
    8000471c:	ffffd097          	auipc	ra,0xffffd
    80004720:	de4080e7          	jalr	-540(ra) # 80001500 <_Z10sem_signalP5sem_s>
}
    80004724:	01813083          	ld	ra,24(sp)
    80004728:	01013403          	ld	s0,16(sp)
    8000472c:	00813483          	ld	s1,8(sp)
    80004730:	00013903          	ld	s2,0(sp)
    80004734:	02010113          	addi	sp,sp,32
    80004738:	00008067          	ret

000000008000473c <_ZL8producerPv>:

static void producer(void *arg) {
    8000473c:	fe010113          	addi	sp,sp,-32
    80004740:	00113c23          	sd	ra,24(sp)
    80004744:	00813823          	sd	s0,16(sp)
    80004748:	00913423          	sd	s1,8(sp)
    8000474c:	01213023          	sd	s2,0(sp)
    80004750:	02010413          	addi	s0,sp,32
    80004754:	00050493          	mv	s1,a0
    struct thread_data *data = (struct thread_data *) arg;

    int i = 0;
    80004758:	00000913          	li	s2,0
    8000475c:	00c0006f          	j	80004768 <_ZL8producerPv+0x2c>
    while (!threadEnd) {
        data->buffer->put(data->id + '0');
        i++;

        if (i % (10 * data->id) == 0) {
            thread_dispatch();
    80004760:	ffffd097          	auipc	ra,0xffffd
    80004764:	c28080e7          	jalr	-984(ra) # 80001388 <_Z15thread_dispatchv>
    while (!threadEnd) {
    80004768:	0000a797          	auipc	a5,0xa
    8000476c:	a807a783          	lw	a5,-1408(a5) # 8000e1e8 <_ZL9threadEnd>
    80004770:	02079e63          	bnez	a5,800047ac <_ZL8producerPv+0x70>
        data->buffer->put(data->id + '0');
    80004774:	0004a583          	lw	a1,0(s1)
    80004778:	0305859b          	addiw	a1,a1,48
    8000477c:	0084b503          	ld	a0,8(s1)
    80004780:	00003097          	auipc	ra,0x3
    80004784:	ea0080e7          	jalr	-352(ra) # 80007620 <_ZN6Buffer3putEi>
        i++;
    80004788:	0019071b          	addiw	a4,s2,1
    8000478c:	0007091b          	sext.w	s2,a4
        if (i % (10 * data->id) == 0) {
    80004790:	0004a683          	lw	a3,0(s1)
    80004794:	0026979b          	slliw	a5,a3,0x2
    80004798:	00d787bb          	addw	a5,a5,a3
    8000479c:	0017979b          	slliw	a5,a5,0x1
    800047a0:	02f767bb          	remw	a5,a4,a5
    800047a4:	fc0792e3          	bnez	a5,80004768 <_ZL8producerPv+0x2c>
    800047a8:	fb9ff06f          	j	80004760 <_ZL8producerPv+0x24>
        }
    }

    sem_signal(data->wait);
    800047ac:	0104b503          	ld	a0,16(s1)
    800047b0:	ffffd097          	auipc	ra,0xffffd
    800047b4:	d50080e7          	jalr	-688(ra) # 80001500 <_Z10sem_signalP5sem_s>
}
    800047b8:	01813083          	ld	ra,24(sp)
    800047bc:	01013403          	ld	s0,16(sp)
    800047c0:	00813483          	ld	s1,8(sp)
    800047c4:	00013903          	ld	s2,0(sp)
    800047c8:	02010113          	addi	sp,sp,32
    800047cc:	00008067          	ret

00000000800047d0 <_ZL8consumerPv>:

static void consumer(void *arg) {
    800047d0:	fd010113          	addi	sp,sp,-48
    800047d4:	02113423          	sd	ra,40(sp)
    800047d8:	02813023          	sd	s0,32(sp)
    800047dc:	00913c23          	sd	s1,24(sp)
    800047e0:	01213823          	sd	s2,16(sp)
    800047e4:	01313423          	sd	s3,8(sp)
    800047e8:	03010413          	addi	s0,sp,48
    800047ec:	00050913          	mv	s2,a0
    struct thread_data *data = (struct thread_data *) arg;

    int i = 0;
    800047f0:	00000993          	li	s3,0
    800047f4:	01c0006f          	j	80004810 <_ZL8consumerPv+0x40>
        i++;

        putc(key);

        if (i % (5 * data->id) == 0) {
            thread_dispatch();
    800047f8:	ffffd097          	auipc	ra,0xffffd
    800047fc:	b90080e7          	jalr	-1136(ra) # 80001388 <_Z15thread_dispatchv>
    80004800:	0500006f          	j	80004850 <_ZL8consumerPv+0x80>
        }

        if (i % 80 == 0) {
            putc('\n');
    80004804:	00a00513          	li	a0,10
    80004808:	ffffd097          	auipc	ra,0xffffd
    8000480c:	da8080e7          	jalr	-600(ra) # 800015b0 <_Z4putcc>
    while (!threadEnd) {
    80004810:	0000a797          	auipc	a5,0xa
    80004814:	9d87a783          	lw	a5,-1576(a5) # 8000e1e8 <_ZL9threadEnd>
    80004818:	06079063          	bnez	a5,80004878 <_ZL8consumerPv+0xa8>
        int key = data->buffer->get();
    8000481c:	00893503          	ld	a0,8(s2)
    80004820:	00003097          	auipc	ra,0x3
    80004824:	e90080e7          	jalr	-368(ra) # 800076b0 <_ZN6Buffer3getEv>
        i++;
    80004828:	0019849b          	addiw	s1,s3,1
    8000482c:	0004899b          	sext.w	s3,s1
        putc(key);
    80004830:	0ff57513          	andi	a0,a0,255
    80004834:	ffffd097          	auipc	ra,0xffffd
    80004838:	d7c080e7          	jalr	-644(ra) # 800015b0 <_Z4putcc>
        if (i % (5 * data->id) == 0) {
    8000483c:	00092703          	lw	a4,0(s2)
    80004840:	0027179b          	slliw	a5,a4,0x2
    80004844:	00e787bb          	addw	a5,a5,a4
    80004848:	02f4e7bb          	remw	a5,s1,a5
    8000484c:	fa0786e3          	beqz	a5,800047f8 <_ZL8consumerPv+0x28>
        if (i % 80 == 0) {
    80004850:	05000793          	li	a5,80
    80004854:	02f4e4bb          	remw	s1,s1,a5
    80004858:	fa049ce3          	bnez	s1,80004810 <_ZL8consumerPv+0x40>
    8000485c:	fa9ff06f          	j	80004804 <_ZL8consumerPv+0x34>
        }
    }

    while (data->buffer->getCnt() > 0) {
        int key = data->buffer->get();
    80004860:	00893503          	ld	a0,8(s2)
    80004864:	00003097          	auipc	ra,0x3
    80004868:	e4c080e7          	jalr	-436(ra) # 800076b0 <_ZN6Buffer3getEv>
        putc(key);
    8000486c:	0ff57513          	andi	a0,a0,255
    80004870:	ffffd097          	auipc	ra,0xffffd
    80004874:	d40080e7          	jalr	-704(ra) # 800015b0 <_Z4putcc>
    while (data->buffer->getCnt() > 0) {
    80004878:	00893503          	ld	a0,8(s2)
    8000487c:	00003097          	auipc	ra,0x3
    80004880:	ec0080e7          	jalr	-320(ra) # 8000773c <_ZN6Buffer6getCntEv>
    80004884:	fca04ee3          	bgtz	a0,80004860 <_ZL8consumerPv+0x90>
    }

    sem_signal(data->wait);
    80004888:	01093503          	ld	a0,16(s2)
    8000488c:	ffffd097          	auipc	ra,0xffffd
    80004890:	c74080e7          	jalr	-908(ra) # 80001500 <_Z10sem_signalP5sem_s>
}
    80004894:	02813083          	ld	ra,40(sp)
    80004898:	02013403          	ld	s0,32(sp)
    8000489c:	01813483          	ld	s1,24(sp)
    800048a0:	01013903          	ld	s2,16(sp)
    800048a4:	00813983          	ld	s3,8(sp)
    800048a8:	03010113          	addi	sp,sp,48
    800048ac:	00008067          	ret

00000000800048b0 <_Z22producerConsumer_C_APIv>:

void producerConsumer_C_API() {
    800048b0:	f9010113          	addi	sp,sp,-112
    800048b4:	06113423          	sd	ra,104(sp)
    800048b8:	06813023          	sd	s0,96(sp)
    800048bc:	04913c23          	sd	s1,88(sp)
    800048c0:	05213823          	sd	s2,80(sp)
    800048c4:	05313423          	sd	s3,72(sp)
    800048c8:	05413023          	sd	s4,64(sp)
    800048cc:	03513c23          	sd	s5,56(sp)
    800048d0:	03613823          	sd	s6,48(sp)
    800048d4:	07010413          	addi	s0,sp,112
        sem_wait(waitForAll);
    }

    sem_close(waitForAll);

    delete buffer;
    800048d8:	00010b13          	mv	s6,sp
    printString("Unesite broj proizvodjaca?\n");
    800048dc:	00006517          	auipc	a0,0x6
    800048e0:	b2450513          	addi	a0,a0,-1244 # 8000a400 <CONSOLE_STATUS+0x3f0>
    800048e4:	ffffd097          	auipc	ra,0xffffd
    800048e8:	5c8080e7          	jalr	1480(ra) # 80001eac <_Z11printStringPKc>
    getString(input, 30);
    800048ec:	01e00593          	li	a1,30
    800048f0:	fa040493          	addi	s1,s0,-96
    800048f4:	00048513          	mv	a0,s1
    800048f8:	ffffd097          	auipc	ra,0xffffd
    800048fc:	63c080e7          	jalr	1596(ra) # 80001f34 <_Z9getStringPci>
    threadNum = stringToInt(input);
    80004900:	00048513          	mv	a0,s1
    80004904:	ffffd097          	auipc	ra,0xffffd
    80004908:	708080e7          	jalr	1800(ra) # 8000200c <_Z11stringToIntPKc>
    8000490c:	00050913          	mv	s2,a0
    printString("Unesite velicinu bafera?\n");
    80004910:	00006517          	auipc	a0,0x6
    80004914:	b1050513          	addi	a0,a0,-1264 # 8000a420 <CONSOLE_STATUS+0x410>
    80004918:	ffffd097          	auipc	ra,0xffffd
    8000491c:	594080e7          	jalr	1428(ra) # 80001eac <_Z11printStringPKc>
    getString(input, 30);
    80004920:	01e00593          	li	a1,30
    80004924:	00048513          	mv	a0,s1
    80004928:	ffffd097          	auipc	ra,0xffffd
    8000492c:	60c080e7          	jalr	1548(ra) # 80001f34 <_Z9getStringPci>
    n = stringToInt(input);
    80004930:	00048513          	mv	a0,s1
    80004934:	ffffd097          	auipc	ra,0xffffd
