GAS LISTING /tmp/ccXlATxi.s 			page 1


   1              		.file	"kern_threads.c"
   2              		.option nopic
   3              		.option norelax
   4              		.text
   5              	.Ltext0:
   6              		.cfi_sections	.debug_frame
   7              		.align	2
   8              		.globl	kern_thread_init
  10              	kern_thread_init:
  11              	.LFB0:
  12              		.file 1 "src/kern_threads.c"
   1:src/kern_threads.c **** //
   2:src/kern_threads.c **** // Created by os on 5/22/23.
   3:src/kern_threads.c **** //
   4:src/kern_threads.c **** 
   5:src/kern_threads.c **** #include "../h/kern_threads.h"
   6:src/kern_threads.c **** #include "../h/kern_interrupts.h"
   7:src/kern_threads.c **** #include "../lib/hw.h"
   8:src/kern_threads.c **** #include "../h/kern_memory.h"
   9:src/kern_threads.c **** #include "../h/syscall_c.h"
  10:src/kern_threads.c **** 
  11:src/kern_threads.c **** #define MAX_THREADS 64
  12:src/kern_threads.c **** 
  13:src/kern_threads.c **** typedef struct thread_s* thread_t;
  14:src/kern_threads.c **** 
  15:src/kern_threads.c **** struct thread_s threads[MAX_THREADS];
  16:src/kern_threads.c **** static int id;
  17:src/kern_threads.c **** struct thread_s* running;
  18:src/kern_threads.c **** 
  19:src/kern_threads.c **** void kern_thread_init()
  20:src/kern_threads.c **** {
  13              		.loc 1 20 1
  14              		.cfi_startproc
  15 0000 130101FF 		addi	sp,sp,-16
  16              		.cfi_def_cfa_offset 16
  17 0004 23348100 		sd	s0,8(sp)
  18              		.cfi_offset 8, -8
  19 0008 13040101 		addi	s0,sp,16
  20              		.cfi_def_cfa 8, 0
  21:src/kern_threads.c ****     id=0;
  21              		.loc 1 21 5
  22              		.loc 1 21 7 is_stmt 0
  23 000c 97070000 		sw	zero,id,a5
  23      23A00700 
  22:src/kern_threads.c ****     for (int i=0;i<MAX_THREADS;i++){
  24              		.loc 1 22 5 is_stmt 1
  25              	.LBB2:
  26              		.loc 1 22 10
  27              	.LVL0:
  28              		.loc 1 22 14 is_stmt 0
  29 0014 93070000 		li	a5,0
  30              		.loc 1 22 5
  31 0018 6F004002 		j	.L2
  32              	.LVL1:
  33              	.L3:
  23:src/kern_threads.c ****         threads[i].status=UNUSED;
  34              		.loc 1 23 9 is_stmt 1 discriminator 3
GAS LISTING /tmp/ccXlATxi.s 			page 2


  35              		.loc 1 23 26 is_stmt 0 discriminator 3
  36 001c 13971700 		slli	a4,a5,1
  37 0020 3307F700 		add	a4,a4,a5
  38 0024 93165700 		slli	a3,a4,5
  39 0028 17070000 		lla	a4,threads
  39      13070700 
  40 0030 3307D700 		add	a4,a4,a3
  41 0034 23280704 		sw	zero,80(a4)
  22:src/kern_threads.c ****     for (int i=0;i<MAX_THREADS;i++){
  42              		.loc 1 22 32 is_stmt 1 discriminator 3
  22:src/kern_threads.c ****     for (int i=0;i<MAX_THREADS;i++){
  43              		.loc 1 22 33 is_stmt 0 discriminator 3
  44 0038 9B871700 		addiw	a5,a5,1
  45              	.LVL2:
  46              	.L2:
  22:src/kern_threads.c ****     for (int i=0;i<MAX_THREADS;i++){
  47              		.loc 1 22 18 is_stmt 1 discriminator 1
  22:src/kern_threads.c ****     for (int i=0;i<MAX_THREADS;i++){
  48              		.loc 1 22 5 is_stmt 0 discriminator 1
  49 003c 1307F003 		li	a4,63
  50 0040 E35EF7FC 		ble	a5,a4,.L3
  51              	.LBE2:
  24:src/kern_threads.c ****     }
  25:src/kern_threads.c **** 
  26:src/kern_threads.c ****     //set threads[0] as main thread
  27:src/kern_threads.c ****     threads[0].status=RUNNING;
  52              		.loc 1 27 5 is_stmt 1
  53              		.loc 1 27 22 is_stmt 0
  54 0044 97070000 		lla	a5,threads
  54      93870700 
  55              	.LVL3:
  56 004c 13071000 		li	a4,1
  57 0050 23A8E704 		sw	a4,80(a5)
  28:src/kern_threads.c ****     threads[0].id=0;
  58              		.loc 1 28 5 is_stmt 1
  59              		.loc 1 28 18 is_stmt 0
  60 0054 23B80700 		sd	zero,16(a5)
  29:src/kern_threads.c ****     threads[0].timeslice=DEFAULT_TIME_SLICE+2;
  61              		.loc 1 29 5 is_stmt 1
  62              		.loc 1 29 25 is_stmt 0
  63 0058 13074000 		li	a4,4
  64 005c 23B8E702 		sd	a4,48(a5)
  30:src/kern_threads.c ****     threads[0].endTime=0;
  65              		.loc 1 30 5 is_stmt 1
  66              		.loc 1 30 23 is_stmt 0
  67 0060 23BC0702 		sd	zero,56(a5)
  31:src/kern_threads.c ****     running=&threads[0];
  68              		.loc 1 31 5 is_stmt 1
  69              		.loc 1 31 12 is_stmt 0
  70 0064 17070000 		sd	a5,running,a4
  70      2330F700 
  32:src/kern_threads.c **** }
  71              		.loc 1 32 1
  72 006c 03348100 		ld	s0,8(sp)
  73              		.cfi_restore 8
  74              		.cfi_def_cfa 2, 16
  75 0070 13010101 		addi	sp,sp,16
GAS LISTING /tmp/ccXlATxi.s 			page 3


  76              		.cfi_def_cfa_offset 0
  77 0074 67800000 		jr	ra
  78              		.cfi_endproc
  79              	.LFE0:
  81              		.align	2
  82              		.globl	kern_scheduler_get
  84              	kern_scheduler_get:
  85              	.LFB1:
  33:src/kern_threads.c **** 
  34:src/kern_threads.c **** thread_t kern_scheduler_get()
  35:src/kern_threads.c **** {
  86              		.loc 1 35 1 is_stmt 1
  87              		.cfi_startproc
  88 0078 130101FF 		addi	sp,sp,-16
  89              		.cfi_def_cfa_offset 16
  90 007c 23348100 		sd	s0,8(sp)
  91              		.cfi_offset 8, -8
  92 0080 13040101 		addi	s0,sp,16
  93              		.cfi_def_cfa 8, 0
  36:src/kern_threads.c ****     int num = running-threads;
  94              		.loc 1 36 5
  95              		.loc 1 36 22 is_stmt 0
  96 0084 17050000 		ld	a0,running
  96      03350500 
  97 008c 97070000 		lla	a5,threads
  97      93870700 
  98 0094 B307F540 		sub	a5,a0,a5
  99 0098 93D75740 		srai	a5,a5,5
 100              		.loc 1 36 9
 101 009c 17070000 		ld	a4,.LC0
 101      03370700 
 102 00a4 BB87E702 		mulw	a5,a5,a4
 103              	.LVL4:
  37:src/kern_threads.c ****     for(int i=1;i<=MAX_THREADS;i++){
 104              		.loc 1 37 5 is_stmt 1
 105              	.LBB3:
 106              		.loc 1 37 9
 107              		.loc 1 37 13 is_stmt 0
 108 00a8 93061000 		li	a3,1
 109              	.LVL5:
 110              	.L6:
 111              		.loc 1 37 17 is_stmt 1 discriminator 1
 112              		.loc 1 37 5 is_stmt 0 discriminator 1
 113 00ac 13070004 		li	a4,64
 114 00b0 634CD706 		bgt	a3,a4,.L12
  38:src/kern_threads.c ****         num = (num+i)%MAX_THREADS;
 115              		.loc 1 38 9 is_stmt 1
 116              		.loc 1 38 19 is_stmt 0
 117 00b4 BB87D700 		addw	a5,a5,a3
 118              	.LVL6:
 119              		.loc 1 38 13
 120 00b8 1BD7F741 		sraiw	a4,a5,31
 121 00bc 1B57A701 		srliw	a4,a4,26
 122 00c0 BB87E700 		addw	a5,a5,a4
 123 00c4 93F7F703 		andi	a5,a5,63
 124 00c8 BB87E740 		subw	a5,a5,a4
  39:src/kern_threads.c ****         if(threads[num].status==READY){
GAS LISTING /tmp/ccXlATxi.s 			page 4


 125              		.loc 1 39 9 is_stmt 1
 126              		.loc 1 39 24 is_stmt 0
 127 00cc 13971700 		slli	a4,a5,1
 128 00d0 3307F700 		add	a4,a4,a5
 129 00d4 13165700 		slli	a2,a4,5
 130 00d8 17070000 		lla	a4,threads
 130      13070700 
 131 00e0 3307C700 		add	a4,a4,a2
 132 00e4 03260705 		lw	a2,80(a4)
 133              		.loc 1 39 11
 134 00e8 13072000 		li	a4,2
 135 00ec 6306E600 		beq	a2,a4,.L13
  37:src/kern_threads.c ****     for(int i=1;i<=MAX_THREADS;i++){
 136              		.loc 1 37 32 is_stmt 1 discriminator 2
  37:src/kern_threads.c ****     for(int i=1;i<=MAX_THREADS;i++){
 137              		.loc 1 37 33 is_stmt 0 discriminator 2
 138 00f0 9B861600 		addiw	a3,a3,1
 139              	.LVL7:
 140 00f4 6FF09FFB 		j	.L6
 141              	.LVL8:
 142              	.L13:
  40:src/kern_threads.c ****             threads[num].status=RUNNING;
 143              		.loc 1 40 13 is_stmt 1
 144              		.loc 1 40 32 is_stmt 0
 145 00f8 17060000 		lla	a2,threads
 145      13060600 
 146 0100 13971700 		slli	a4,a5,1
 147 0104 B305F700 		add	a1,a4,a5
 148 0108 93965500 		slli	a3,a1,5
 149              	.LVL9:
 150 010c B306D600 		add	a3,a2,a3
 151 0110 93051000 		li	a1,1
 152 0114 23A8B604 		sw	a1,80(a3)
  41:src/kern_threads.c ****             return &threads[num];
 153              		.loc 1 41 13 is_stmt 1
 154              		.loc 1 41 20 is_stmt 0
 155 0118 13850600 		mv	a0,a3
 156              	.L5:
 157              	.LBE3:
  42:src/kern_threads.c ****         }
  43:src/kern_threads.c ****     }
  44:src/kern_threads.c ****     if(running->status==READY || running->status==RUNNING) {
  45:src/kern_threads.c ****         running->status=RUNNING;
  46:src/kern_threads.c ****         return running;
  47:src/kern_threads.c ****     }
  48:src/kern_threads.c ****     return 0;
  49:src/kern_threads.c **** }
 158              		.loc 1 49 1
 159 011c 03348100 		ld	s0,8(sp)
 160              		.cfi_remember_state
 161              		.cfi_restore 8
 162              		.cfi_def_cfa 2, 16
 163 0120 13010101 		addi	sp,sp,16
 164              		.cfi_def_cfa_offset 0
 165 0124 67800000 		jr	ra
 166              	.LVL10:
 167              	.L12:
GAS LISTING /tmp/ccXlATxi.s 			page 5


 168              		.cfi_restore_state
  44:src/kern_threads.c ****         running->status=RUNNING;
 169              		.loc 1 44 5 is_stmt 1
  44:src/kern_threads.c ****         running->status=RUNNING;
 170              		.loc 1 44 15 is_stmt 0
 171 0128 83270505 		lw	a5,80(a0)
 172              	.LVL11:
  44:src/kern_threads.c ****         running->status=RUNNING;
 173              		.loc 1 44 31
 174 012c 9B87F7FF 		addiw	a5,a5,-1
  44:src/kern_threads.c ****         running->status=RUNNING;
 175              		.loc 1 44 7
 176 0130 13071000 		li	a4,1
 177 0134 6376F700 		bleu	a5,a4,.L14
  48:src/kern_threads.c **** }
 178              		.loc 1 48 12
 179 0138 13050000 		li	a0,0
 180 013c 6FF01FFE 		j	.L5
 181              	.L14:
  45:src/kern_threads.c ****         return running;
 182              		.loc 1 45 9 is_stmt 1
  45:src/kern_threads.c ****         return running;
 183              		.loc 1 45 24 is_stmt 0
 184 0140 93071000 		li	a5,1
 185 0144 2328F504 		sw	a5,80(a0)
  46:src/kern_threads.c ****     }
 186              		.loc 1 46 9 is_stmt 1
  46:src/kern_threads.c ****     }
 187              		.loc 1 46 16 is_stmt 0
 188 0148 6FF05FFD 		j	.L5
 189              		.cfi_endproc
 190              	.LFE1:
 192              		.align	2
 193              		.globl	kern_thread_yield
 195              	kern_thread_yield:
 196              	.LFB2:
  50:src/kern_threads.c **** 
  51:src/kern_threads.c **** void kern_thread_yield()
  52:src/kern_threads.c **** {
 197              		.loc 1 52 1 is_stmt 1
 198              		.cfi_startproc
 199 014c 130101FF 		addi	sp,sp,-16
 200              		.cfi_def_cfa_offset 16
 201 0150 23341100 		sd	ra,8(sp)
 202 0154 23308100 		sd	s0,0(sp)
 203              		.cfi_offset 1, -8
 204              		.cfi_offset 8, -16
 205 0158 13040101 		addi	s0,sp,16
 206              		.cfi_def_cfa 8, 0
  53:src/kern_threads.c ****     kern_syscall(THREAD_DISPATCH);
 207              		.loc 1 53 5
 208 015c 13053001 		li	a0,19
 209 0160 97000000 		call	kern_syscall
 209      E7800000 
 210              	.LVL12:
  54:src/kern_threads.c **** }
 211              		.loc 1 54 1 is_stmt 0
GAS LISTING /tmp/ccXlATxi.s 			page 6


 212 0168 83308100 		ld	ra,8(sp)
 213              		.cfi_restore 1
 214 016c 03340100 		ld	s0,0(sp)
 215              		.cfi_restore 8
 216              		.cfi_def_cfa 2, 16
 217 0170 13010101 		addi	sp,sp,16
 218              		.cfi_def_cfa_offset 0
 219 0174 67800000 		jr	ra
 220              		.cfi_endproc
 221              	.LFE2:
 223              		.align	2
 224              		.globl	popSppSpie
 226              	popSppSpie:
 227              	.LFB3:
  55:src/kern_threads.c **** 
  56:src/kern_threads.c **** //samo izlazi iz kernela i vraca se odakle je pozvana
  57:src/kern_threads.c **** void popSppSpie()
  58:src/kern_threads.c **** {
 228              		.loc 1 58 1 is_stmt 1
 229              		.cfi_startproc
 230 0178 130101FF 		addi	sp,sp,-16
 231              		.cfi_def_cfa_offset 16
 232 017c 23348100 		sd	s0,8(sp)
 233              		.cfi_offset 8, -8
 234 0180 13040101 		addi	s0,sp,16
 235              		.cfi_def_cfa 8, 0
  59:src/kern_threads.c ****     __asm__ volatile("csrw sepc, ra"); //ovde dodaj izlazak iz privilegovanog moda
 236              		.loc 1 59 5
 237              	#APP
 238              	# 59 "src/kern_threads.c" 1
  60              	    __asm__ volatile("csrc sstatus, %[mask]" : : [mask] "r"(1 << 8));
 239              		csrw sepc, ra
 240              	# 0 "" 2
 241              		.loc 1 60 5
 242              	#NO_APP
 243 0188 93070010 		li	a5,256
 244              	#APP
 245              	# 60 "src/kern_threads.c" 1
  61              	    __asm__ volatile("sret");
 246              		csrc sstatus, a5
 247              	# 0 "" 2
 248              		.loc 1 61 5
 249              	# 61 "src/kern_threads.c" 1
  62              	}
 250              		sret
 251              	# 0 "" 2
 252              		.loc 1 62 1 is_stmt 0
 253              	#NO_APP
 254 0194 03348100 		ld	s0,8(sp)
 255              		.cfi_restore 8
 256              		.cfi_def_cfa 2, 16
 257 0198 13010101 		addi	sp,sp,16
 258              		.cfi_def_cfa_offset 0
 259 019c 67800000 		jr	ra
 260              		.cfi_endproc
 261              	.LFE3:
 263              		.align	2
GAS LISTING /tmp/ccXlATxi.s 			page 7


 264              		.globl	kern_thread_wrapper
 266              	kern_thread_wrapper:
 267              	.LFB6:
  63:src/kern_threads.c **** 
  64:src/kern_threads.c **** extern void contextSwitch(thread_t old, thread_t new);
  65:src/kern_threads.c **** 
  66:src/kern_threads.c **** void kern_thread_dispatch()
  67:src/kern_threads.c **** {
  68:src/kern_threads.c ****     thread_t old = running;
  69:src/kern_threads.c ****     running=kern_scheduler_get();
  70:src/kern_threads.c ****     if(old!=running){
  71:src/kern_threads.c ****         running->status=RUNNING;
  72:src/kern_threads.c ****         if(old->status==RUNNING) old->status=READY;
  73:src/kern_threads.c ****         contextSwitch(old,running);
  74:src/kern_threads.c ****     }
  75:src/kern_threads.c **** }
  76:src/kern_threads.c **** 
  77:src/kern_threads.c **** void kern_thread_end_running()
  78:src/kern_threads.c **** {
  79:src/kern_threads.c ****     thread_t old = running;
  80:src/kern_threads.c ****     old->status=UNUSED;
  81:src/kern_threads.c ****     for(int i=0;i<MAX_THREADS;i++){
  82:src/kern_threads.c ****         if(threads[i].status==JOINED && threads[i].joined_tid==old->id) threads[i].status=READY;
  83:src/kern_threads.c ****     }
  84:src/kern_threads.c ****     running=kern_scheduler_get();
  85:src/kern_threads.c ****     if(old->stack_space!=0) kern_mem_free((void*)old->stack_space);
  86:src/kern_threads.c ****     if(old!=running){
  87:src/kern_threads.c ****         contextSwitch(old,running);
  88:src/kern_threads.c ****     }
  89:src/kern_threads.c **** }
  90:src/kern_threads.c **** 
  91:src/kern_threads.c **** void kern_thread_wrapper()
  92:src/kern_threads.c **** {
 268              		.loc 1 92 1 is_stmt 1
 269              		.cfi_startproc
 270 01a0 130101FE 		addi	sp,sp,-32
 271              		.cfi_def_cfa_offset 32
 272 01a4 233C1100 		sd	ra,24(sp)
 273 01a8 23388100 		sd	s0,16(sp)
 274 01ac 23349100 		sd	s1,8(sp)
 275              		.cfi_offset 1, -8
 276              		.cfi_offset 8, -16
 277              		.cfi_offset 9, -24
 278 01b0 13040102 		addi	s0,sp,32
 279              		.cfi_def_cfa 8, 0
  93:src/kern_threads.c ****     popSppSpie();
 280              		.loc 1 93 5
 281 01b4 97000000 		call	popSppSpie
 281      E7800000 
 282              	.LVL13:
  94:src/kern_threads.c ****     running->body(running->arg);
 283              		.loc 1 94 5
 284              		.loc 1 94 12 is_stmt 0
 285 01bc 97040000 		lla	s1,running
 285      93840400 
 286 01c4 83B70400 		ld	a5,0(s1)
 287 01c8 03B78701 		ld	a4,24(a5)
GAS LISTING /tmp/ccXlATxi.s 			page 8


 288              		.loc 1 94 5
 289 01cc 03B50702 		ld	a0,32(a5)
 290 01d0 E7000700 		jalr	a4
 291              	.LVL14:
  95:src/kern_threads.c ****     running->status=UNUSED;
 292              		.loc 1 95 5 is_stmt 1
 293              		.loc 1 95 12 is_stmt 0
 294 01d4 03B60400 		ld	a2,0(s1)
 295              		.loc 1 95 20
 296 01d8 23280604 		sw	zero,80(a2)
  96:src/kern_threads.c ****     running->sem_next=0;
 297              		.loc 1 96 5 is_stmt 1
 298              		.loc 1 96 22 is_stmt 0
 299 01dc 233C0604 		sd	zero,88(a2)
  97:src/kern_threads.c ****     running->joined_tid=-1;
 300              		.loc 1 97 5 is_stmt 1
 301              		.loc 1 97 24 is_stmt 0
 302 01e0 9307F0FF 		li	a5,-1
 303 01e4 2334F602 		sd	a5,40(a2)
  98:src/kern_threads.c ****     for(int i=0;i<MAX_THREADS;i++){
 304              		.loc 1 98 5 is_stmt 1
 305              	.LBB4:
 306              		.loc 1 98 9
 307              	.LVL15:
 308              		.loc 1 98 13 is_stmt 0
 309 01e8 93070000 		li	a5,0
 310              		.loc 1 98 5
 311 01ec 6F008000 		j	.L20
 312              	.LVL16:
 313              	.L21:
 314              		.loc 1 98 31 is_stmt 1 discriminator 2
 315              		.loc 1 98 32 is_stmt 0 discriminator 2
 316 01f0 9B871700 		addiw	a5,a5,1
 317              	.LVL17:
 318              	.L20:
 319              		.loc 1 98 17 is_stmt 1 discriminator 1
 320              		.loc 1 98 5 is_stmt 0 discriminator 1
 321 01f4 1307F003 		li	a4,63
 322 01f8 6348F706 		bgt	a5,a4,.L24
  99:src/kern_threads.c ****         if(threads[i].status==JOINED && threads[i].joined_tid==running->id) threads[i].status=READY
 323              		.loc 1 99 9 is_stmt 1
 324              		.loc 1 99 22 is_stmt 0
 325 01fc 13971700 		slli	a4,a5,1
 326 0200 3307F700 		add	a4,a4,a5
 327 0204 93165700 		slli	a3,a4,5
 328 0208 17070000 		lla	a4,threads
 328      13070700 
 329 0210 3307D700 		add	a4,a4,a3
 330 0214 83260705 		lw	a3,80(a4)
 331              		.loc 1 99 11
 332 0218 13074000 		li	a4,4
 333 021c E39AE6FC 		bne	a3,a4,.L21
 334              		.loc 1 99 51 discriminator 1
 335 0220 13971700 		slli	a4,a5,1
 336 0224 3307F700 		add	a4,a4,a5
 337 0228 93165700 		slli	a3,a4,5
 338 022c 17070000 		lla	a4,threads
GAS LISTING /tmp/ccXlATxi.s 			page 9


 338      13070700 
 339 0234 3307D700 		add	a4,a4,a3
 340 0238 83368702 		ld	a3,40(a4)
 341              		.loc 1 99 71 discriminator 1
 342 023c 03370601 		ld	a4,16(a2)
 343              		.loc 1 99 38 discriminator 1
 344 0240 E398E6FA 		bne	a3,a4,.L21
 345              		.loc 1 99 77 is_stmt 1 discriminator 2
 346              		.loc 1 99 94 is_stmt 0 discriminator 2
 347 0244 13971700 		slli	a4,a5,1
 348 0248 3307F700 		add	a4,a4,a5
 349 024c 93165700 		slli	a3,a4,5
 350 0250 17070000 		lla	a4,threads
 350      13070700 
 351 0258 3307D700 		add	a4,a4,a3
 352 025c 93062000 		li	a3,2
 353 0260 2328D704 		sw	a3,80(a4)
 354 0264 6FF0DFF8 		j	.L21
 355              	.L24:
 356              	.LBE4:
 100:src/kern_threads.c ****     }
 101:src/kern_threads.c **** 
 102:src/kern_threads.c ****     thread_exit();
 357              		.loc 1 102 5 is_stmt 1
 358 0268 97000000 		call	thread_exit
 358      E7800000 
 359              	.LVL18:
 103:src/kern_threads.c **** }
 360              		.loc 1 103 1 is_stmt 0
 361 0270 83308101 		ld	ra,24(sp)
 362              		.cfi_restore 1
 363 0274 03340101 		ld	s0,16(sp)
 364              		.cfi_restore 8
 365              		.cfi_def_cfa 2, 32
 366 0278 83348100 		ld	s1,8(sp)
 367              		.cfi_restore 9
 368 027c 13010102 		addi	sp,sp,32
 369              		.cfi_def_cfa_offset 0
 370 0280 67800000 		jr	ra
 371              		.cfi_endproc
 372              	.LFE6:
 374              		.align	2
 375              		.globl	kern_thread_dispatch
 377              	kern_thread_dispatch:
 378              	.LFB4:
  67:src/kern_threads.c ****     thread_t old = running;
 379              		.loc 1 67 1 is_stmt 1
 380              		.cfi_startproc
 381 0284 130101FE 		addi	sp,sp,-32
 382              		.cfi_def_cfa_offset 32
 383 0288 233C1100 		sd	ra,24(sp)
 384 028c 23388100 		sd	s0,16(sp)
 385 0290 23349100 		sd	s1,8(sp)
 386 0294 23302101 		sd	s2,0(sp)
 387              		.cfi_offset 1, -8
 388              		.cfi_offset 8, -16
 389              		.cfi_offset 9, -24
GAS LISTING /tmp/ccXlATxi.s 			page 10


 390              		.cfi_offset 18, -32
 391 0298 13040102 		addi	s0,sp,32
 392              		.cfi_def_cfa 8, 0
  68:src/kern_threads.c ****     running=kern_scheduler_get();
 393              		.loc 1 68 5
  68:src/kern_threads.c ****     running=kern_scheduler_get();
 394              		.loc 1 68 14 is_stmt 0
 395 029c 17090000 		lla	s2,running
 395      13090900 
 396 02a4 83340900 		ld	s1,0(s2)
 397              	.LVL19:
  69:src/kern_threads.c ****     if(old!=running){
 398              		.loc 1 69 5 is_stmt 1
  69:src/kern_threads.c ****     if(old!=running){
 399              		.loc 1 69 13 is_stmt 0
 400 02a8 97000000 		call	kern_scheduler_get
 400      E7800000 
 401              	.LVL20:
  69:src/kern_threads.c ****     if(old!=running){
 402              		.loc 1 69 12
 403 02b0 2330A900 		sd	a0,0(s2)
  70:src/kern_threads.c ****         running->status=RUNNING;
 404              		.loc 1 70 5 is_stmt 1
  70:src/kern_threads.c ****         running->status=RUNNING;
 405              		.loc 1 70 7 is_stmt 0
 406 02b4 63049502 		beq	a0,s1,.L25
 407 02b8 93050500 		mv	a1,a0
  71:src/kern_threads.c ****         if(old->status==RUNNING) old->status=READY;
 408              		.loc 1 71 9 is_stmt 1
  71:src/kern_threads.c ****         if(old->status==RUNNING) old->status=READY;
 409              		.loc 1 71 24 is_stmt 0
 410 02bc 93071000 		li	a5,1
 411 02c0 2328F504 		sw	a5,80(a0)
  72:src/kern_threads.c ****         contextSwitch(old,running);
 412              		.loc 1 72 9 is_stmt 1
  72:src/kern_threads.c ****         contextSwitch(old,running);
 413              		.loc 1 72 15 is_stmt 0
 414 02c4 03A70405 		lw	a4,80(s1)
  72:src/kern_threads.c ****         contextSwitch(old,running);
 415              		.loc 1 72 11
 416 02c8 93071000 		li	a5,1
 417 02cc 6304F702 		beq	a4,a5,.L29
 418              	.L27:
  73:src/kern_threads.c ****     }
 419              		.loc 1 73 9 is_stmt 1
 420 02d0 13850400 		mv	a0,s1
 421 02d4 97000000 		call	contextSwitch
 421      E7800000 
 422              	.LVL21:
 423              	.L25:
  75:src/kern_threads.c **** 
 424              		.loc 1 75 1 is_stmt 0
 425 02dc 83308101 		ld	ra,24(sp)
 426              		.cfi_remember_state
 427              		.cfi_restore 1
 428 02e0 03340101 		ld	s0,16(sp)
 429              		.cfi_restore 8
GAS LISTING /tmp/ccXlATxi.s 			page 11


 430              		.cfi_def_cfa 2, 32
 431 02e4 83348100 		ld	s1,8(sp)
 432              		.cfi_restore 9
 433              	.LVL22:
 434 02e8 03390100 		ld	s2,0(sp)
 435              		.cfi_restore 18
 436 02ec 13010102 		addi	sp,sp,32
 437              		.cfi_def_cfa_offset 0
 438 02f0 67800000 		jr	ra
 439              	.LVL23:
 440              	.L29:
 441              		.cfi_restore_state
  72:src/kern_threads.c ****         contextSwitch(old,running);
 442              		.loc 1 72 34 is_stmt 1 discriminator 1
  72:src/kern_threads.c ****         contextSwitch(old,running);
 443              		.loc 1 72 45 is_stmt 0 discriminator 1
 444 02f4 93072000 		li	a5,2
 445 02f8 23A8F404 		sw	a5,80(s1)
 446 02fc 6FF05FFD 		j	.L27
 447              		.cfi_endproc
 448              	.LFE4:
 450              		.align	2
 451              		.globl	kern_thread_end_running
 453              	kern_thread_end_running:
 454              	.LFB5:
  78:src/kern_threads.c ****     thread_t old = running;
 455              		.loc 1 78 1 is_stmt 1
 456              		.cfi_startproc
 457 0300 130101FE 		addi	sp,sp,-32
 458              		.cfi_def_cfa_offset 32
 459 0304 233C1100 		sd	ra,24(sp)
 460 0308 23388100 		sd	s0,16(sp)
 461 030c 23349100 		sd	s1,8(sp)
 462              		.cfi_offset 1, -8
 463              		.cfi_offset 8, -16
 464              		.cfi_offset 9, -24
 465 0310 13040102 		addi	s0,sp,32
 466              		.cfi_def_cfa 8, 0
  79:src/kern_threads.c ****     old->status=UNUSED;
 467              		.loc 1 79 5
  79:src/kern_threads.c ****     old->status=UNUSED;
 468              		.loc 1 79 14 is_stmt 0
 469 0314 97040000 		ld	s1,running
 469      83B40400 
 470              	.LVL24:
  80:src/kern_threads.c ****     for(int i=0;i<MAX_THREADS;i++){
 471              		.loc 1 80 5 is_stmt 1
  80:src/kern_threads.c ****     for(int i=0;i<MAX_THREADS;i++){
 472              		.loc 1 80 16 is_stmt 0
 473 031c 23A80404 		sw	zero,80(s1)
  81:src/kern_threads.c ****         if(threads[i].status==JOINED && threads[i].joined_tid==old->id) threads[i].status=READY;
 474              		.loc 1 81 5 is_stmt 1
 475              	.LBB5:
  81:src/kern_threads.c ****         if(threads[i].status==JOINED && threads[i].joined_tid==old->id) threads[i].status=READY;
 476              		.loc 1 81 9
 477              	.LVL25:
  81:src/kern_threads.c ****         if(threads[i].status==JOINED && threads[i].joined_tid==old->id) threads[i].status=READY;
GAS LISTING /tmp/ccXlATxi.s 			page 12


 478              		.loc 1 81 13 is_stmt 0
 479 0320 13070000 		li	a4,0
  81:src/kern_threads.c ****         if(threads[i].status==JOINED && threads[i].joined_tid==old->id) threads[i].status=READY;
 480              		.loc 1 81 5
 481 0324 6F008000 		j	.L31
 482              	.LVL26:
 483              	.L32:
  81:src/kern_threads.c ****         if(threads[i].status==JOINED && threads[i].joined_tid==old->id) threads[i].status=READY;
 484              		.loc 1 81 31 is_stmt 1 discriminator 2
  81:src/kern_threads.c ****         if(threads[i].status==JOINED && threads[i].joined_tid==old->id) threads[i].status=READY;
 485              		.loc 1 81 32 is_stmt 0 discriminator 2
 486 0328 1B071700 		addiw	a4,a4,1
 487              	.LVL27:
 488              	.L31:
  81:src/kern_threads.c ****         if(threads[i].status==JOINED && threads[i].joined_tid==old->id) threads[i].status=READY;
 489              		.loc 1 81 17 is_stmt 1 discriminator 1
  81:src/kern_threads.c ****         if(threads[i].status==JOINED && threads[i].joined_tid==old->id) threads[i].status=READY;
 490              		.loc 1 81 5 is_stmt 0 discriminator 1
 491 032c 9307F003 		li	a5,63
 492 0330 63C8E706 		bgt	a4,a5,.L37
  82:src/kern_threads.c ****     }
 493              		.loc 1 82 9 is_stmt 1
  82:src/kern_threads.c ****     }
 494              		.loc 1 82 22 is_stmt 0
 495 0334 93171700 		slli	a5,a4,1
 496 0338 B387E700 		add	a5,a5,a4
 497 033c 93975700 		slli	a5,a5,5
 498 0340 97060000 		lla	a3,threads
 498      93860600 
 499 0348 B387F600 		add	a5,a3,a5
 500 034c 83A60705 		lw	a3,80(a5)
  82:src/kern_threads.c ****     }
 501              		.loc 1 82 11
 502 0350 93074000 		li	a5,4
 503 0354 E39AF6FC 		bne	a3,a5,.L32
  82:src/kern_threads.c ****     }
 504              		.loc 1 82 51 discriminator 1
 505 0358 93171700 		slli	a5,a4,1
 506 035c B387E700 		add	a5,a5,a4
 507 0360 93975700 		slli	a5,a5,5
 508 0364 97060000 		lla	a3,threads
 508      93860600 
 509 036c B387F600 		add	a5,a3,a5
 510 0370 83B68702 		ld	a3,40(a5)
  82:src/kern_threads.c ****     }
 511              		.loc 1 82 67 discriminator 1
 512 0374 83B70401 		ld	a5,16(s1)
  82:src/kern_threads.c ****     }
 513              		.loc 1 82 38 discriminator 1
 514 0378 E398F6FA 		bne	a3,a5,.L32
  82:src/kern_threads.c ****     }
 515              		.loc 1 82 73 is_stmt 1 discriminator 2
  82:src/kern_threads.c ****     }
 516              		.loc 1 82 90 is_stmt 0 discriminator 2
 517 037c 93171700 		slli	a5,a4,1
 518 0380 B387E700 		add	a5,a5,a4
 519 0384 93975700 		slli	a5,a5,5
GAS LISTING /tmp/ccXlATxi.s 			page 13


 520 0388 97060000 		lla	a3,threads
 520      93860600 
 521 0390 B387F600 		add	a5,a3,a5
 522 0394 93062000 		li	a3,2
 523 0398 23A8D704 		sw	a3,80(a5)
 524 039c 6FF0DFF8 		j	.L32
 525              	.L37:
 526              	.LBE5:
  84:src/kern_threads.c ****     if(old->stack_space!=0) kern_mem_free((void*)old->stack_space);
 527              		.loc 1 84 5 is_stmt 1
  84:src/kern_threads.c ****     if(old->stack_space!=0) kern_mem_free((void*)old->stack_space);
 528              		.loc 1 84 13 is_stmt 0
 529 03a0 97000000 		call	kern_scheduler_get
 529      E7800000 
 530              	.LVL28:
  84:src/kern_threads.c ****     if(old->stack_space!=0) kern_mem_free((void*)old->stack_space);
 531              		.loc 1 84 12
 532 03a8 97070000 		sd	a0,running,a5
 532      23B0A700 
  85:src/kern_threads.c ****     if(old!=running){
 533              		.loc 1 85 5 is_stmt 1
  85:src/kern_threads.c ****     if(old!=running){
 534              		.loc 1 85 11 is_stmt 0
 535 03b0 03B50404 		ld	a0,64(s1)
  85:src/kern_threads.c ****     if(old!=running){
 536              		.loc 1 85 7
 537 03b4 63180502 		bnez	a0,.L38
 538              	.L34:
  86:src/kern_threads.c ****         contextSwitch(old,running);
 539              		.loc 1 86 5 is_stmt 1
  86:src/kern_threads.c ****         contextSwitch(old,running);
 540              		.loc 1 86 11 is_stmt 0
 541 03b8 97050000 		ld	a1,running
 541      83B50500 
  86:src/kern_threads.c ****         contextSwitch(old,running);
 542              		.loc 1 86 7
 543 03c0 63889500 		beq	a1,s1,.L30
  87:src/kern_threads.c ****     }
 544              		.loc 1 87 9 is_stmt 1
 545 03c4 13850400 		mv	a0,s1
 546 03c8 97000000 		call	contextSwitch
 546      E7800000 
 547              	.LVL29:
 548              	.L30:
  89:src/kern_threads.c **** 
 549              		.loc 1 89 1 is_stmt 0
 550 03d0 83308101 		ld	ra,24(sp)
 551              		.cfi_remember_state
 552              		.cfi_restore 1
 553 03d4 03340101 		ld	s0,16(sp)
 554              		.cfi_restore 8
 555              		.cfi_def_cfa 2, 32
 556 03d8 83348100 		ld	s1,8(sp)
 557              		.cfi_restore 9
 558              	.LVL30:
 559 03dc 13010102 		addi	sp,sp,32
 560              		.cfi_def_cfa_offset 0
GAS LISTING /tmp/ccXlATxi.s 			page 14


 561 03e0 67800000 		jr	ra
 562              	.LVL31:
 563              	.L38:
 564              		.cfi_restore_state
  85:src/kern_threads.c ****     if(old!=running){
 565              		.loc 1 85 29 is_stmt 1 discriminator 1
 566 03e4 97000000 		call	kern_mem_free
 566      E7800000 
 567              	.LVL32:
 568 03ec 6FF0DFFC 		j	.L34
 569              		.cfi_endproc
 570              	.LFE5:
 572              		.align	2
 573              		.globl	kern_thread_create
 575              	kern_thread_create:
 576              	.LFB7:
 104:src/kern_threads.c **** 
 105:src/kern_threads.c **** int kern_thread_create(thread_t* handle, void(*start_routine)(void*), void* arg, void* stack_space)
 106:src/kern_threads.c **** {
 577              		.loc 1 106 1
 578              		.cfi_startproc
 579              	.LVL33:
 580 03f0 130101FF 		addi	sp,sp,-16
 581              		.cfi_def_cfa_offset 16
 582 03f4 23348100 		sd	s0,8(sp)
 583              		.cfi_offset 8, -8
 584 03f8 13040101 		addi	s0,sp,16
 585              		.cfi_def_cfa 8, 0
 107:src/kern_threads.c ****     *handle=0;
 586              		.loc 1 107 5
 587              		.loc 1 107 12 is_stmt 0
 588 03fc 23300500 		sd	zero,0(a0)
 108:src/kern_threads.c ****     thread_t t=&threads[0]; //dodela da bismo sklonili upozorenje
 589              		.loc 1 108 5 is_stmt 1
 590              	.LVL34:
 109:src/kern_threads.c ****     for(int i=0;i<MAX_THREADS;i++){
 591              		.loc 1 109 5
 592              	.LBB6:
 593              		.loc 1 109 9
 594              		.loc 1 109 13 is_stmt 0
 595 0400 13070000 		li	a4,0
 596              	.LVL35:
 597              	.L40:
 598              		.loc 1 109 17 is_stmt 1 discriminator 1
 599              		.loc 1 109 5 is_stmt 0 discriminator 1
 600 0404 9307F003 		li	a5,63
 601 0408 63CCE70A 		bgt	a4,a5,.L47
 110:src/kern_threads.c ****         if(threads[i].status==UNUSED){
 602              		.loc 1 110 9 is_stmt 1
 603              		.loc 1 110 22 is_stmt 0
 604 040c 93171700 		slli	a5,a4,1
 605 0410 B387E700 		add	a5,a5,a4
 606 0414 93975700 		slli	a5,a5,5
 607 0418 17080000 		lla	a6,threads
 607      13080800 
 608 0420 B307F800 		add	a5,a6,a5
 609 0424 83A70705 		lw	a5,80(a5)
GAS LISTING /tmp/ccXlATxi.s 			page 15


 610              		.loc 1 110 11
 611 0428 63860700 		beqz	a5,.L48
 109:src/kern_threads.c ****     for(int i=0;i<MAX_THREADS;i++){
 612              		.loc 1 109 31 is_stmt 1 discriminator 2
 109:src/kern_threads.c ****     for(int i=0;i<MAX_THREADS;i++){
 613              		.loc 1 109 32 is_stmt 0 discriminator 2
 614 042c 1B071700 		addiw	a4,a4,1
 615              	.LVL36:
 616 0430 6FF05FFD 		j	.L40
 617              	.LVL37:
 618              	.L48:
 111:src/kern_threads.c ****             *handle=&threads[i];
 619              		.loc 1 111 13 is_stmt 1
 620              		.loc 1 111 21 is_stmt 0
 621 0434 93171700 		slli	a5,a4,1
 622 0438 B387E700 		add	a5,a5,a4
 623 043c 93975700 		slli	a5,a5,5
 624 0440 B3870701 		add	a5,a5,a6
 625              		.loc 1 111 20
 626 0444 2330F500 		sd	a5,0(a0)
 112:src/kern_threads.c ****             t=&threads[i];
 627              		.loc 1 112 13 is_stmt 1
 628              	.LVL38:
 113:src/kern_threads.c ****             break;
 629              		.loc 1 113 13
 630              	.L42:
 631              	.LBE6:
 114:src/kern_threads.c ****         }
 115:src/kern_threads.c ****     }
 116:src/kern_threads.c ****     if(*handle==0) return -1;
 632              		.loc 1 116 5
 633              		.loc 1 116 8 is_stmt 0
 634 0448 03370500 		ld	a4,0(a0)
 635              	.LVL39:
 636              		.loc 1 116 7
 637 044c 63000708 		beqz	a4,.L45
 117:src/kern_threads.c **** 
 118:src/kern_threads.c ****     t->id=++id;
 638              		.loc 1 118 5 is_stmt 1
 639              		.loc 1 118 11 is_stmt 0
 640 0450 17050000 		lla	a0,id
 640      13050500 
 641              	.LVL40:
 642 0458 03270500 		lw	a4,0(a0)
 643 045c 1B071700 		addiw	a4,a4,1
 644 0460 1B080700 		sext.w	a6,a4
 645              		.loc 1 118 10
 646 0464 2320E500 		sw	a4,0(a0)
 647 0468 23B80701 		sd	a6,16(a5)
 119:src/kern_threads.c ****     t->status=READY;
 648              		.loc 1 119 5 is_stmt 1
 649              		.loc 1 119 14 is_stmt 0
 650 046c 13072000 		li	a4,2
 651 0470 23A8E704 		sw	a4,80(a5)
 120:src/kern_threads.c ****     t->arg=arg;
 652              		.loc 1 120 5 is_stmt 1
 653              		.loc 1 120 11 is_stmt 0
GAS LISTING /tmp/ccXlATxi.s 			page 16


 654 0474 23B0C702 		sd	a2,32(a5)
 121:src/kern_threads.c ****     t->joined_tid=-1;
 655              		.loc 1 121 5 is_stmt 1
 656              		.loc 1 121 18 is_stmt 0
 657 0478 1307F0FF 		li	a4,-1
 658 047c 23B4E702 		sd	a4,40(a5)
 122:src/kern_threads.c ****     t->timeslice=DEFAULT_TIME_SLICE;
 659              		.loc 1 122 5 is_stmt 1
 660              		.loc 1 122 17 is_stmt 0
 661 0480 13072000 		li	a4,2
 662 0484 23B8E702 		sd	a4,48(a5)
 123:src/kern_threads.c ****     t->body=start_routine;
 663              		.loc 1 123 5 is_stmt 1
 664              		.loc 1 123 12 is_stmt 0
 665 0488 23BCB700 		sd	a1,24(a5)
 124:src/kern_threads.c ****     t->stack_space = ((uint64)stack_space);
 666              		.loc 1 124 5 is_stmt 1
 667              		.loc 1 124 20 is_stmt 0
 668 048c 23B0D704 		sd	a3,64(a5)
 125:src/kern_threads.c ****     t->sp = t->stack_space+(DEFAULT_STACK_SIZE);
 669              		.loc 1 125 5 is_stmt 1
 670              		.loc 1 125 27 is_stmt 0
 671 0490 37170000 		li	a4,4096
 672 0494 B386E600 		add	a3,a3,a4
 673              	.LVL41:
 674              		.loc 1 125 11
 675 0498 23B4D700 		sd	a3,8(a5)
 126:src/kern_threads.c ****     t->ra=(uint64) &kern_thread_wrapper;
 676              		.loc 1 126 5 is_stmt 1
 677              		.loc 1 126 11 is_stmt 0
 678 049c 17070000 		lla	a4,kern_thread_wrapper
 678      13070700 
 679              		.loc 1 126 10
 680 04a4 23B0E700 		sd	a4,0(a5)
 127:src/kern_threads.c ****     t->sem_next=0;
 681              		.loc 1 127 5 is_stmt 1
 682              		.loc 1 127 16 is_stmt 0
 683 04a8 23BC0704 		sd	zero,88(a5)
 128:src/kern_threads.c ****     t->mailbox=0;
 684              		.loc 1 128 5 is_stmt 1
 685              		.loc 1 128 15 is_stmt 0
 686 04ac 23B40704 		sd	zero,72(a5)
 129:src/kern_threads.c **** 
 130:src/kern_threads.c ****     return 0;
 687              		.loc 1 130 5 is_stmt 1
 688              		.loc 1 130 12 is_stmt 0
 689 04b0 13050000 		li	a0,0
 690              	.LVL42:
 691              	.L44:
 131:src/kern_threads.c **** }
 692              		.loc 1 131 1
 693 04b4 03348100 		ld	s0,8(sp)
 694              		.cfi_remember_state
 695              		.cfi_restore 8
 696              		.cfi_def_cfa 2, 16
 697 04b8 13010101 		addi	sp,sp,16
 698              		.cfi_def_cfa_offset 0
GAS LISTING /tmp/ccXlATxi.s 			page 17


 699 04bc 67800000 		jr	ra
 700              	.LVL43:
 701              	.L47:
 702              		.cfi_restore_state
 108:src/kern_threads.c ****     for(int i=0;i<MAX_THREADS;i++){
 703              		.loc 1 108 14
 704 04c0 97070000 		lla	a5,threads
 704      93870700 
 705 04c8 6FF01FF8 		j	.L42
 706              	.LVL44:
 707              	.L45:
 116:src/kern_threads.c **** 
 708              		.loc 1 116 27
 709 04cc 1305F0FF 		li	a0,-1
 710              	.LVL45:
 711 04d0 6FF05FFE 		j	.L44
 712              		.cfi_endproc
 713              	.LFE7:
 715              		.align	2
 716              		.globl	kern_thread_join
 718              	kern_thread_join:
 719              	.LFB8:
 132:src/kern_threads.c **** 
 133:src/kern_threads.c **** void kern_thread_join(thread_t handle)
 134:src/kern_threads.c **** {
 720              		.loc 1 134 1 is_stmt 1
 721              		.cfi_startproc
 722              	.LVL46:
 135:src/kern_threads.c ****     if(handle->status==UNUSED) return;
 723              		.loc 1 135 5
 724              		.loc 1 135 14 is_stmt 0
 725 04d4 83270505 		lw	a5,80(a0)
 726              		.loc 1 135 7
 727 04d8 63940700 		bnez	a5,.L55
 728 04dc 67800000 		ret
 729              	.L55:
 134:src/kern_threads.c ****     if(handle->status==UNUSED) return;
 730              		.loc 1 134 1
 731 04e0 130101FF 		addi	sp,sp,-16
 732              		.cfi_def_cfa_offset 16
 733 04e4 23341100 		sd	ra,8(sp)
 734 04e8 23308100 		sd	s0,0(sp)
 735              		.cfi_offset 1, -8
 736              		.cfi_offset 8, -16
 737 04ec 13040101 		addi	s0,sp,16
 738              		.cfi_def_cfa 8, 0
 136:src/kern_threads.c ****     running->joined_tid=handle->id;
 739              		.loc 1 136 5 is_stmt 1
 740              		.loc 1 136 12 is_stmt 0
 741 04f0 97070000 		ld	a5,running
 741      83B70700 
 742              		.loc 1 136 31
 743 04f8 03370501 		ld	a4,16(a0)
 744              		.loc 1 136 24
 745 04fc 23B4E702 		sd	a4,40(a5)
 137:src/kern_threads.c ****     running->status=JOINED;
 746              		.loc 1 137 5 is_stmt 1
GAS LISTING /tmp/ccXlATxi.s 			page 18


 747              		.loc 1 137 20 is_stmt 0
 748 0500 13074000 		li	a4,4
 749 0504 23A8E704 		sw	a4,80(a5)
 138:src/kern_threads.c ****     kern_thread_dispatch();
 750              		.loc 1 138 5 is_stmt 1
 751 0508 97000000 		call	kern_thread_dispatch
 751      E7800000 
 752              	.LVL47:
 139:src/kern_threads.c **** }
 753              		.loc 1 139 1 is_stmt 0
 754 0510 83308100 		ld	ra,8(sp)
 755              		.cfi_restore 1
 756 0514 03340100 		ld	s0,0(sp)
 757              		.cfi_restore 8
 758              		.cfi_def_cfa 2, 16
 759 0518 13010101 		addi	sp,sp,16
 760              		.cfi_def_cfa_offset 0
 761 051c 67800000 		jr	ra
 762              		.cfi_endproc
 763              	.LFE8:
 765              		.align	2
 766              		.globl	kern_thread_wakeup
 768              	kern_thread_wakeup:
 769              	.LFB9:
 140:src/kern_threads.c **** 
 141:src/kern_threads.c **** void kern_thread_wakeup(uint64 system_time)
 142:src/kern_threads.c **** {
 770              		.loc 1 142 1 is_stmt 1
 771              		.cfi_startproc
 772              	.LVL48:
 773 0520 130101FF 		addi	sp,sp,-16
 774              		.cfi_def_cfa_offset 16
 775 0524 23348100 		sd	s0,8(sp)
 776              		.cfi_offset 8, -8
 777 0528 13040101 		addi	s0,sp,16
 778              		.cfi_def_cfa 8, 0
 143:src/kern_threads.c ****     for(int i=0;i<MAX_THREADS;i++){
 779              		.loc 1 143 5
 780              	.LBB7:
 781              		.loc 1 143 9
 782              	.LVL49:
 783              		.loc 1 143 13 is_stmt 0
 784 052c 93070000 		li	a5,0
 785              		.loc 1 143 5
 786 0530 6F008000 		j	.L57
 787              	.LVL50:
 788              	.L58:
 789              		.loc 1 143 31 is_stmt 1 discriminator 2
 790              		.loc 1 143 32 is_stmt 0 discriminator 2
 791 0534 9B871700 		addiw	a5,a5,1
 792              	.LVL51:
 793              	.L57:
 794              		.loc 1 143 17 is_stmt 1 discriminator 1
 795              		.loc 1 143 5 is_stmt 0 discriminator 1
 796 0538 1307F003 		li	a4,63
 797 053c 6342F706 		bgt	a5,a4,.L61
 144:src/kern_threads.c ****         if(threads[i].status==SLEEPING && threads[i].endTime<system_time){
GAS LISTING /tmp/ccXlATxi.s 			page 19


 798              		.loc 1 144 9 is_stmt 1
 799              		.loc 1 144 22 is_stmt 0
 800 0540 13971700 		slli	a4,a5,1
 801 0544 3307F700 		add	a4,a4,a5
 802 0548 13175700 		slli	a4,a4,5
 803 054c 97060000 		lla	a3,threads
 803      93860600 
 804 0554 3387E600 		add	a4,a3,a4
 805 0558 83260705 		lw	a3,80(a4)
 806              		.loc 1 144 11
 807 055c 13075000 		li	a4,5
 808 0560 E39AE6FC 		bne	a3,a4,.L58
 809              		.loc 1 144 53 discriminator 1
 810 0564 13971700 		slli	a4,a5,1
 811 0568 3307F700 		add	a4,a4,a5
 812 056c 13175700 		slli	a4,a4,5
 813 0570 97060000 		lla	a3,threads
 813      93860600 
 814 0578 3387E600 		add	a4,a3,a4
 815 057c 03378703 		ld	a4,56(a4)
 816              		.loc 1 144 40 discriminator 1
 817 0580 E37AA7FA 		bgeu	a4,a0,.L58
 145:src/kern_threads.c ****             threads[i].status=READY;
 818              		.loc 1 145 13 is_stmt 1
 819              		.loc 1 145 30 is_stmt 0
 820 0584 13971700 		slli	a4,a5,1
 821 0588 3307F700 		add	a4,a4,a5
 822 058c 13175700 		slli	a4,a4,5
 823 0590 3387E600 		add	a4,a3,a4
 824 0594 93062000 		li	a3,2
 825 0598 2328D704 		sw	a3,80(a4)
 826 059c 6FF09FF9 		j	.L58
 827              	.L61:
 828              	.LBE7:
 146:src/kern_threads.c ****         }
 147:src/kern_threads.c ****     }
 148:src/kern_threads.c **** }
 829              		.loc 1 148 1
 830 05a0 03348100 		ld	s0,8(sp)
 831              		.cfi_restore 8
 832              		.cfi_def_cfa 2, 16
 833 05a4 13010101 		addi	sp,sp,16
 834              		.cfi_def_cfa_offset 0
 835 05a8 67800000 		jr	ra
 836              		.cfi_endproc
 837              	.LFE9:
 839              		.globl	running
 840              		.globl	threads
 841              		.section	.srodata.cst8,"aM",@progbits,8
 842              		.align	3
 843              	.LC0:
 844 0000 ABAAAAAA 		.dword	-6148914691236517205
 844      AAAAAAAA 
 845              		.bss
 846              		.align	3
 849              	threads:
 850 0000 00000000 		.zero	6144
GAS LISTING /tmp/ccXlATxi.s 			page 20


 850      00000000 
 850      00000000 
 850      00000000 
 850      00000000 
 851              		.section	.sbss,"aw",@nobits
 852              		.align	3
 855              	running:
 856 0000 00000000 		.zero	8
 856      00000000 
 859              	id:
 860 0008 00000000 		.zero	4
 861              		.text
 862              	.Letext0:
 863              		.file 2 "src/../h/../lib/hw.h"
 864              		.file 3 "src/../h/kern_threads.h"
 865              		.file 4 "src/../h/kern_interrupts.h"
 866              		.file 5 "src/../h/syscall_c.h"
 867              		.file 6 "src/../h/kern_memory.h"
GAS LISTING /tmp/ccXlATxi.s 			page 21


DEFINED SYMBOLS
                            *ABS*:0000000000000000 kern_threads.c
     /tmp/ccXlATxi.s:10     .text:0000000000000000 kern_thread_init
     /tmp/ccXlATxi.s:14     .text:0000000000000000 .L0 
     /tmp/ccXlATxi.s:15     .text:0000000000000000 .L0 
     /tmp/ccXlATxi.s:16     .text:0000000000000004 .L0 
     /tmp/ccXlATxi.s:18     .text:0000000000000008 .L0 
     /tmp/ccXlATxi.s:20     .text:000000000000000c .L0 
     /tmp/ccXlATxi.s:22     .text:000000000000000c .L0 
     /tmp/ccXlATxi.s:859    .sbss:0000000000000008 id
     /tmp/ccXlATxi.s:23     .text:000000000000000c .L0 
     /tmp/ccXlATxi.s:26     .text:0000000000000014 .L0 
     /tmp/ccXlATxi.s:28     .text:0000000000000014 .L0 
     /tmp/ccXlATxi.s:29     .text:0000000000000014 .L0 
     /tmp/ccXlATxi.s:31     .text:0000000000000018 .L0 
     /tmp/ccXlATxi.s:35     .text:000000000000001c .L0 
     /tmp/ccXlATxi.s:36     .text:000000000000001c .L0 
     /tmp/ccXlATxi.s:849    .bss:0000000000000000 threads
     /tmp/ccXlATxi.s:43     .text:0000000000000038 .L0 
     /tmp/ccXlATxi.s:44     .text:0000000000000038 .L0 
     /tmp/ccXlATxi.s:48     .text:000000000000003c .L0 
     /tmp/ccXlATxi.s:49     .text:000000000000003c .L0 
     /tmp/ccXlATxi.s:53     .text:0000000000000044 .L0 
     /tmp/ccXlATxi.s:54     .text:0000000000000044 .L0 
     /tmp/ccXlATxi.s:59     .text:0000000000000054 .L0 
     /tmp/ccXlATxi.s:60     .text:0000000000000054 .L0 
     /tmp/ccXlATxi.s:62     .text:0000000000000058 .L0 
     /tmp/ccXlATxi.s:63     .text:0000000000000058 .L0 
     /tmp/ccXlATxi.s:66     .text:0000000000000060 .L0 
     /tmp/ccXlATxi.s:67     .text:0000000000000060 .L0 
     /tmp/ccXlATxi.s:69     .text:0000000000000064 .L0 
     /tmp/ccXlATxi.s:855    .sbss:0000000000000000 running
     /tmp/ccXlATxi.s:70     .text:0000000000000064 .L0 
     /tmp/ccXlATxi.s:72     .text:000000000000006c .L0 
     /tmp/ccXlATxi.s:73     .text:0000000000000070 .L0 
     /tmp/ccXlATxi.s:74     .text:0000000000000070 .L0 
     /tmp/ccXlATxi.s:76     .text:0000000000000074 .L0 
     /tmp/ccXlATxi.s:78     .text:0000000000000078 .L0 
     /tmp/ccXlATxi.s:84     .text:0000000000000078 kern_scheduler_get
     /tmp/ccXlATxi.s:87     .text:0000000000000078 .L0 
     /tmp/ccXlATxi.s:88     .text:0000000000000078 .L0 
     /tmp/ccXlATxi.s:89     .text:000000000000007c .L0 
     /tmp/ccXlATxi.s:91     .text:0000000000000080 .L0 
     /tmp/ccXlATxi.s:93     .text:0000000000000084 .L0 
     /tmp/ccXlATxi.s:95     .text:0000000000000084 .L0 
     /tmp/ccXlATxi.s:96     .text:0000000000000084 .L0 
     /tmp/ccXlATxi.s:101    .text:000000000000009c .L0 
     /tmp/ccXlATxi.s:106    .text:00000000000000a8 .L0 
     /tmp/ccXlATxi.s:107    .text:00000000000000a8 .L0 
     /tmp/ccXlATxi.s:108    .text:00000000000000a8 .L0 
     /tmp/ccXlATxi.s:112    .text:00000000000000ac .L0 
     /tmp/ccXlATxi.s:113    .text:00000000000000ac .L0 
     /tmp/ccXlATxi.s:116    .text:00000000000000b4 .L0 
     /tmp/ccXlATxi.s:117    .text:00000000000000b4 .L0 
     /tmp/ccXlATxi.s:120    .text:00000000000000b8 .L0 
     /tmp/ccXlATxi.s:126    .text:00000000000000cc .L0 
     /tmp/ccXlATxi.s:127    .text:00000000000000cc .L0 
GAS LISTING /tmp/ccXlATxi.s 			page 22


     /tmp/ccXlATxi.s:134    .text:00000000000000e8 .L0 
     /tmp/ccXlATxi.s:137    .text:00000000000000f0 .L0 
     /tmp/ccXlATxi.s:138    .text:00000000000000f0 .L0 
     /tmp/ccXlATxi.s:144    .text:00000000000000f8 .L0 
     /tmp/ccXlATxi.s:145    .text:00000000000000f8 .L0 
     /tmp/ccXlATxi.s:154    .text:0000000000000118 .L0 
     /tmp/ccXlATxi.s:155    .text:0000000000000118 .L0 
     /tmp/ccXlATxi.s:159    .text:000000000000011c .L0 
     /tmp/ccXlATxi.s:160    .text:0000000000000120 .L0 
     /tmp/ccXlATxi.s:161    .text:0000000000000120 .L0 
     /tmp/ccXlATxi.s:162    .text:0000000000000120 .L0 
     /tmp/ccXlATxi.s:164    .text:0000000000000124 .L0 
     /tmp/ccXlATxi.s:168    .text:0000000000000128 .L0 
     /tmp/ccXlATxi.s:170    .text:0000000000000128 .L0 
     /tmp/ccXlATxi.s:171    .text:0000000000000128 .L0 
     /tmp/ccXlATxi.s:174    .text:000000000000012c .L0 
     /tmp/ccXlATxi.s:176    .text:0000000000000130 .L0 
     /tmp/ccXlATxi.s:179    .text:0000000000000138 .L0 
     /tmp/ccXlATxi.s:183    .text:0000000000000140 .L0 
     /tmp/ccXlATxi.s:184    .text:0000000000000140 .L0 
     /tmp/ccXlATxi.s:187    .text:0000000000000148 .L0 
     /tmp/ccXlATxi.s:188    .text:0000000000000148 .L0 
     /tmp/ccXlATxi.s:189    .text:000000000000014c .L0 
     /tmp/ccXlATxi.s:195    .text:000000000000014c kern_thread_yield
     /tmp/ccXlATxi.s:198    .text:000000000000014c .L0 
     /tmp/ccXlATxi.s:199    .text:000000000000014c .L0 
     /tmp/ccXlATxi.s:200    .text:0000000000000150 .L0 
     /tmp/ccXlATxi.s:203    .text:0000000000000158 .L0 
     /tmp/ccXlATxi.s:204    .text:0000000000000158 .L0 
     /tmp/ccXlATxi.s:206    .text:000000000000015c .L0 
     /tmp/ccXlATxi.s:208    .text:000000000000015c .L0 
     /tmp/ccXlATxi.s:212    .text:0000000000000168 .L0 
     /tmp/ccXlATxi.s:213    .text:000000000000016c .L0 
     /tmp/ccXlATxi.s:215    .text:0000000000000170 .L0 
     /tmp/ccXlATxi.s:216    .text:0000000000000170 .L0 
     /tmp/ccXlATxi.s:218    .text:0000000000000174 .L0 
     /tmp/ccXlATxi.s:220    .text:0000000000000178 .L0 
     /tmp/ccXlATxi.s:226    .text:0000000000000178 popSppSpie
     /tmp/ccXlATxi.s:229    .text:0000000000000178 .L0 
     /tmp/ccXlATxi.s:230    .text:0000000000000178 .L0 
     /tmp/ccXlATxi.s:231    .text:000000000000017c .L0 
     /tmp/ccXlATxi.s:233    .text:0000000000000180 .L0 
     /tmp/ccXlATxi.s:235    .text:0000000000000184 .L0 
  src/kern_threads.c:59     .text:0000000000000184 .L0 
     /tmp/ccXlATxi.s:243    .text:0000000000000188 .L0 
  src/kern_threads.c:61     .text:0000000000000190 .L0 
     /tmp/ccXlATxi.s:254    .text:0000000000000194 .L0 
     /tmp/ccXlATxi.s:255    .text:0000000000000198 .L0 
     /tmp/ccXlATxi.s:256    .text:0000000000000198 .L0 
     /tmp/ccXlATxi.s:258    .text:000000000000019c .L0 
     /tmp/ccXlATxi.s:260    .text:00000000000001a0 .L0 
     /tmp/ccXlATxi.s:266    .text:00000000000001a0 kern_thread_wrapper
     /tmp/ccXlATxi.s:269    .text:00000000000001a0 .L0 
     /tmp/ccXlATxi.s:270    .text:00000000000001a0 .L0 
     /tmp/ccXlATxi.s:271    .text:00000000000001a4 .L0 
     /tmp/ccXlATxi.s:275    .text:00000000000001b0 .L0 
     /tmp/ccXlATxi.s:276    .text:00000000000001b0 .L0 
GAS LISTING /tmp/ccXlATxi.s 			page 23


     /tmp/ccXlATxi.s:277    .text:00000000000001b0 .L0 
     /tmp/ccXlATxi.s:279    .text:00000000000001b4 .L0 
     /tmp/ccXlATxi.s:281    .text:00000000000001b4 .L0 
     /tmp/ccXlATxi.s:284    .text:00000000000001bc .L0 
     /tmp/ccXlATxi.s:285    .text:00000000000001bc .L0 
     /tmp/ccXlATxi.s:289    .text:00000000000001cc .L0 
     /tmp/ccXlATxi.s:293    .text:00000000000001d4 .L0 
     /tmp/ccXlATxi.s:294    .text:00000000000001d4 .L0 
     /tmp/ccXlATxi.s:296    .text:00000000000001d8 .L0 
     /tmp/ccXlATxi.s:298    .text:00000000000001dc .L0 
     /tmp/ccXlATxi.s:299    .text:00000000000001dc .L0 
     /tmp/ccXlATxi.s:301    .text:00000000000001e0 .L0 
     /tmp/ccXlATxi.s:302    .text:00000000000001e0 .L0 
     /tmp/ccXlATxi.s:306    .text:00000000000001e8 .L0 
     /tmp/ccXlATxi.s:308    .text:00000000000001e8 .L0 
     /tmp/ccXlATxi.s:309    .text:00000000000001e8 .L0 
     /tmp/ccXlATxi.s:311    .text:00000000000001ec .L0 
     /tmp/ccXlATxi.s:315    .text:00000000000001f0 .L0 
     /tmp/ccXlATxi.s:316    .text:00000000000001f0 .L0 
     /tmp/ccXlATxi.s:320    .text:00000000000001f4 .L0 
     /tmp/ccXlATxi.s:321    .text:00000000000001f4 .L0 
     /tmp/ccXlATxi.s:324    .text:00000000000001fc .L0 
     /tmp/ccXlATxi.s:325    .text:00000000000001fc .L0 
     /tmp/ccXlATxi.s:332    .text:0000000000000218 .L0 
     /tmp/ccXlATxi.s:335    .text:0000000000000220 .L0 
     /tmp/ccXlATxi.s:342    .text:000000000000023c .L0 
     /tmp/ccXlATxi.s:344    .text:0000000000000240 .L0 
     /tmp/ccXlATxi.s:346    .text:0000000000000244 .L0 
     /tmp/ccXlATxi.s:347    .text:0000000000000244 .L0 
     /tmp/ccXlATxi.s:358    .text:0000000000000268 .L0 
     /tmp/ccXlATxi.s:361    .text:0000000000000270 .L0 
     /tmp/ccXlATxi.s:362    .text:0000000000000274 .L0 
     /tmp/ccXlATxi.s:364    .text:0000000000000278 .L0 
     /tmp/ccXlATxi.s:365    .text:0000000000000278 .L0 
     /tmp/ccXlATxi.s:367    .text:000000000000027c .L0 
     /tmp/ccXlATxi.s:369    .text:0000000000000280 .L0 
     /tmp/ccXlATxi.s:371    .text:0000000000000284 .L0 
     /tmp/ccXlATxi.s:377    .text:0000000000000284 kern_thread_dispatch
     /tmp/ccXlATxi.s:380    .text:0000000000000284 .L0 
     /tmp/ccXlATxi.s:381    .text:0000000000000284 .L0 
     /tmp/ccXlATxi.s:382    .text:0000000000000288 .L0 
     /tmp/ccXlATxi.s:387    .text:0000000000000298 .L0 
     /tmp/ccXlATxi.s:388    .text:0000000000000298 .L0 
     /tmp/ccXlATxi.s:389    .text:0000000000000298 .L0 
     /tmp/ccXlATxi.s:390    .text:0000000000000298 .L0 
     /tmp/ccXlATxi.s:392    .text:000000000000029c .L0 
     /tmp/ccXlATxi.s:394    .text:000000000000029c .L0 
     /tmp/ccXlATxi.s:395    .text:000000000000029c .L0 
     /tmp/ccXlATxi.s:399    .text:00000000000002a8 .L0 
     /tmp/ccXlATxi.s:400    .text:00000000000002a8 .L0 
     /tmp/ccXlATxi.s:403    .text:00000000000002b0 .L0 
     /tmp/ccXlATxi.s:405    .text:00000000000002b4 .L0 
     /tmp/ccXlATxi.s:406    .text:00000000000002b4 .L0 
     /tmp/ccXlATxi.s:409    .text:00000000000002bc .L0 
     /tmp/ccXlATxi.s:410    .text:00000000000002bc .L0 
     /tmp/ccXlATxi.s:413    .text:00000000000002c4 .L0 
     /tmp/ccXlATxi.s:414    .text:00000000000002c4 .L0 
GAS LISTING /tmp/ccXlATxi.s 			page 24


     /tmp/ccXlATxi.s:416    .text:00000000000002c8 .L0 
     /tmp/ccXlATxi.s:420    .text:00000000000002d0 .L0 
     /tmp/ccXlATxi.s:425    .text:00000000000002dc .L0 
     /tmp/ccXlATxi.s:426    .text:00000000000002e0 .L0 
     /tmp/ccXlATxi.s:427    .text:00000000000002e0 .L0 
     /tmp/ccXlATxi.s:429    .text:00000000000002e4 .L0 
     /tmp/ccXlATxi.s:430    .text:00000000000002e4 .L0 
     /tmp/ccXlATxi.s:432    .text:00000000000002e8 .L0 
     /tmp/ccXlATxi.s:435    .text:00000000000002ec .L0 
     /tmp/ccXlATxi.s:437    .text:00000000000002f0 .L0 
     /tmp/ccXlATxi.s:441    .text:00000000000002f4 .L0 
     /tmp/ccXlATxi.s:443    .text:00000000000002f4 .L0 
     /tmp/ccXlATxi.s:444    .text:00000000000002f4 .L0 
     /tmp/ccXlATxi.s:447    .text:0000000000000300 .L0 
     /tmp/ccXlATxi.s:453    .text:0000000000000300 kern_thread_end_running
     /tmp/ccXlATxi.s:456    .text:0000000000000300 .L0 
     /tmp/ccXlATxi.s:457    .text:0000000000000300 .L0 
     /tmp/ccXlATxi.s:458    .text:0000000000000304 .L0 
     /tmp/ccXlATxi.s:462    .text:0000000000000310 .L0 
     /tmp/ccXlATxi.s:463    .text:0000000000000310 .L0 
     /tmp/ccXlATxi.s:464    .text:0000000000000310 .L0 
     /tmp/ccXlATxi.s:466    .text:0000000000000314 .L0 
     /tmp/ccXlATxi.s:468    .text:0000000000000314 .L0 
     /tmp/ccXlATxi.s:469    .text:0000000000000314 .L0 
     /tmp/ccXlATxi.s:472    .text:000000000000031c .L0 
     /tmp/ccXlATxi.s:473    .text:000000000000031c .L0 
     /tmp/ccXlATxi.s:476    .text:0000000000000320 .L0 
     /tmp/ccXlATxi.s:478    .text:0000000000000320 .L0 
     /tmp/ccXlATxi.s:479    .text:0000000000000320 .L0 
     /tmp/ccXlATxi.s:481    .text:0000000000000324 .L0 
     /tmp/ccXlATxi.s:485    .text:0000000000000328 .L0 
     /tmp/ccXlATxi.s:486    .text:0000000000000328 .L0 
     /tmp/ccXlATxi.s:490    .text:000000000000032c .L0 
     /tmp/ccXlATxi.s:491    .text:000000000000032c .L0 
     /tmp/ccXlATxi.s:494    .text:0000000000000334 .L0 
     /tmp/ccXlATxi.s:495    .text:0000000000000334 .L0 
     /tmp/ccXlATxi.s:502    .text:0000000000000350 .L0 
     /tmp/ccXlATxi.s:505    .text:0000000000000358 .L0 
     /tmp/ccXlATxi.s:512    .text:0000000000000374 .L0 
     /tmp/ccXlATxi.s:514    .text:0000000000000378 .L0 
     /tmp/ccXlATxi.s:516    .text:000000000000037c .L0 
     /tmp/ccXlATxi.s:517    .text:000000000000037c .L0 
     /tmp/ccXlATxi.s:528    .text:00000000000003a0 .L0 
     /tmp/ccXlATxi.s:529    .text:00000000000003a0 .L0 
     /tmp/ccXlATxi.s:532    .text:00000000000003a8 .L0 
     /tmp/ccXlATxi.s:534    .text:00000000000003b0 .L0 
     /tmp/ccXlATxi.s:535    .text:00000000000003b0 .L0 
     /tmp/ccXlATxi.s:537    .text:00000000000003b4 .L0 
     /tmp/ccXlATxi.s:540    .text:00000000000003b8 .L0 
     /tmp/ccXlATxi.s:541    .text:00000000000003b8 .L0 
     /tmp/ccXlATxi.s:543    .text:00000000000003c0 .L0 
     /tmp/ccXlATxi.s:545    .text:00000000000003c4 .L0 
     /tmp/ccXlATxi.s:550    .text:00000000000003d0 .L0 
     /tmp/ccXlATxi.s:551    .text:00000000000003d4 .L0 
     /tmp/ccXlATxi.s:552    .text:00000000000003d4 .L0 
     /tmp/ccXlATxi.s:554    .text:00000000000003d8 .L0 
     /tmp/ccXlATxi.s:555    .text:00000000000003d8 .L0 
GAS LISTING /tmp/ccXlATxi.s 			page 25


     /tmp/ccXlATxi.s:557    .text:00000000000003dc .L0 
     /tmp/ccXlATxi.s:560    .text:00000000000003e0 .L0 
     /tmp/ccXlATxi.s:564    .text:00000000000003e4 .L0 
     /tmp/ccXlATxi.s:566    .text:00000000000003e4 .L0 
     /tmp/ccXlATxi.s:569    .text:00000000000003f0 .L0 
     /tmp/ccXlATxi.s:575    .text:00000000000003f0 kern_thread_create
     /tmp/ccXlATxi.s:578    .text:00000000000003f0 .L0 
     /tmp/ccXlATxi.s:580    .text:00000000000003f0 .L0 
     /tmp/ccXlATxi.s:581    .text:00000000000003f4 .L0 
     /tmp/ccXlATxi.s:583    .text:00000000000003f8 .L0 
     /tmp/ccXlATxi.s:585    .text:00000000000003fc .L0 
     /tmp/ccXlATxi.s:587    .text:00000000000003fc .L0 
     /tmp/ccXlATxi.s:588    .text:00000000000003fc .L0 
     /tmp/ccXlATxi.s:591    .text:0000000000000400 .L0 
     /tmp/ccXlATxi.s:593    .text:0000000000000400 .L0 
     /tmp/ccXlATxi.s:594    .text:0000000000000400 .L0 
     /tmp/ccXlATxi.s:595    .text:0000000000000400 .L0 
     /tmp/ccXlATxi.s:599    .text:0000000000000404 .L0 
     /tmp/ccXlATxi.s:600    .text:0000000000000404 .L0 
     /tmp/ccXlATxi.s:603    .text:000000000000040c .L0 
     /tmp/ccXlATxi.s:604    .text:000000000000040c .L0 
     /tmp/ccXlATxi.s:611    .text:0000000000000428 .L0 
     /tmp/ccXlATxi.s:613    .text:000000000000042c .L0 
     /tmp/ccXlATxi.s:614    .text:000000000000042c .L0 
     /tmp/ccXlATxi.s:620    .text:0000000000000434 .L0 
     /tmp/ccXlATxi.s:621    .text:0000000000000434 .L0 
     /tmp/ccXlATxi.s:626    .text:0000000000000444 .L0 
     /tmp/ccXlATxi.s:629    .text:0000000000000448 .L0 
     /tmp/ccXlATxi.s:632    .text:0000000000000448 .L0 
     /tmp/ccXlATxi.s:633    .text:0000000000000448 .L0 
     /tmp/ccXlATxi.s:634    .text:0000000000000448 .L0 
     /tmp/ccXlATxi.s:637    .text:000000000000044c .L0 
     /tmp/ccXlATxi.s:639    .text:0000000000000450 .L0 
     /tmp/ccXlATxi.s:640    .text:0000000000000450 .L0 
     /tmp/ccXlATxi.s:646    .text:0000000000000464 .L0 
     /tmp/ccXlATxi.s:649    .text:000000000000046c .L0 
     /tmp/ccXlATxi.s:650    .text:000000000000046c .L0 
     /tmp/ccXlATxi.s:653    .text:0000000000000474 .L0 
     /tmp/ccXlATxi.s:654    .text:0000000000000474 .L0 
     /tmp/ccXlATxi.s:656    .text:0000000000000478 .L0 
     /tmp/ccXlATxi.s:657    .text:0000000000000478 .L0 
     /tmp/ccXlATxi.s:660    .text:0000000000000480 .L0 
     /tmp/ccXlATxi.s:661    .text:0000000000000480 .L0 
     /tmp/ccXlATxi.s:664    .text:0000000000000488 .L0 
     /tmp/ccXlATxi.s:665    .text:0000000000000488 .L0 
     /tmp/ccXlATxi.s:667    .text:000000000000048c .L0 
     /tmp/ccXlATxi.s:668    .text:000000000000048c .L0 
     /tmp/ccXlATxi.s:670    .text:0000000000000490 .L0 
     /tmp/ccXlATxi.s:671    .text:0000000000000490 .L0 
     /tmp/ccXlATxi.s:675    .text:0000000000000498 .L0 
     /tmp/ccXlATxi.s:677    .text:000000000000049c .L0 
     /tmp/ccXlATxi.s:678    .text:000000000000049c .L0 
     /tmp/ccXlATxi.s:680    .text:00000000000004a4 .L0 
     /tmp/ccXlATxi.s:682    .text:00000000000004a8 .L0 
     /tmp/ccXlATxi.s:683    .text:00000000000004a8 .L0 
     /tmp/ccXlATxi.s:685    .text:00000000000004ac .L0 
     /tmp/ccXlATxi.s:686    .text:00000000000004ac .L0 
GAS LISTING /tmp/ccXlATxi.s 			page 26


     /tmp/ccXlATxi.s:688    .text:00000000000004b0 .L0 
     /tmp/ccXlATxi.s:689    .text:00000000000004b0 .L0 
     /tmp/ccXlATxi.s:693    .text:00000000000004b4 .L0 
     /tmp/ccXlATxi.s:694    .text:00000000000004b8 .L0 
     /tmp/ccXlATxi.s:695    .text:00000000000004b8 .L0 
     /tmp/ccXlATxi.s:696    .text:00000000000004b8 .L0 
     /tmp/ccXlATxi.s:698    .text:00000000000004bc .L0 
     /tmp/ccXlATxi.s:702    .text:00000000000004c0 .L0 
     /tmp/ccXlATxi.s:704    .text:00000000000004c0 .L0 
     /tmp/ccXlATxi.s:709    .text:00000000000004cc .L0 
     /tmp/ccXlATxi.s:712    .text:00000000000004d4 .L0 
     /tmp/ccXlATxi.s:718    .text:00000000000004d4 kern_thread_join
     /tmp/ccXlATxi.s:721    .text:00000000000004d4 .L0 
     /tmp/ccXlATxi.s:723    .text:00000000000004d4 .L0 
     /tmp/ccXlATxi.s:724    .text:00000000000004d4 .L0 
     /tmp/ccXlATxi.s:725    .text:00000000000004d4 .L0 
     /tmp/ccXlATxi.s:727    .text:00000000000004d8 .L0 
     /tmp/ccXlATxi.s:731    .text:00000000000004e0 .L0 
     /tmp/ccXlATxi.s:732    .text:00000000000004e4 .L0 
     /tmp/ccXlATxi.s:735    .text:00000000000004ec .L0 
     /tmp/ccXlATxi.s:736    .text:00000000000004ec .L0 
     /tmp/ccXlATxi.s:738    .text:00000000000004f0 .L0 
     /tmp/ccXlATxi.s:740    .text:00000000000004f0 .L0 
     /tmp/ccXlATxi.s:741    .text:00000000000004f0 .L0 
     /tmp/ccXlATxi.s:743    .text:00000000000004f8 .L0 
     /tmp/ccXlATxi.s:745    .text:00000000000004fc .L0 
     /tmp/ccXlATxi.s:747    .text:0000000000000500 .L0 
     /tmp/ccXlATxi.s:748    .text:0000000000000500 .L0 
     /tmp/ccXlATxi.s:751    .text:0000000000000508 .L0 
     /tmp/ccXlATxi.s:754    .text:0000000000000510 .L0 
     /tmp/ccXlATxi.s:755    .text:0000000000000514 .L0 
     /tmp/ccXlATxi.s:757    .text:0000000000000518 .L0 
     /tmp/ccXlATxi.s:758    .text:0000000000000518 .L0 
     /tmp/ccXlATxi.s:760    .text:000000000000051c .L0 
     /tmp/ccXlATxi.s:762    .text:0000000000000520 .L0 
     /tmp/ccXlATxi.s:768    .text:0000000000000520 kern_thread_wakeup
     /tmp/ccXlATxi.s:771    .text:0000000000000520 .L0 
     /tmp/ccXlATxi.s:773    .text:0000000000000520 .L0 
     /tmp/ccXlATxi.s:774    .text:0000000000000524 .L0 
     /tmp/ccXlATxi.s:776    .text:0000000000000528 .L0 
     /tmp/ccXlATxi.s:778    .text:000000000000052c .L0 
     /tmp/ccXlATxi.s:781    .text:000000000000052c .L0 
     /tmp/ccXlATxi.s:783    .text:000000000000052c .L0 
     /tmp/ccXlATxi.s:784    .text:000000000000052c .L0 
     /tmp/ccXlATxi.s:786    .text:0000000000000530 .L0 
     /tmp/ccXlATxi.s:790    .text:0000000000000534 .L0 
     /tmp/ccXlATxi.s:791    .text:0000000000000534 .L0 
     /tmp/ccXlATxi.s:795    .text:0000000000000538 .L0 
     /tmp/ccXlATxi.s:796    .text:0000000000000538 .L0 
     /tmp/ccXlATxi.s:799    .text:0000000000000540 .L0 
     /tmp/ccXlATxi.s:800    .text:0000000000000540 .L0 
     /tmp/ccXlATxi.s:807    .text:000000000000055c .L0 
     /tmp/ccXlATxi.s:810    .text:0000000000000564 .L0 
     /tmp/ccXlATxi.s:817    .text:0000000000000580 .L0 
     /tmp/ccXlATxi.s:819    .text:0000000000000584 .L0 
     /tmp/ccXlATxi.s:820    .text:0000000000000584 .L0 
     /tmp/ccXlATxi.s:830    .text:00000000000005a0 .L0 
GAS LISTING /tmp/ccXlATxi.s 			page 27


     /tmp/ccXlATxi.s:831    .text:00000000000005a4 .L0 
     /tmp/ccXlATxi.s:832    .text:00000000000005a4 .L0 
     /tmp/ccXlATxi.s:834    .text:00000000000005a8 .L0 
     /tmp/ccXlATxi.s:836    .text:00000000000005ac .L0 
     /tmp/ccXlATxi.s:868    .text:00000000000005ac .L0 
                     .debug_frame:0000000000000000 .L0 
     /tmp/ccXlATxi.s:23     .text:000000000000000c .L0 
     /tmp/ccXlATxi.s:39     .text:0000000000000028 .L0 
     /tmp/ccXlATxi.s:54     .text:0000000000000044 .L0 
     /tmp/ccXlATxi.s:70     .text:0000000000000064 .L0 
     /tmp/ccXlATxi.s:96     .text:0000000000000084 .L0 
     /tmp/ccXlATxi.s:97     .text:000000000000008c .L0 
     /tmp/ccXlATxi.s:843    .srodata.cst8:0000000000000000 .LC0
     /tmp/ccXlATxi.s:101    .text:000000000000009c .L0 
     /tmp/ccXlATxi.s:130    .text:00000000000000d8 .L0 
     /tmp/ccXlATxi.s:145    .text:00000000000000f8 .L0 
     /tmp/ccXlATxi.s:285    .text:00000000000001bc .L0 
     /tmp/ccXlATxi.s:328    .text:0000000000000208 .L0 
     /tmp/ccXlATxi.s:338    .text:000000000000022c .L0 
     /tmp/ccXlATxi.s:350    .text:0000000000000250 .L0 
     /tmp/ccXlATxi.s:395    .text:000000000000029c .L0 
     /tmp/ccXlATxi.s:469    .text:0000000000000314 .L0 
     /tmp/ccXlATxi.s:498    .text:0000000000000340 .L0 
     /tmp/ccXlATxi.s:508    .text:0000000000000364 .L0 
     /tmp/ccXlATxi.s:520    .text:0000000000000388 .L0 
     /tmp/ccXlATxi.s:532    .text:00000000000003a8 .L0 
     /tmp/ccXlATxi.s:541    .text:00000000000003b8 .L0 
     /tmp/ccXlATxi.s:607    .text:0000000000000418 .L0 
     /tmp/ccXlATxi.s:640    .text:0000000000000450 .L0 
     /tmp/ccXlATxi.s:678    .text:000000000000049c .L0 
     /tmp/ccXlATxi.s:704    .text:00000000000004c0 .L0 
     /tmp/ccXlATxi.s:741    .text:00000000000004f0 .L0 
     /tmp/ccXlATxi.s:803    .text:000000000000054c .L0 
     /tmp/ccXlATxi.s:813    .text:0000000000000570 .L0 
     /tmp/ccXlATxi.s:46     .text:000000000000003c .L2
     /tmp/ccXlATxi.s:33     .text:000000000000001c .L3
     /tmp/ccXlATxi.s:167    .text:0000000000000128 .L12
     /tmp/ccXlATxi.s:142    .text:00000000000000f8 .L13
     /tmp/ccXlATxi.s:110    .text:00000000000000ac .L6
     /tmp/ccXlATxi.s:181    .text:0000000000000140 .L14
     /tmp/ccXlATxi.s:156    .text:000000000000011c .L5
     /tmp/ccXlATxi.s:318    .text:00000000000001f4 .L20
     /tmp/ccXlATxi.s:355    .text:0000000000000268 .L24
     /tmp/ccXlATxi.s:313    .text:00000000000001f0 .L21
     /tmp/ccXlATxi.s:423    .text:00000000000002dc .L25
     /tmp/ccXlATxi.s:440    .text:00000000000002f4 .L29
     /tmp/ccXlATxi.s:418    .text:00000000000002d0 .L27
     /tmp/ccXlATxi.s:488    .text:000000000000032c .L31
     /tmp/ccXlATxi.s:525    .text:00000000000003a0 .L37
     /tmp/ccXlATxi.s:483    .text:0000000000000328 .L32
     /tmp/ccXlATxi.s:563    .text:00000000000003e4 .L38
     /tmp/ccXlATxi.s:548    .text:00000000000003d0 .L30
     /tmp/ccXlATxi.s:538    .text:00000000000003b8 .L34
     /tmp/ccXlATxi.s:701    .text:00000000000004c0 .L47
     /tmp/ccXlATxi.s:618    .text:0000000000000434 .L48
     /tmp/ccXlATxi.s:597    .text:0000000000000404 .L40
     /tmp/ccXlATxi.s:707    .text:00000000000004cc .L45
GAS LISTING /tmp/ccXlATxi.s 			page 28


     /tmp/ccXlATxi.s:630    .text:0000000000000448 .L42
     /tmp/ccXlATxi.s:691    .text:00000000000004b4 .L44
     /tmp/ccXlATxi.s:729    .text:00000000000004e0 .L55
     /tmp/ccXlATxi.s:793    .text:0000000000000538 .L57
     /tmp/ccXlATxi.s:827    .text:00000000000005a0 .L61
     /tmp/ccXlATxi.s:788    .text:0000000000000534 .L58
     /tmp/ccXlATxi.s:1551   .debug_abbrev:0000000000000000 .Ldebug_abbrev0
     /tmp/ccXlATxi.s:2450   .debug_str:00000000000001f0 .LASF64
     /tmp/ccXlATxi.s:2396   .debug_str:00000000000000a6 .LASF65
     /tmp/ccXlATxi.s:2486   .debug_str:000000000000036f .LASF66
     /tmp/ccXlATxi.s:5      .text:0000000000000000 .Ltext0
     /tmp/ccXlATxi.s:862    .text:00000000000005ac .Letext0
     /tmp/ccXlATxi.s:2368   .debug_line:0000000000000000 .Ldebug_line0
     /tmp/ccXlATxi.s:2452   .debug_str:000000000000028e .LASF0
     /tmp/ccXlATxi.s:2426   .debug_str:0000000000000162 .LASF1
     /tmp/ccXlATxi.s:2414   .debug_str:0000000000000118 .LASF2
     /tmp/ccXlATxi.s:2388   .debug_str:000000000000007e .LASF4
     /tmp/ccXlATxi.s:2422   .debug_str:0000000000000147 .LASF3
     /tmp/ccXlATxi.s:2374   .debug_str:000000000000001c .LASF5
     /tmp/ccXlATxi.s:2372   .debug_str:0000000000000009 .LASF6
     /tmp/ccXlATxi.s:2408   .debug_str:00000000000000f1 .LASF7
     /tmp/ccXlATxi.s:2462   .debug_str:00000000000002d8 .LASF8
     /tmp/ccXlATxi.s:2386   .debug_str:0000000000000070 .LASF9
     /tmp/ccXlATxi.s:2508   .debug_str:0000000000000407 .LASF10
     /tmp/ccXlATxi.s:2410   .debug_str:0000000000000104 .LASF11
     /tmp/ccXlATxi.s:2494   .debug_str:00000000000003ae .LASF12
     /tmp/ccXlATxi.s:2470   .debug_str:0000000000000312 .LASF13
     /tmp/ccXlATxi.s:2430   .debug_str:0000000000000188 .LASF14
     /tmp/ccXlATxi.s:2398   .debug_str:00000000000000b9 .LASF15
     /tmp/ccXlATxi.s:2464   .debug_str:00000000000002e8 .LASF16
     /tmp/ccXlATxi.s:2440   .debug_str:00000000000001b4 .LASF34
     /tmp/ccXlATxi.s:2480   .debug_str:0000000000000352 .LASF17
     /tmp/ccXlATxi.s:2496   .debug_str:00000000000003be .LASF18
     /tmp/ccXlATxi.s:2418   .debug_str:000000000000012d .LASF19
     /tmp/ccXlATxi.s:2436   .debug_str:00000000000001a5 .LASF20
     /tmp/ccXlATxi.s:2416   .debug_str:0000000000000126 .LASF21
     /tmp/ccXlATxi.s:2404   .debug_str:00000000000000e3 .LASF22
     /tmp/ccXlATxi.s:2390   .debug_str:0000000000000085 .LASF67
     /tmp/ccXlATxi.s:2438   .debug_str:00000000000001af .LASF23
     /tmp/ccXlATxi.s:2444   .debug_str:00000000000001cf .LASF24
     /tmp/ccXlATxi.s:2474   .debug_str:0000000000000330 .LASF25
     /tmp/ccXlATxi.s:2476   .debug_str:000000000000033a .LASF26
     /tmp/ccXlATxi.s:2454   .debug_str:000000000000029b .LASF27
     /tmp/ccXlATxi.s:2448   .debug_str:00000000000001e8 .LASF28
     /tmp/ccXlATxi.s:2400   .debug_str:00000000000000cf .LASF29
     /tmp/ccXlATxi.s:2492   .debug_str:00000000000003a5 .LASF30
     /tmp/ccXlATxi.s:2466   .debug_str:00000000000002fe .LASF31
     /tmp/ccXlATxi.s:2376   .debug_str:0000000000000023 .LASF32
     /tmp/ccXlATxi.s:2484   .debug_str:0000000000000367 .LASF33
     /tmp/ccXlATxi.s:2446   .debug_str:00000000000001da .LASF35
     /tmp/ccXlATxi.s:2434   .debug_str:000000000000019b .LASF36
     /tmp/ccXlATxi.s:2498   .debug_str:00000000000003c6 .LASF37
     /tmp/ccXlATxi.s:2482   .debug_str:0000000000000359 .LASF38
     /tmp/ccXlATxi.s:2488   .debug_str:0000000000000386 .LASF39
     /tmp/ccXlATxi.s:2478   .debug_str:0000000000000342 .LASF40
     /tmp/ccXlATxi.s:2502   .debug_str:00000000000003e0 .LASF41
     /tmp/ccXlATxi.s:2370   .debug_str:0000000000000000 .LASF42
GAS LISTING /tmp/ccXlATxi.s 			page 29


     /tmp/ccXlATxi.s:2506   .debug_str:00000000000003fd .LASF43
     /tmp/ccXlATxi.s:2424   .debug_str:0000000000000159 .LASF44
     /tmp/ccXlATxi.s:2458   .debug_str:00000000000002b5 .LASF45
     /tmp/ccXlATxi.s:2380   .debug_str:000000000000003e .LASF46
     /tmp/ccXlATxi.s:2412   .debug_str:0000000000000113 .LASF47
     /tmp/ccXlATxi.s:2406   .debug_str:00000000000000ec .LASF48
     /tmp/ccXlATxi.s:2490   .debug_str:0000000000000392 .LASF49
     /tmp/ccXlATxi.s:769    .text:0000000000000520 .LFB9
     /tmp/ccXlATxi.s:837    .text:00000000000005ac .LFE9
     /tmp/ccXlATxi.s:2392   .debug_str:000000000000008e .LASF51
     /tmp/ccXlATxi.s:780    .text:000000000000052c .LBB7
     /tmp/ccXlATxi.s:828    .text:00000000000005a0 .LBE7
     /tmp/ccXlATxi.s:2149   .debug_loc:0000000000000000 .LLST12
     /tmp/ccXlATxi.s:2500   .debug_str:00000000000003cf .LASF50
     /tmp/ccXlATxi.s:719    .text:00000000000004d4 .LFB8
     /tmp/ccXlATxi.s:763    .text:0000000000000520 .LFE8
     /tmp/ccXlATxi.s:2432   .debug_str:0000000000000194 .LASF52
     /tmp/ccXlATxi.s:2161   .debug_loc:0000000000000037 .LLST11
     /tmp/ccXlATxi.s:752    .text:0000000000000510 .LVL47
     /tmp/ccXlATxi.s:2378   .debug_str:000000000000002b .LASF68
     /tmp/ccXlATxi.s:576    .text:00000000000003f0 .LFB7
     /tmp/ccXlATxi.s:713    .text:00000000000004d4 .LFE7
     /tmp/ccXlATxi.s:2175   .debug_loc:0000000000000070 .LLST7
     /tmp/ccXlATxi.s:2442   .debug_str:00000000000001c1 .LASF53
     /tmp/ccXlATxi.s:2200   .debug_loc:00000000000000d2 .LLST8
     /tmp/ccXlATxi.s:2223   .debug_loc:0000000000000133 .LLST9
     /tmp/ccXlATxi.s:592    .text:0000000000000400 .LBB6
     /tmp/ccXlATxi.s:631    .text:0000000000000448 .LBE6
     /tmp/ccXlATxi.s:2246   .debug_loc:00000000000001a1 .LLST10
     /tmp/ccXlATxi.s:2420   .debug_str:0000000000000133 .LASF54
     /tmp/ccXlATxi.s:267    .text:00000000000001a0 .LFB6
     /tmp/ccXlATxi.s:372    .text:0000000000000284 .LFE6
     /tmp/ccXlATxi.s:305    .text:00000000000001e8 .LBB4
     /tmp/ccXlATxi.s:356    .text:0000000000000268 .LBE4
     /tmp/ccXlATxi.s:2266   .debug_loc:00000000000001fe .LLST3
     /tmp/ccXlATxi.s:282    .text:00000000000001bc .LVL13
     /tmp/ccXlATxi.s:359    .text:0000000000000270 .LVL18
     /tmp/ccXlATxi.s:2460   .debug_str:00000000000002c0 .LASF55
     /tmp/ccXlATxi.s:454    .text:0000000000000300 .LFB5
     /tmp/ccXlATxi.s:570    .text:00000000000003f0 .LFE5
     /tmp/ccXlATxi.s:2278   .debug_loc:0000000000000235 .LLST5
     /tmp/ccXlATxi.s:475    .text:0000000000000320 .LBB5
     /tmp/ccXlATxi.s:526    .text:00000000000003a0 .LBE5
     /tmp/ccXlATxi.s:2289   .debug_loc:000000000000026b .LLST6
     /tmp/ccXlATxi.s:530    .text:00000000000003a8 .LVL28
     /tmp/ccXlATxi.s:547    .text:00000000000003d0 .LVL29
     /tmp/ccXlATxi.s:567    .text:00000000000003ec .LVL32
     /tmp/ccXlATxi.s:2384   .debug_str:000000000000005b .LASF56
     /tmp/ccXlATxi.s:378    .text:0000000000000284 .LFB4
     /tmp/ccXlATxi.s:448    .text:0000000000000300 .LFE4
     /tmp/ccXlATxi.s:2301   .debug_loc:00000000000002a2 .LLST4
     /tmp/ccXlATxi.s:401    .text:00000000000002b0 .LVL20
     /tmp/ccXlATxi.s:422    .text:00000000000002dc .LVL21
     /tmp/ccXlATxi.s:2468   .debug_str:0000000000000307 .LASF69
     /tmp/ccXlATxi.s:227    .text:0000000000000178 .LFB3
     /tmp/ccXlATxi.s:261    .text:00000000000001a0 .LFE3
     /tmp/ccXlATxi.s:2382   .debug_str:0000000000000049 .LASF57
GAS LISTING /tmp/ccXlATxi.s 			page 30


     /tmp/ccXlATxi.s:196    .text:000000000000014c .LFB2
     /tmp/ccXlATxi.s:221    .text:0000000000000178 .LFE2
     /tmp/ccXlATxi.s:210    .text:0000000000000168 .LVL12
     /tmp/ccXlATxi.s:2428   .debug_str:0000000000000175 .LASF58
     /tmp/ccXlATxi.s:85     .text:0000000000000078 .LFB1
     /tmp/ccXlATxi.s:190    .text:000000000000014c .LFE1
     /tmp/ccXlATxi.s:2312   .debug_loc:00000000000002d8 .LLST1
     /tmp/ccXlATxi.s:105    .text:00000000000000a8 .LBB3
     /tmp/ccXlATxi.s:157    .text:000000000000011c .LBE3
     /tmp/ccXlATxi.s:2323   .debug_loc:000000000000030e .LLST2
     /tmp/ccXlATxi.s:2504   .debug_str:00000000000003ec .LASF59
     /tmp/ccXlATxi.s:11     .text:0000000000000000 .LFB0
     /tmp/ccXlATxi.s:79     .text:0000000000000078 .LFE0
     /tmp/ccXlATxi.s:25     .text:0000000000000014 .LBB2
     /tmp/ccXlATxi.s:51     .text:0000000000000044 .LBE2
     /tmp/ccXlATxi.s:2343   .debug_loc:000000000000036b .LLST0
     /tmp/ccXlATxi.s:2394   .debug_str:000000000000009a .LASF60
     /tmp/ccXlATxi.s:2472   .debug_str:0000000000000322 .LASF61
     /tmp/ccXlATxi.s:2456   .debug_str:00000000000002a7 .LASF62
     /tmp/ccXlATxi.s:2402   .debug_str:00000000000000d6 .LASF63
     /tmp/ccXlATxi.s:782    .text:000000000000052c .LVL49
     /tmp/ccXlATxi.s:787    .text:0000000000000534 .LVL50
     /tmp/ccXlATxi.s:722    .text:00000000000004d4 .LVL46
     /tmp/ccXlATxi.s:579    .text:00000000000003f0 .LVL33
     /tmp/ccXlATxi.s:641    .text:0000000000000458 .LVL40
     /tmp/ccXlATxi.s:700    .text:00000000000004c0 .LVL43
     /tmp/ccXlATxi.s:710    .text:00000000000004d0 .LVL45
     /tmp/ccXlATxi.s:673    .text:0000000000000498 .LVL41
     /tmp/ccXlATxi.s:690    .text:00000000000004b4 .LVL42
     /tmp/ccXlATxi.s:590    .text:0000000000000400 .LVL34
     /tmp/ccXlATxi.s:628    .text:0000000000000448 .LVL38
     /tmp/ccXlATxi.s:706    .text:00000000000004cc .LVL44
     /tmp/ccXlATxi.s:596    .text:0000000000000404 .LVL35
     /tmp/ccXlATxi.s:615    .text:0000000000000430 .LVL36
     /tmp/ccXlATxi.s:617    .text:0000000000000434 .LVL37
     /tmp/ccXlATxi.s:635    .text:000000000000044c .LVL39
     /tmp/ccXlATxi.s:307    .text:00000000000001e8 .LVL15
     /tmp/ccXlATxi.s:312    .text:00000000000001f0 .LVL16
     /tmp/ccXlATxi.s:470    .text:000000000000031c .LVL24
     /tmp/ccXlATxi.s:558    .text:00000000000003dc .LVL30
     /tmp/ccXlATxi.s:562    .text:00000000000003e4 .LVL31
     /tmp/ccXlATxi.s:477    .text:0000000000000320 .LVL25
     /tmp/ccXlATxi.s:482    .text:0000000000000328 .LVL26
     /tmp/ccXlATxi.s:397    .text:00000000000002a8 .LVL19
     /tmp/ccXlATxi.s:433    .text:00000000000002e8 .LVL22
     /tmp/ccXlATxi.s:439    .text:00000000000002f4 .LVL23
     /tmp/ccXlATxi.s:103    .text:00000000000000a8 .LVL4
     /tmp/ccXlATxi.s:118    .text:00000000000000b8 .LVL6
     /tmp/ccXlATxi.s:166    .text:0000000000000128 .LVL10
     /tmp/ccXlATxi.s:172    .text:000000000000012c .LVL11
     /tmp/ccXlATxi.s:109    .text:00000000000000ac .LVL5
     /tmp/ccXlATxi.s:139    .text:00000000000000f4 .LVL7
     /tmp/ccXlATxi.s:141    .text:00000000000000f8 .LVL8
     /tmp/ccXlATxi.s:149    .text:000000000000010c .LVL9
     /tmp/ccXlATxi.s:27     .text:0000000000000014 .LVL0
     /tmp/ccXlATxi.s:32     .text:000000000000001c .LVL1
     /tmp/ccXlATxi.s:55     .text:000000000000004c .LVL3
GAS LISTING /tmp/ccXlATxi.s 			page 31


     /tmp/ccXlATxi.s:869    .debug_info:0000000000000000 .Ldebug_info0

UNDEFINED SYMBOLS
kern_syscall
thread_exit
contextSwitch
kern_mem_free
