GAS LISTING /tmp/ccO5XAsk.s 			page 1


   1              		.file	"kern_threads.cpp"
   2              		.option pic
   3              		.option norelax
   4              		.text
   5              	.Ltext0:
   6              		.align	2
   7              		.globl	_Z16kern_thread_ctorPv
   9              	_Z16kern_thread_ctorPv:
  10              	.LFB45:
  11              		.file 1 "src/kern_threads.cpp"
   1:src/kern_threads.cpp **** //
   2:src/kern_threads.cpp **** // Created by os on 5/22/23.
   3:src/kern_threads.cpp **** //
   4:src/kern_threads.cpp **** 
   5:src/kern_threads.cpp **** #include "../h/kern_threads.hpp"
   6:src/kern_threads.cpp **** #include "../h/kern_interrupts.hpp"
   7:src/kern_threads.cpp **** #include "../lib/hw.h"
   8:src/kern_threads.cpp **** #include "../h/kern_memory.hpp"
   9:src/kern_threads.cpp **** #include "../h/syscall_c.h"
  10:src/kern_threads.cpp **** #include "../h/kern_reg_util.h"
  11:src/kern_threads.cpp **** #include "../h/kern_slab.hpp"
  12:src/kern_threads.cpp **** #include "../h/printing.hpp"
  13:src/kern_threads.cpp **** 
  14:src/kern_threads.cpp **** 
  15:src/kern_threads.cpp **** typedef struct thread_s* thread_t;
  16:src/kern_threads.cpp **** 
  17:src/kern_threads.cpp **** kmem_cache_t* threads_cache;
  18:src/kern_threads.cpp **** static int id;
  19:src/kern_threads.cpp **** struct thread_s* running;
  20:src/kern_threads.cpp **** struct {
  21:src/kern_threads.cpp ****     thread_t ready_head;
  22:src/kern_threads.cpp ****     thread_t ready_tail;
  23:src/kern_threads.cpp ****     thread_t joined_head;
  24:src/kern_threads.cpp ****     thread_t sleeping_head;
  25:src/kern_threads.cpp **** } scheduler;
  26:src/kern_threads.cpp **** 
  27:src/kern_threads.cpp **** void kern_thread_yield();
  28:src/kern_threads.cpp **** 
  29:src/kern_threads.cpp **** void kern_thread_ctor(void* addr){
  12              		.loc 1 29 34
  13              		.cfi_startproc
  14              	.LVL0:
  15 0000 130101FF 		addi	sp,sp,-16
  16              		.cfi_def_cfa_offset 16
  17 0004 23348100 		sd	s0,8(sp)
  18              		.cfi_offset 8, -8
  19 0008 13040101 		addi	s0,sp,16
  20              		.cfi_def_cfa 8, 0
  30:src/kern_threads.cpp ****     thread_t t = (thread_t)addr;
  21              		.loc 1 30 5
  22              	.LVL1:
  31:src/kern_threads.cpp ****     t->status=UNUSED;
  23              		.loc 1 31 5
  24              		.loc 1 31 14 is_stmt 0
  25 000c 23280504 		sw	zero,80(a0)
  32:src/kern_threads.cpp ****     t->stack_space=0;
  26              		.loc 1 32 5 is_stmt 1
GAS LISTING /tmp/ccO5XAsk.s 			page 2


  27              		.loc 1 32 19 is_stmt 0
  28 0010 23300504 		sd	zero,64(a0)
  33:src/kern_threads.cpp ****     t->arg=0;
  29              		.loc 1 33 5 is_stmt 1
  30              		.loc 1 33 11 is_stmt 0
  31 0014 23300502 		sd	zero,32(a0)
  34:src/kern_threads.cpp ****     t->joined_tid=-1;
  32              		.loc 1 34 5 is_stmt 1
  33              		.loc 1 34 18 is_stmt 0
  34 0018 9307F0FF 		li	a5,-1
  35 001c 2334F502 		sd	a5,40(a0)
  35:src/kern_threads.cpp ****     t->timeslice=DEFAULT_TIME_SLICE;
  36              		.loc 1 35 5 is_stmt 1
  37              		.loc 1 35 17 is_stmt 0
  38 0020 93072000 		li	a5,2
  39 0024 2338F502 		sd	a5,48(a0)
  36:src/kern_threads.cpp ****     t->body=0;
  40              		.loc 1 36 5 is_stmt 1
  41              		.loc 1 36 12 is_stmt 0
  42 0028 233C0500 		sd	zero,24(a0)
  37:src/kern_threads.cpp ****     t->stack_space = 0;
  43              		.loc 1 37 5 is_stmt 1
  38:src/kern_threads.cpp ****     t->sp =0;
  44              		.loc 1 38 5
  45              		.loc 1 38 11 is_stmt 0
  46 002c 23340500 		sd	zero,8(a0)
  39:src/kern_threads.cpp ****     t->ra=0;
  47              		.loc 1 39 5 is_stmt 1
  48              		.loc 1 39 10 is_stmt 0
  49 0030 23300500 		sd	zero,0(a0)
  40:src/kern_threads.cpp ****     t->sem_next=0;
  50              		.loc 1 40 5 is_stmt 1
  51              		.loc 1 40 16 is_stmt 0
  52 0034 233C0504 		sd	zero,88(a0)
  41:src/kern_threads.cpp ****     t->next_thread=0;
  53              		.loc 1 41 5 is_stmt 1
  54              		.loc 1 41 19 is_stmt 0
  55 0038 23300506 		sd	zero,96(a0)
  42:src/kern_threads.cpp ****     t->mailbox=0;
  56              		.loc 1 42 5 is_stmt 1
  57              		.loc 1 42 15 is_stmt 0
  58 003c 23340504 		sd	zero,72(a0)
  43:src/kern_threads.cpp **** }
  59              		.loc 1 43 1
  60 0040 03348100 		ld	s0,8(sp)
  61              		.cfi_restore 8
  62              		.cfi_def_cfa 2, 16
  63 0044 13010101 		addi	sp,sp,16
  64              		.cfi_def_cfa_offset 0
  65 0048 67800000 		jr	ra
  66              		.cfi_endproc
  67              	.LFE45:
  69              		.section	.rodata.str1.8,"aMS",@progbits,1
  70              		.align	3
  71              	.LC0:
  72 0000 0A204465 		.string	"\n Destroying thread id=%d\n"
  72      7374726F 
GAS LISTING /tmp/ccO5XAsk.s 			page 3


  72      79696E67 
  72      20746872 
  72      65616420 
  73              		.text
  74              		.align	2
  75              		.globl	_Z16kern_thread_dtorPv
  77              	_Z16kern_thread_dtorPv:
  78              	.LFB46:
  44:src/kern_threads.cpp **** 
  45:src/kern_threads.cpp **** void kern_thread_dtor(void* addr)
  46:src/kern_threads.cpp **** {
  79              		.loc 1 46 1 is_stmt 1
  80              		.cfi_startproc
  81              	.LVL2:
  82 004c 130101FF 		addi	sp,sp,-16
  83              		.cfi_def_cfa_offset 16
  84 0050 23341100 		sd	ra,8(sp)
  85 0054 23308100 		sd	s0,0(sp)
  86              		.cfi_offset 1, -8
  87              		.cfi_offset 8, -16
  88 0058 13040101 		addi	s0,sp,16
  89              		.cfi_def_cfa 8, 0
  47:src/kern_threads.cpp ****     thread_t t = (thread_t)addr;
  90              		.loc 1 47 5
  91              	.LVL3:
  48:src/kern_threads.cpp ****     printf("\n Destroying thread id=%d\n",t->id);
  92              		.loc 1 48 5
  93              		.loc 1 48 11 is_stmt 0
  94 005c 83350501 		ld	a1,16(a0)
  95 0060 17050000 		lla	a0,.LC0
  95      13050500 
  96              	.LVL4:
  97 0068 97000000 		call	_Z6printfPKcz@plt
  97      E7800000 
  98              	.LVL5:
  49:src/kern_threads.cpp **** }
  99              		.loc 1 49 1
 100 0070 83308100 		ld	ra,8(sp)
 101              		.cfi_restore 1
 102 0074 03340100 		ld	s0,0(sp)
 103              		.cfi_restore 8
 104              		.cfi_def_cfa 2, 16
 105 0078 13010101 		addi	sp,sp,16
 106              		.cfi_def_cfa_offset 0
 107 007c 67800000 		jr	ra
 108              		.cfi_endproc
 109              	.LFE46:
 111              		.section	.rodata.str1.8
 112 001b 00000000 		.align	3
 112      00
 113              	.LC1:
 114 0020 74687265 		.string	"thread cache"
 114      61642063 
 114      61636865 
 114      00
 115              		.text
 116              		.align	2
GAS LISTING /tmp/ccO5XAsk.s 			page 4


 117              		.globl	_Z16kern_thread_initv
 119              	_Z16kern_thread_initv:
 120              	.LFB47:
  50:src/kern_threads.cpp **** void kern_thread_init()
  51:src/kern_threads.cpp **** {
 121              		.loc 1 51 1 is_stmt 1
 122              		.cfi_startproc
 123 0080 130101FE 		addi	sp,sp,-32
 124              		.cfi_def_cfa_offset 32
 125 0084 233C1100 		sd	ra,24(sp)
 126 0088 23388100 		sd	s0,16(sp)
 127 008c 23349100 		sd	s1,8(sp)
 128              		.cfi_offset 1, -8
 129              		.cfi_offset 8, -16
 130              		.cfi_offset 9, -24
 131 0090 13040102 		addi	s0,sp,32
 132              		.cfi_def_cfa 8, 0
  52:src/kern_threads.cpp ****     threads_cache=kmem_cache_create("thread cache", sizeof(thread_s),kern_thread_ctor,kern_thread_d
 133              		.loc 1 52 5
 134              		.loc 1 52 36 is_stmt 0
 135 0094 97060000 		lla	a3,_Z16kern_thread_dtorPv
 135      93860600 
 136 009c 17060000 		lla	a2,_Z16kern_thread_ctorPv
 136      13060600 
 137 00a4 93058006 		li	a1,104
 138 00a8 17050000 		lla	a0,.LC1
 138      13050500 
 139 00b0 97000000 		call	_Z17kmem_cache_createPKcmPFvPvES3_@plt
 139      E7800000 
 140              	.LVL6:
 141              		.loc 1 52 18
 142 00b8 97040000 		lla	s1,.LANCHOR0
 142      93840400 
 143 00c0 23B0A400 		sd	a0,0(s1)
  53:src/kern_threads.cpp ****     id=0;
 144              		.loc 1 53 5 is_stmt 1
 145              		.loc 1 53 7 is_stmt 0
 146 00c4 23A40400 		sw	zero,8(s1)
  54:src/kern_threads.cpp ****     /*
  55:src/kern_threads.cpp ****     for (int i=0;i<MAX_THREADS;i++){
  56:src/kern_threads.cpp ****         kthreads[i].status=UNUSED;
  57:src/kern_threads.cpp ****     }
  58:src/kern_threads.cpp ****     */
  59:src/kern_threads.cpp ****     //set main thread
  60:src/kern_threads.cpp ****     thread_t main_thread = (thread_t) kmem_cache_alloc(threads_cache);
 147              		.loc 1 60 5 is_stmt 1
 148              		.loc 1 60 55 is_stmt 0
 149 00c8 97000000 		call	_Z16kmem_cache_allocP12kmem_cache_s@plt
 149      E7800000 
 150              	.LVL7:
  61:src/kern_threads.cpp ****     main_thread->status=RUNNING;
 151              		.loc 1 61 5 is_stmt 1
 152              		.loc 1 61 24 is_stmt 0
 153 00d0 93071000 		li	a5,1
 154 00d4 2328F504 		sw	a5,80(a0)
  62:src/kern_threads.cpp ****     main_thread->id=0;
 155              		.loc 1 62 5 is_stmt 1
GAS LISTING /tmp/ccO5XAsk.s 			page 5


 156              		.loc 1 62 20 is_stmt 0
 157 00d8 23380500 		sd	zero,16(a0)
  63:src/kern_threads.cpp ****     main_thread->timeslice=DEFAULT_TIME_SLICE+2;
 158              		.loc 1 63 5 is_stmt 1
 159              		.loc 1 63 27 is_stmt 0
 160 00dc 93074000 		li	a5,4
 161 00e0 2338F502 		sd	a5,48(a0)
  64:src/kern_threads.cpp ****     main_thread->endTime=0;
 162              		.loc 1 64 5 is_stmt 1
 163              		.loc 1 64 25 is_stmt 0
 164 00e4 233C0502 		sd	zero,56(a0)
  65:src/kern_threads.cpp ****     main_thread->next_thread=0;
 165              		.loc 1 65 5 is_stmt 1
 166              		.loc 1 65 29 is_stmt 0
 167 00e8 23300506 		sd	zero,96(a0)
  66:src/kern_threads.cpp ****     running=main_thread;
 168              		.loc 1 66 5 is_stmt 1
 169              		.loc 1 66 12 is_stmt 0
 170 00ec 23B8A400 		sd	a0,16(s1)
  67:src/kern_threads.cpp ****     scheduler.ready_head=0;
 171              		.loc 1 67 5 is_stmt 1
 172              		.loc 1 67 25 is_stmt 0
 173 00f0 23BC0400 		sd	zero,24(s1)
  68:src/kern_threads.cpp ****     scheduler.ready_tail=0;
 174              		.loc 1 68 5 is_stmt 1
 175              		.loc 1 68 25 is_stmt 0
 176 00f4 23B00402 		sd	zero,32(s1)
  69:src/kern_threads.cpp ****     scheduler.joined_head=0;
 177              		.loc 1 69 5 is_stmt 1
 178              		.loc 1 69 26 is_stmt 0
 179 00f8 23B40402 		sd	zero,40(s1)
  70:src/kern_threads.cpp ****     scheduler.sleeping_head=0;
 180              		.loc 1 70 5 is_stmt 1
 181              		.loc 1 70 28 is_stmt 0
 182 00fc 23B80402 		sd	zero,48(s1)
  71:src/kern_threads.cpp **** }
 183              		.loc 1 71 1
 184 0100 83308101 		ld	ra,24(sp)
 185              		.cfi_restore 1
 186 0104 03340101 		ld	s0,16(sp)
 187              		.cfi_restore 8
 188              		.cfi_def_cfa 2, 32
 189 0108 83348100 		ld	s1,8(sp)
 190              		.cfi_restore 9
 191 010c 13010102 		addi	sp,sp,32
 192              		.cfi_def_cfa_offset 0
 193 0110 67800000 		jr	ra
 194              		.cfi_endproc
 195              	.LFE47:
 197              		.align	2
 198              		.globl	_Z18kern_scheduler_putP8thread_s
 200              	_Z18kern_scheduler_putP8thread_s:
 201              	.LFB48:
  72:src/kern_threads.cpp **** 
  73:src/kern_threads.cpp **** void kern_scheduler_put(thread_t t)
  74:src/kern_threads.cpp **** {
 202              		.loc 1 74 1 is_stmt 1
GAS LISTING /tmp/ccO5XAsk.s 			page 6


 203              		.cfi_startproc
 204              	.LVL8:
 205 0114 130101FF 		addi	sp,sp,-16
 206              		.cfi_def_cfa_offset 16
 207 0118 23348100 		sd	s0,8(sp)
 208              		.cfi_offset 8, -8
 209 011c 13040101 		addi	s0,sp,16
 210              		.cfi_def_cfa 8, 0
  75:src/kern_threads.cpp ****     t->status=READY;
 211              		.loc 1 75 5
 212              		.loc 1 75 14 is_stmt 0
 213 0120 93072000 		li	a5,2
 214 0124 2328F504 		sw	a5,80(a0)
  76:src/kern_threads.cpp ****     if(scheduler.ready_tail==0){
 215              		.loc 1 76 5 is_stmt 1
 216              		.loc 1 76 18 is_stmt 0
 217 0128 97070000 		ld	a5,.LANCHOR0+32
 217      83B70700 
 218              		.loc 1 76 5
 219 0130 63800702 		beqz	a5,.L11
  77:src/kern_threads.cpp ****         scheduler.ready_tail=t;
  78:src/kern_threads.cpp ****         scheduler.ready_head=t;
  79:src/kern_threads.cpp ****     } else{
  80:src/kern_threads.cpp ****         scheduler.ready_tail->next_thread=t;
 220              		.loc 1 80 9 is_stmt 1
 221              		.loc 1 80 42 is_stmt 0
 222 0134 23B0A706 		sd	a0,96(a5)
  81:src/kern_threads.cpp ****         scheduler.ready_tail=t;
 223              		.loc 1 81 9 is_stmt 1
 224              		.loc 1 81 29 is_stmt 0
 225 0138 97070000 		sd	a0,.LANCHOR0+32,a5
 225      23B0A700 
 226              	.L9:
  82:src/kern_threads.cpp ****     }
  83:src/kern_threads.cpp ****     t->next_thread=0;
 227              		.loc 1 83 5 is_stmt 1
 228              		.loc 1 83 19 is_stmt 0
 229 0140 23300506 		sd	zero,96(a0)
  84:src/kern_threads.cpp **** }
 230              		.loc 1 84 1
 231 0144 03348100 		ld	s0,8(sp)
 232              		.cfi_remember_state
 233              		.cfi_restore 8
 234              		.cfi_def_cfa 2, 16
 235 0148 13010101 		addi	sp,sp,16
 236              		.cfi_def_cfa_offset 0
 237 014c 67800000 		jr	ra
 238              	.L11:
 239              		.cfi_restore_state
  77:src/kern_threads.cpp ****         scheduler.ready_head=t;
 240              		.loc 1 77 9 is_stmt 1
  77:src/kern_threads.cpp ****         scheduler.ready_head=t;
 241              		.loc 1 77 29 is_stmt 0
 242 0150 97070000 		lla	a5,.LANCHOR0
 242      93870700 
 243 0158 23B0A702 		sd	a0,32(a5)
  78:src/kern_threads.cpp ****     } else{
GAS LISTING /tmp/ccO5XAsk.s 			page 7


 244              		.loc 1 78 9 is_stmt 1
  78:src/kern_threads.cpp ****     } else{
 245              		.loc 1 78 29 is_stmt 0
 246 015c 23BCA700 		sd	a0,24(a5)
 247 0160 6FF01FFE 		j	.L9
 248              		.cfi_endproc
 249              	.LFE48:
 251              		.align	2
 252              		.globl	_Z18kern_scheduler_getv
 254              	_Z18kern_scheduler_getv:
 255              	.LFB49:
  85:src/kern_threads.cpp **** 
  86:src/kern_threads.cpp **** thread_t kern_scheduler_get()
  87:src/kern_threads.cpp **** {
 256              		.loc 1 87 1 is_stmt 1
 257              		.cfi_startproc
 258 0164 130101FF 		addi	sp,sp,-16
 259              		.cfi_def_cfa_offset 16
 260 0168 23348100 		sd	s0,8(sp)
 261              		.cfi_offset 8, -8
 262 016c 13040101 		addi	s0,sp,16
 263              		.cfi_def_cfa 8, 0
  88:src/kern_threads.cpp ****     if(scheduler.ready_head==0) return 0;
 264              		.loc 1 88 5
 265              		.loc 1 88 18 is_stmt 0
 266 0170 17050000 		ld	a0,.LANCHOR0+24
 266      03350500 
 267              		.loc 1 88 5
 268 0178 63000502 		beqz	a0,.L12
  89:src/kern_threads.cpp ****     thread_t t = scheduler.ready_head;
 269              		.loc 1 89 5 is_stmt 1
 270              	.LVL9:
  90:src/kern_threads.cpp ****     scheduler.ready_head=scheduler.ready_head->next_thread;
 271              		.loc 1 90 5
 272              		.loc 1 90 48 is_stmt 0
 273 017c 03370506 		ld	a4,96(a0)
 274              		.loc 1 90 25
 275 0180 97070000 		lla	a5,.LANCHOR0
 275      93870700 
 276 0188 23BCE700 		sd	a4,24(a5)
  91:src/kern_threads.cpp ****     if(scheduler.ready_tail==t) scheduler.ready_tail=0;
 277              		.loc 1 91 5 is_stmt 1
 278              		.loc 1 91 18 is_stmt 0
 279 018c 83B70702 		ld	a5,32(a5)
 280              		.loc 1 91 5
 281 0190 630AF500 		beq	a0,a5,.L16
 282              	.L14:
  92:src/kern_threads.cpp ****     t->next_thread=0;
 283              		.loc 1 92 5 is_stmt 1
 284              		.loc 1 92 19 is_stmt 0
 285 0194 23300506 		sd	zero,96(a0)
  93:src/kern_threads.cpp ****     return t;
 286              		.loc 1 93 5 is_stmt 1
 287              	.LVL10:
 288              	.L12:
  94:src/kern_threads.cpp **** }
 289              		.loc 1 94 1 is_stmt 0
GAS LISTING /tmp/ccO5XAsk.s 			page 8


 290 0198 03348100 		ld	s0,8(sp)
 291              		.cfi_remember_state
 292              		.cfi_restore 8
 293              		.cfi_def_cfa 2, 16
 294 019c 13010101 		addi	sp,sp,16
 295              		.cfi_def_cfa_offset 0
 296 01a0 67800000 		jr	ra
 297              	.LVL11:
 298              	.L16:
 299              		.cfi_restore_state
  91:src/kern_threads.cpp ****     t->next_thread=0;
 300              		.loc 1 91 33 is_stmt 1 discriminator 1
  91:src/kern_threads.cpp ****     t->next_thread=0;
 301              		.loc 1 91 53 is_stmt 0 discriminator 1
 302 01a4 97070000 		sd	zero,.LANCHOR0+32,a5
 302      23B00700 
 303 01ac 6FF09FFE 		j	.L14
 304              		.cfi_endproc
 305              	.LFE49:
 307              		.align	2
 308              		.globl	_Z10popSppSpiev
 310              	_Z10popSppSpiev:
 311              	.LFB51:
  95:src/kern_threads.cpp **** 
  96:src/kern_threads.cpp **** void kern_thread_dispatch()
  97:src/kern_threads.cpp **** {
  98:src/kern_threads.cpp ****     kern_scheduler_put(running);
  99:src/kern_threads.cpp ****     uint64 volatile sstatus = r_sstatus();
 100:src/kern_threads.cpp ****     uint64 volatile v_sepc = r_sepc();
 101:src/kern_threads.cpp ****     kern_thread_yield();
 102:src/kern_threads.cpp ****     w_sstatus(sstatus);
 103:src/kern_threads.cpp ****     w_sepc(v_sepc);
 104:src/kern_threads.cpp **** }
 105:src/kern_threads.cpp **** 
 106:src/kern_threads.cpp **** //samo izlazi iz kernela i vraca se odakle je pozvana
 107:src/kern_threads.cpp **** void popSppSpie()
 108:src/kern_threads.cpp **** {
 312              		.loc 1 108 1 is_stmt 1
 313              		.cfi_startproc
 314 01b0 130101FF 		addi	sp,sp,-16
 315              		.cfi_def_cfa_offset 16
 316 01b4 23348100 		sd	s0,8(sp)
 317              		.cfi_offset 8, -8
 318 01b8 13040101 		addi	s0,sp,16
 319              		.cfi_def_cfa 8, 0
 109:src/kern_threads.cpp ****     __asm__ volatile("csrw sepc, ra"); //ovde dodaj izlazak iz privilegovanog moda
 320              		.loc 1 109 5
 321              		.loc 1 109 38 is_stmt 0
 322              	#APP
 323              	# 109 "src/kern_threads.cpp" 1
 110              	    __asm__ volatile("csrc sstatus, %[mask]" : : [mask] "r"(1 << 8));
 324              		csrw sepc, ra
 325              	# 0 "" 2
 326              		.loc 1 110 5 is_stmt 1
 327              		.loc 1 110 69 is_stmt 0
 328              	#NO_APP
 329 01c0 93070010 		li	a5,256
GAS LISTING /tmp/ccO5XAsk.s 			page 9


 330              	#APP
 331              	# 110 "src/kern_threads.cpp" 1
 111              	    __asm__ volatile("sret");
 332              		csrc sstatus, a5
 333              	# 0 "" 2
 334              		.loc 1 111 5 is_stmt 1
 335              		.loc 1 111 29 is_stmt 0
 336              	# 111 "src/kern_threads.cpp" 1
 112              	}
 337              		sret
 338              	# 0 "" 2
 339              		.loc 1 112 1
 340              	#NO_APP
 341 01cc 03348100 		ld	s0,8(sp)
 342              		.cfi_restore 8
 343              		.cfi_def_cfa 2, 16
 344 01d0 13010101 		addi	sp,sp,16
 345              		.cfi_def_cfa_offset 0
 346 01d4 67800000 		jr	ra
 347              		.cfi_endproc
 348              	.LFE51:
 350              		.align	2
 351              		.globl	_Z19kern_thread_wrapperv
 353              	_Z19kern_thread_wrapperv:
 354              	.LFB55:
 113:src/kern_threads.cpp **** 
 114:src/kern_threads.cpp **** #ifdef __cplusplus
 115:src/kern_threads.cpp **** extern "C" {
 116:src/kern_threads.cpp **** #endif
 117:src/kern_threads.cpp **** void contextSwitch(thread_t oldT, thread_t newT);
 118:src/kern_threads.cpp **** #ifdef __cplusplus
 119:src/kern_threads.cpp **** }
 120:src/kern_threads.cpp **** #endif
 121:src/kern_threads.cpp **** 
 122:src/kern_threads.cpp **** void kern_thread_yield()
 123:src/kern_threads.cpp **** {
 124:src/kern_threads.cpp ****     thread_t old = running;
 125:src/kern_threads.cpp ****     running=kern_scheduler_get();
 126:src/kern_threads.cpp ****     if(old!=running){
 127:src/kern_threads.cpp ****         running->status=RUNNING;
 128:src/kern_threads.cpp ****         if(old->status==RUNNING) old->status=READY;
 129:src/kern_threads.cpp ****         contextSwitch(old,running);
 130:src/kern_threads.cpp ****     }
 131:src/kern_threads.cpp ****     else {
 132:src/kern_threads.cpp ****         old->status=RUNNING;
 133:src/kern_threads.cpp ****     }
 134:src/kern_threads.cpp **** }
 135:src/kern_threads.cpp **** 
 136:src/kern_threads.cpp **** void kern_thread_resume_joined(uint64 joined_tid)
 137:src/kern_threads.cpp **** {
 138:src/kern_threads.cpp ****     thread_t curr = scheduler.joined_head;
 139:src/kern_threads.cpp ****     thread_t prev = 0;
 140:src/kern_threads.cpp ****     thread_t next = 0;
 141:src/kern_threads.cpp ****     while (curr!=0){
 142:src/kern_threads.cpp ****         next=curr->next_thread;
 143:src/kern_threads.cpp ****         if(curr->joined_tid<=joined_tid){
 144:src/kern_threads.cpp ****             if(prev!=0){
GAS LISTING /tmp/ccO5XAsk.s 			page 10


 145:src/kern_threads.cpp ****                 prev->next_thread=curr->next_thread;
 146:src/kern_threads.cpp ****             } else{
 147:src/kern_threads.cpp ****                 scheduler.joined_head=curr->next_thread;
 148:src/kern_threads.cpp ****             }
 149:src/kern_threads.cpp ****             kern_scheduler_put(curr);
 150:src/kern_threads.cpp ****         } else{
 151:src/kern_threads.cpp ****             prev=curr;
 152:src/kern_threads.cpp ****         }
 153:src/kern_threads.cpp ****         curr=next;
 154:src/kern_threads.cpp ****     }
 155:src/kern_threads.cpp **** }
 156:src/kern_threads.cpp **** 
 157:src/kern_threads.cpp **** void kern_thread_end_running()
 158:src/kern_threads.cpp **** {
 159:src/kern_threads.cpp ****     thread_t old = running;
 160:src/kern_threads.cpp ****     old->status=UNUSED;
 161:src/kern_threads.cpp ****     kern_thread_resume_joined(old->id);
 162:src/kern_threads.cpp ****     running=kern_scheduler_get();
 163:src/kern_threads.cpp ****     if(old->stack_space!=0) kern_mem_free((void*)old->stack_space);
 164:src/kern_threads.cpp ****     kmem_cache_free(threads_cache,old);
 165:src/kern_threads.cpp ****     if(old!=running){
 166:src/kern_threads.cpp ****         contextSwitch(old,running);
 167:src/kern_threads.cpp ****     }
 168:src/kern_threads.cpp **** }
 169:src/kern_threads.cpp **** 
 170:src/kern_threads.cpp **** void kern_thread_wrapper()
 171:src/kern_threads.cpp **** {
 355              		.loc 1 171 1 is_stmt 1
 356              		.cfi_startproc
 357 01d8 130101FF 		addi	sp,sp,-16
 358              		.cfi_def_cfa_offset 16
 359 01dc 23341100 		sd	ra,8(sp)
 360 01e0 23308100 		sd	s0,0(sp)
 361              		.cfi_offset 1, -8
 362              		.cfi_offset 8, -16
 363 01e4 13040101 		addi	s0,sp,16
 364              		.cfi_def_cfa 8, 0
 172:src/kern_threads.cpp ****     popSppSpie();
 365              		.loc 1 172 5
 366              		.loc 1 172 15 is_stmt 0
 367 01e8 97000000 		call	_Z10popSppSpiev
 367      E7800000 
 368              	.LVL12:
 173:src/kern_threads.cpp ****     running->body(running->arg);
 369              		.loc 1 173 5 is_stmt 1
 370              		.loc 1 173 14 is_stmt 0
 371 01f0 97070000 		ld	a5,.LANCHOR0+16
 371      83B70700 
 372 01f8 03B78701 		ld	a4,24(a5)
 373              		.loc 1 173 18
 374 01fc 03B50702 		ld	a0,32(a5)
 375 0200 E7000700 		jalr	a4
 376              	.LVL13:
 174:src/kern_threads.cpp ****     /*
 175:src/kern_threads.cpp ****     running->status=UNUSED;
 176:src/kern_threads.cpp ****     running->sem_next=0;
 177:src/kern_threads.cpp ****     running->joined_tid=-1;
GAS LISTING /tmp/ccO5XAsk.s 			page 11


 178:src/kern_threads.cpp ****     for(int i=0;i<MAX_THREADS;i++){
 179:src/kern_threads.cpp ****         if(kthreads[i].status==JOINED && kthreads[i].joined_tid==running->id) kthreads[i].status=RE
 180:src/kern_threads.cpp ****     }
 181:src/kern_threads.cpp **** */
 182:src/kern_threads.cpp ****     thread_exit();
 377              		.loc 1 182 5 is_stmt 1
 378              		.loc 1 182 16 is_stmt 0
 379 0204 97000000 		call	_Z11thread_exitv@plt
 379      E7800000 
 380              	.LVL14:
 183:src/kern_threads.cpp **** }
 381              		.loc 1 183 1
 382 020c 83308100 		ld	ra,8(sp)
 383              		.cfi_restore 1
 384 0210 03340100 		ld	s0,0(sp)
 385              		.cfi_restore 8
 386              		.cfi_def_cfa 2, 16
 387 0214 13010101 		addi	sp,sp,16
 388              		.cfi_def_cfa_offset 0
 389 0218 67800000 		jr	ra
 390              		.cfi_endproc
 391              	.LFE55:
 393              		.align	2
 394              		.globl	_Z17kern_thread_yieldv
 396              	_Z17kern_thread_yieldv:
 397              	.LFB52:
 123:src/kern_threads.cpp ****     thread_t old = running;
 398              		.loc 1 123 1 is_stmt 1
 399              		.cfi_startproc
 400 021c 130101FE 		addi	sp,sp,-32
 401              		.cfi_def_cfa_offset 32
 402 0220 233C1100 		sd	ra,24(sp)
 403 0224 23388100 		sd	s0,16(sp)
 404 0228 23349100 		sd	s1,8(sp)
 405 022c 23302101 		sd	s2,0(sp)
 406              		.cfi_offset 1, -8
 407              		.cfi_offset 8, -16
 408              		.cfi_offset 9, -24
 409              		.cfi_offset 18, -32
 410 0230 13040102 		addi	s0,sp,32
 411              		.cfi_def_cfa 8, 0
 124:src/kern_threads.cpp ****     running=kern_scheduler_get();
 412              		.loc 1 124 5
 124:src/kern_threads.cpp ****     running=kern_scheduler_get();
 413              		.loc 1 124 14 is_stmt 0
 414 0234 17090000 		lla	s2,.LANCHOR0
 414      13090900 
 415 023c 83340901 		ld	s1,16(s2)
 416              	.LVL15:
 125:src/kern_threads.cpp ****     if(old!=running){
 417              		.loc 1 125 5 is_stmt 1
 125:src/kern_threads.cpp ****     if(old!=running){
 418              		.loc 1 125 31 is_stmt 0
 419 0240 97000000 		call	_Z18kern_scheduler_getv
 419      E7800000 
 420              	.LVL16:
 125:src/kern_threads.cpp ****     if(old!=running){
GAS LISTING /tmp/ccO5XAsk.s 			page 12


 421              		.loc 1 125 12
 422 0248 2338A900 		sd	a0,16(s2)
 126:src/kern_threads.cpp ****         running->status=RUNNING;
 423              		.loc 1 126 5 is_stmt 1
 424 024c 63069504 		beq	a0,s1,.L22
 425 0250 93050500 		mv	a1,a0
 127:src/kern_threads.cpp ****         if(old->status==RUNNING) old->status=READY;
 426              		.loc 1 127 9
 127:src/kern_threads.cpp ****         if(old->status==RUNNING) old->status=READY;
 427              		.loc 1 127 24 is_stmt 0
 428 0254 93071000 		li	a5,1
 429 0258 2328F504 		sw	a5,80(a0)
 128:src/kern_threads.cpp ****         contextSwitch(old,running);
 430              		.loc 1 128 9 is_stmt 1
 128:src/kern_threads.cpp ****         contextSwitch(old,running);
 431              		.loc 1 128 17 is_stmt 0
 432 025c 03A70405 		lw	a4,80(s1)
 128:src/kern_threads.cpp ****         contextSwitch(old,running);
 433              		.loc 1 128 9
 434 0260 93071000 		li	a5,1
 435 0264 6304F702 		beq	a4,a5,.L26
 436              	.L23:
 129:src/kern_threads.cpp ****     }
 437              		.loc 1 129 9 is_stmt 1
 129:src/kern_threads.cpp ****     }
 438              		.loc 1 129 22 is_stmt 0
 439 0268 13850400 		mv	a0,s1
 440 026c 97000000 		call	contextSwitch@plt
 440      E7800000 
 441              	.LVL17:
 442              	.L21:
 134:src/kern_threads.cpp **** 
 443              		.loc 1 134 1
 444 0274 83308101 		ld	ra,24(sp)
 445              		.cfi_remember_state
 446              		.cfi_restore 1
 447 0278 03340101 		ld	s0,16(sp)
 448              		.cfi_restore 8
 449              		.cfi_def_cfa 2, 32
 450 027c 83348100 		ld	s1,8(sp)
 451              		.cfi_restore 9
 452              	.LVL18:
 453 0280 03390100 		ld	s2,0(sp)
 454              		.cfi_restore 18
 455 0284 13010102 		addi	sp,sp,32
 456              		.cfi_def_cfa_offset 0
 457 0288 67800000 		jr	ra
 458              	.LVL19:
 459              	.L26:
 460              		.cfi_restore_state
 128:src/kern_threads.cpp ****         contextSwitch(old,running);
 461              		.loc 1 128 34 is_stmt 1 discriminator 1
 128:src/kern_threads.cpp ****         contextSwitch(old,running);
 462              		.loc 1 128 45 is_stmt 0 discriminator 1
 463 028c 93072000 		li	a5,2
 464 0290 23A8F404 		sw	a5,80(s1)
 465 0294 6FF05FFD 		j	.L23
GAS LISTING /tmp/ccO5XAsk.s 			page 13


 466              	.L22:
 132:src/kern_threads.cpp ****     }
 467              		.loc 1 132 9 is_stmt 1
 132:src/kern_threads.cpp ****     }
 468              		.loc 1 132 20 is_stmt 0
 469 0298 93071000 		li	a5,1
 470 029c 23A8F404 		sw	a5,80(s1)
 134:src/kern_threads.cpp **** 
 471              		.loc 1 134 1
 472 02a0 6FF05FFD 		j	.L21
 473              		.cfi_endproc
 474              	.LFE52:
 476              		.align	2
 477              		.globl	_Z20kern_thread_dispatchv
 479              	_Z20kern_thread_dispatchv:
 480              	.LFB50:
  97:src/kern_threads.cpp ****     kern_scheduler_put(running);
 481              		.loc 1 97 1 is_stmt 1
 482              		.cfi_startproc
 483 02a4 130101FD 		addi	sp,sp,-48
 484              		.cfi_def_cfa_offset 48
 485 02a8 23341102 		sd	ra,40(sp)
 486 02ac 23308102 		sd	s0,32(sp)
 487              		.cfi_offset 1, -8
 488              		.cfi_offset 8, -16
 489 02b0 13040103 		addi	s0,sp,48
 490              		.cfi_def_cfa 8, 0
  98:src/kern_threads.cpp ****     uint64 volatile sstatus = r_sstatus();
 491              		.loc 1 98 5
  98:src/kern_threads.cpp ****     uint64 volatile sstatus = r_sstatus();
 492              		.loc 1 98 23 is_stmt 0
 493 02b4 17050000 		ld	a0,.LANCHOR0+16
 493      03350500 
 494 02bc 97000000 		call	_Z18kern_scheduler_putP8thread_s
 494      E7800000 
 495              	.LVL20:
  99:src/kern_threads.cpp ****     uint64 volatile v_sepc = r_sepc();
 496              		.loc 1 99 5 is_stmt 1
 497              	.LBB26:
 498              	.LBB27:
 499              		.file 2 "src/../h/kern_reg_util.h"
   1:src/../h/kern_reg_util.h **** //
   2:src/../h/kern_reg_util.h **** // Created by os on 5/23/23.
   3:src/../h/kern_reg_util.h **** //
   4:src/../h/kern_reg_util.h **** 
   5:src/../h/kern_reg_util.h **** #ifndef OS1_KERN_REG_UTIL_H
   6:src/../h/kern_reg_util.h **** #define OS1_KERN_REG_UTIL_H
   7:src/../h/kern_reg_util.h **** 
   8:src/../h/kern_reg_util.h **** #include "../lib/hw.h"
   9:src/../h/kern_reg_util.h **** 
  10:src/../h/kern_reg_util.h **** enum BitMaskSstatus
  11:src/../h/kern_reg_util.h **** {
  12:src/../h/kern_reg_util.h ****     SSTATUS_SIE = (1 << 1),
  13:src/../h/kern_reg_util.h ****     SSTATUS_SPIE = (1 << 5),
  14:src/../h/kern_reg_util.h ****     SSTATUS_SPP = (1 << 8),
  15:src/../h/kern_reg_util.h **** };
  16:src/../h/kern_reg_util.h **** 
GAS LISTING /tmp/ccO5XAsk.s 			page 14


  17:src/../h/kern_reg_util.h **** enum BitMaskSip
  18:src/../h/kern_reg_util.h **** {
  19:src/../h/kern_reg_util.h ****     SIP_SSIP = (1 << 1),
  20:src/../h/kern_reg_util.h ****     SIP_STIP = (1 << 5),
  21:src/../h/kern_reg_util.h ****     SIP_SEIP = (1 << 9),
  22:src/../h/kern_reg_util.h **** };
  23:src/../h/kern_reg_util.h **** 
  24:src/../h/kern_reg_util.h **** inline uint64 r_a0()
  25:src/../h/kern_reg_util.h **** {
  26:src/../h/kern_reg_util.h ****     uint64 volatile a0;
  27:src/../h/kern_reg_util.h ****     __asm__ volatile ("mv %[a0], a0" : [a0] "=r"(a0));
  28:src/../h/kern_reg_util.h ****     return a0;
  29:src/../h/kern_reg_util.h **** }
  30:src/../h/kern_reg_util.h **** inline void w_a0(uint64 value)
  31:src/../h/kern_reg_util.h **** {
  32:src/../h/kern_reg_util.h ****     __asm__ volatile ("mv a0, %[value]" :: [value] "r"(value));
  33:src/../h/kern_reg_util.h **** }
  34:src/../h/kern_reg_util.h **** 
  35:src/../h/kern_reg_util.h **** inline uint64 r_a1()
  36:src/../h/kern_reg_util.h **** {
  37:src/../h/kern_reg_util.h ****     uint64 volatile a1;
  38:src/../h/kern_reg_util.h ****     __asm__ volatile ("mv %[a1], a1" : [a1] "=r"(a1));
  39:src/../h/kern_reg_util.h ****     return a1;
  40:src/../h/kern_reg_util.h **** }
  41:src/../h/kern_reg_util.h **** 
  42:src/../h/kern_reg_util.h **** inline uint64 r_a2()
  43:src/../h/kern_reg_util.h **** {
  44:src/../h/kern_reg_util.h ****     uint64 volatile a2;
  45:src/../h/kern_reg_util.h ****     __asm__ volatile ("mv %[a2], a2" : [a2] "=r"(a2));
  46:src/../h/kern_reg_util.h ****     return a2;
  47:src/../h/kern_reg_util.h **** }
  48:src/../h/kern_reg_util.h **** 
  49:src/../h/kern_reg_util.h **** inline uint64 r_a3()
  50:src/../h/kern_reg_util.h **** {
  51:src/../h/kern_reg_util.h ****     uint64 volatile a3;
  52:src/../h/kern_reg_util.h ****     __asm__ volatile ("mv %[a3], a3" : [a3] "=r"(a3));
  53:src/../h/kern_reg_util.h ****     return a3;
  54:src/../h/kern_reg_util.h **** }
  55:src/../h/kern_reg_util.h **** 
  56:src/../h/kern_reg_util.h **** inline uint64 r_a4()
  57:src/../h/kern_reg_util.h **** {
  58:src/../h/kern_reg_util.h ****     uint64 volatile a4;
  59:src/../h/kern_reg_util.h ****     __asm__ volatile ("mv %[a4], a4" : [a4] "=r"(a4));
  60:src/../h/kern_reg_util.h ****     return a4;
  61:src/../h/kern_reg_util.h **** }
  62:src/../h/kern_reg_util.h **** 
  63:src/../h/kern_reg_util.h **** inline uint64 r_scause()
  64:src/../h/kern_reg_util.h **** {
  65:src/../h/kern_reg_util.h ****     uint64 volatile scause;
  66:src/../h/kern_reg_util.h ****     __asm__ volatile ("csrr %[scause], scause" : [scause] "=r"(scause));
  67:src/../h/kern_reg_util.h ****     return scause;
  68:src/../h/kern_reg_util.h **** }
  69:src/../h/kern_reg_util.h **** 
  70:src/../h/kern_reg_util.h **** inline void w_scause(uint64 scause)
  71:src/../h/kern_reg_util.h **** {
  72:src/../h/kern_reg_util.h ****     __asm__ volatile ("csrw scause, %[scause]" : : [scause] "r"(scause));
  73:src/../h/kern_reg_util.h **** }
GAS LISTING /tmp/ccO5XAsk.s 			page 15


  74:src/../h/kern_reg_util.h **** 
  75:src/../h/kern_reg_util.h **** inline uint64 r_sepc()
  76:src/../h/kern_reg_util.h **** {
  77:src/../h/kern_reg_util.h ****     uint64 volatile sepc;
  78:src/../h/kern_reg_util.h ****     __asm__ volatile ("csrr %[sepc], sepc" : [sepc] "=r"(sepc));
  79:src/../h/kern_reg_util.h ****     return sepc;
  80:src/../h/kern_reg_util.h **** }
  81:src/../h/kern_reg_util.h **** 
  82:src/../h/kern_reg_util.h **** inline void w_sepc(uint64 sepc)
  83:src/../h/kern_reg_util.h **** {
  84:src/../h/kern_reg_util.h ****     __asm__ volatile ("csrw sepc, %[sepc]" : : [sepc] "r"(sepc));
  85:src/../h/kern_reg_util.h **** }
  86:src/../h/kern_reg_util.h **** 
  87:src/../h/kern_reg_util.h **** inline uint64 r_stvec()
  88:src/../h/kern_reg_util.h **** {
  89:src/../h/kern_reg_util.h ****     uint64 volatile stvec;
  90:src/../h/kern_reg_util.h ****     __asm__ volatile ("csrr %[stvec], stvec" : [stvec] "=r"(stvec));
  91:src/../h/kern_reg_util.h ****     return stvec;
  92:src/../h/kern_reg_util.h **** }
  93:src/../h/kern_reg_util.h **** 
  94:src/../h/kern_reg_util.h **** inline void w_stvec(uint64 stvec)
  95:src/../h/kern_reg_util.h **** {
  96:src/../h/kern_reg_util.h ****     __asm__ volatile ("csrw stvec, %[stvec]" : : [stvec] "r"(stvec));
  97:src/../h/kern_reg_util.h **** }
  98:src/../h/kern_reg_util.h **** 
  99:src/../h/kern_reg_util.h **** inline uint64 r_stval()
 100:src/../h/kern_reg_util.h **** {
 101:src/../h/kern_reg_util.h ****     uint64 volatile stval;
 102:src/../h/kern_reg_util.h ****     __asm__ volatile ("csrr %[stval], stval" : [stval] "=r"(stval));
 103:src/../h/kern_reg_util.h ****     return stval;
 104:src/../h/kern_reg_util.h **** }
 105:src/../h/kern_reg_util.h **** 
 106:src/../h/kern_reg_util.h **** inline void w_stval(uint64 stval)
 107:src/../h/kern_reg_util.h **** {
 108:src/../h/kern_reg_util.h ****     __asm__ volatile ("csrw stval, %[stval]" : : [stval] "r"(stval));
 109:src/../h/kern_reg_util.h **** }
 110:src/../h/kern_reg_util.h **** 
 111:src/../h/kern_reg_util.h **** inline void ms_sip(uint64 mask)
 112:src/../h/kern_reg_util.h **** {
 113:src/../h/kern_reg_util.h ****     __asm__ volatile ("csrs sip, %[mask]" : : [mask] "r"(mask));
 114:src/../h/kern_reg_util.h **** }
 115:src/../h/kern_reg_util.h **** 
 116:src/../h/kern_reg_util.h **** inline void mc_sip(uint64 mask)
 117:src/../h/kern_reg_util.h **** {
 118:src/../h/kern_reg_util.h ****     __asm__ volatile ("csrc sip, %[mask]" : : [mask] "r"(mask));
 119:src/../h/kern_reg_util.h **** }
 120:src/../h/kern_reg_util.h **** 
 121:src/../h/kern_reg_util.h **** inline uint64 r_sip()
 122:src/../h/kern_reg_util.h **** {
 123:src/../h/kern_reg_util.h ****     uint64 volatile sip;
 124:src/../h/kern_reg_util.h ****     __asm__ volatile ("csrr %[sip], sip" : [sip] "=r"(sip));
 125:src/../h/kern_reg_util.h ****     return sip;
 126:src/../h/kern_reg_util.h **** }
 127:src/../h/kern_reg_util.h **** 
 128:src/../h/kern_reg_util.h **** inline void w_sip(uint64 sip)
 129:src/../h/kern_reg_util.h **** {
 130:src/../h/kern_reg_util.h ****     __asm__ volatile ("csrw sip, %[sip]" : : [sip] "r"(sip));
GAS LISTING /tmp/ccO5XAsk.s 			page 16


 131:src/../h/kern_reg_util.h **** }
 132:src/../h/kern_reg_util.h **** 
 133:src/../h/kern_reg_util.h **** inline void ms_sstatus(uint64 mask)
 134:src/../h/kern_reg_util.h **** {
 135:src/../h/kern_reg_util.h ****     __asm__ volatile ("csrs sstatus, %[mask]" : : [mask] "r"(mask));
 136:src/../h/kern_reg_util.h **** }
 137:src/../h/kern_reg_util.h **** 
 138:src/../h/kern_reg_util.h **** inline void mc_sstatus(uint64 mask)
 139:src/../h/kern_reg_util.h **** {
 140:src/../h/kern_reg_util.h ****     __asm__ volatile ("csrc sstatus, %[mask]" : : [mask] "r"(mask));
 141:src/../h/kern_reg_util.h **** }
 142:src/../h/kern_reg_util.h **** 
 143:src/../h/kern_reg_util.h **** inline uint64 r_sstatus()
 144:src/../h/kern_reg_util.h **** {
 145:src/../h/kern_reg_util.h ****     uint64 volatile sstatus;
 500              		.loc 2 145 5
 146:src/../h/kern_reg_util.h ****     __asm__ volatile ("csrr %[sstatus], sstatus" : [sstatus] "=r"(sstatus));
 501              		.loc 2 146 5
 502              		.loc 2 146 76 is_stmt 0
 503              	#APP
 504              	# 146 "src/../h/kern_reg_util.h" 1
 147              	    return sstatus;
 505              		csrr a5, sstatus
 506              	# 0 "" 2
 507              	#NO_APP
 508 02c8 233CF4FC 		sd	a5,-40(s0)
 509              		.loc 2 147 5 is_stmt 1
 510              		.loc 2 147 12 is_stmt 0
 511 02cc 833784FD 		ld	a5,-40(s0)
 512              	.LBE27:
 513              	.LBE26:
  99:src/kern_threads.cpp ****     uint64 volatile v_sepc = r_sepc();
 514              		.loc 1 99 41
 515 02d0 2334F4FE 		sd	a5,-24(s0)
 100:src/kern_threads.cpp ****     kern_thread_yield();
 516              		.loc 1 100 5 is_stmt 1
 517              	.LBB28:
 518              	.LBB29:
  77:src/../h/kern_reg_util.h ****     __asm__ volatile ("csrr %[sepc], sepc" : [sepc] "=r"(sepc));
 519              		.loc 2 77 5
  78:src/../h/kern_reg_util.h ****     return sepc;
 520              		.loc 2 78 5
  78:src/../h/kern_reg_util.h ****     return sepc;
 521              		.loc 2 78 64 is_stmt 0
 522              	#APP
 523              	# 78 "src/../h/kern_reg_util.h" 1
 524              		csrr a5, sepc
 525              	# 0 "" 2
 526              	#NO_APP
 527 02d8 2338F4FC 		sd	a5,-48(s0)
  79:src/../h/kern_reg_util.h **** }
 528              		.loc 2 79 5 is_stmt 1
  79:src/../h/kern_reg_util.h **** }
 529              		.loc 2 79 12 is_stmt 0
 530 02dc 833704FD 		ld	a5,-48(s0)
 531              	.LBE29:
 532              	.LBE28:
GAS LISTING /tmp/ccO5XAsk.s 			page 17


 100:src/kern_threads.cpp ****     kern_thread_yield();
 533              		.loc 1 100 37
 534 02e0 2330F4FE 		sd	a5,-32(s0)
 101:src/kern_threads.cpp ****     w_sstatus(sstatus);
 535              		.loc 1 101 5 is_stmt 1
 101:src/kern_threads.cpp ****     w_sstatus(sstatus);
 536              		.loc 1 101 22 is_stmt 0
 537 02e4 97000000 		call	_Z17kern_thread_yieldv
 537      E7800000 
 538              	.LVL21:
 102:src/kern_threads.cpp ****     w_sepc(v_sepc);
 539              		.loc 1 102 5 is_stmt 1
 102:src/kern_threads.cpp ****     w_sepc(v_sepc);
 540              		.loc 1 102 14 is_stmt 0
 541 02ec 833784FE 		ld	a5,-24(s0)
 542              	.LVL22:
 543              	.LBB30:
 544              	.LBB31:
 148:src/../h/kern_reg_util.h **** }
 149:src/../h/kern_reg_util.h **** 
 150:src/../h/kern_reg_util.h **** inline void w_sstatus(uint64 sstatus)
 151:src/../h/kern_reg_util.h **** {
 152:src/../h/kern_reg_util.h ****     __asm__ volatile ("csrw sstatus, %[sstatus]" : : [sstatus] "r"(sstatus));
 545              		.loc 2 152 5 is_stmt 1
 546              		.loc 2 152 77 is_stmt 0
 547              	#APP
 548              	# 152 "src/../h/kern_reg_util.h" 1
 153              	}
 549              		csrw sstatus, a5
 550              	# 0 "" 2
 551              	.LVL23:
 552              	#NO_APP
 553              	.LBE31:
 554              	.LBE30:
 103:src/kern_threads.cpp **** }
 555              		.loc 1 103 5 is_stmt 1
 103:src/kern_threads.cpp **** }
 556              		.loc 1 103 11 is_stmt 0
 557 02f4 833704FE 		ld	a5,-32(s0)
 558              	.LVL24:
 559              	.LBB32:
 560              	.LBB33:
  84:src/../h/kern_reg_util.h **** }
 561              		.loc 2 84 5 is_stmt 1
  84:src/../h/kern_reg_util.h **** }
 562              		.loc 2 84 65 is_stmt 0
 563              	#APP
 564              	# 84 "src/../h/kern_reg_util.h" 1
 565              		csrw sepc, a5
 566              	# 0 "" 2
 567              	.LVL25:
 568              	#NO_APP
 569              	.LBE33:
 570              	.LBE32:
 104:src/kern_threads.cpp **** 
 571              		.loc 1 104 1
 572 02fc 83308102 		ld	ra,40(sp)
GAS LISTING /tmp/ccO5XAsk.s 			page 18


 573              		.cfi_restore 1
 574 0300 03340102 		ld	s0,32(sp)
 575              		.cfi_restore 8
 576              		.cfi_def_cfa 2, 48
 577 0304 13010103 		addi	sp,sp,48
 578              		.cfi_def_cfa_offset 0
 579 0308 67800000 		jr	ra
 580              		.cfi_endproc
 581              	.LFE50:
 583              		.align	2
 584              		.globl	_Z25kern_thread_resume_joinedm
 586              	_Z25kern_thread_resume_joinedm:
 587              	.LFB53:
 137:src/kern_threads.cpp ****     thread_t curr = scheduler.joined_head;
 588              		.loc 1 137 1 is_stmt 1
 589              		.cfi_startproc
 590              	.LVL26:
 591 030c 130101FD 		addi	sp,sp,-48
 592              		.cfi_def_cfa_offset 48
 593 0310 23341102 		sd	ra,40(sp)
 594 0314 23308102 		sd	s0,32(sp)
 595 0318 233C9100 		sd	s1,24(sp)
 596 031c 23382101 		sd	s2,16(sp)
 597 0320 23343101 		sd	s3,8(sp)
 598              		.cfi_offset 1, -8
 599              		.cfi_offset 8, -16
 600              		.cfi_offset 9, -24
 601              		.cfi_offset 18, -32
 602              		.cfi_offset 19, -40
 603 0324 13040103 		addi	s0,sp,48
 604              		.cfi_def_cfa 8, 0
 605 0328 93090500 		mv	s3,a0
 138:src/kern_threads.cpp ****     thread_t prev = 0;
 606              		.loc 1 138 5
 138:src/kern_threads.cpp ****     thread_t prev = 0;
 607              		.loc 1 138 14 is_stmt 0
 608 032c 17050000 		ld	a0,.LANCHOR0+40
 608      03350500 
 609              	.LVL27:
 139:src/kern_threads.cpp ****     thread_t next = 0;
 610              		.loc 1 139 5 is_stmt 1
 140:src/kern_threads.cpp ****     while (curr!=0){
 611              		.loc 1 140 5
 139:src/kern_threads.cpp ****     thread_t next = 0;
 612              		.loc 1 139 14 is_stmt 0
 613 0334 13090000 		li	s2,0
 614 0338 6F00C000 		j	.L30
 615              	.LVL28:
 616              	.L35:
 151:src/kern_threads.cpp ****         }
 617              		.loc 1 151 17
 618 033c 13090500 		mv	s2,a0
 619              	.LVL29:
 620              	.L32:
 621 0340 13850400 		mv	a0,s1
 622              	.LVL30:
 623              	.L30:
GAS LISTING /tmp/ccO5XAsk.s 			page 19


 141:src/kern_threads.cpp ****         next=curr->next_thread;
 624              		.loc 1 141 5 is_stmt 1
 141:src/kern_threads.cpp ****         next=curr->next_thread;
 625              		.loc 1 141 16
 626 0344 63080502 		beqz	a0,.L29
 142:src/kern_threads.cpp ****         if(curr->joined_tid<=joined_tid){
 627              		.loc 1 142 9
 142:src/kern_threads.cpp ****         if(curr->joined_tid<=joined_tid){
 628              		.loc 1 142 13 is_stmt 0
 629 0348 83340506 		ld	s1,96(a0)
 630              	.LVL31:
 143:src/kern_threads.cpp ****             if(prev!=0){
 631              		.loc 1 143 9 is_stmt 1
 143:src/kern_threads.cpp ****             if(prev!=0){
 632              		.loc 1 143 18 is_stmt 0
 633 034c 83378502 		ld	a5,40(a0)
 143:src/kern_threads.cpp ****             if(prev!=0){
 634              		.loc 1 143 9
 635 0350 E3E6F9FE 		bgtu	a5,s3,.L35
 144:src/kern_threads.cpp ****                 prev->next_thread=curr->next_thread;
 636              		.loc 1 144 13 is_stmt 1
 637 0354 630A0900 		beqz	s2,.L33
 145:src/kern_threads.cpp ****             } else{
 638              		.loc 1 145 17
 145:src/kern_threads.cpp ****             } else{
 639              		.loc 1 145 34 is_stmt 0
 640 0358 23309906 		sd	s1,96(s2)
 641              	.L34:
 149:src/kern_threads.cpp ****         } else{
 642              		.loc 1 149 13 is_stmt 1
 149:src/kern_threads.cpp ****         } else{
 643              		.loc 1 149 31 is_stmt 0
 644 035c 97000000 		call	_Z18kern_scheduler_putP8thread_s
 644      E7800000 
 645              	.LVL32:
 646 0364 6FF0DFFD 		j	.L32
 647              	.LVL33:
 648              	.L33:
 147:src/kern_threads.cpp ****             }
 649              		.loc 1 147 17 is_stmt 1
 147:src/kern_threads.cpp ****             }
 650              		.loc 1 147 38 is_stmt 0
 651 0368 97070000 		sd	s1,.LANCHOR0+40,a5
 651      23B09700 
 652 0370 6FF0DFFE 		j	.L34
 653              	.LVL34:
 654              	.L29:
 155:src/kern_threads.cpp **** 
 655              		.loc 1 155 1
 656 0374 83308102 		ld	ra,40(sp)
 657              		.cfi_restore 1
 658 0378 03340102 		ld	s0,32(sp)
 659              		.cfi_restore 8
 660              		.cfi_def_cfa 2, 48
 661 037c 83348101 		ld	s1,24(sp)
 662              		.cfi_restore 9
 663 0380 03390101 		ld	s2,16(sp)
GAS LISTING /tmp/ccO5XAsk.s 			page 20


 664              		.cfi_restore 18
 665              	.LVL35:
 666 0384 83398100 		ld	s3,8(sp)
 667              		.cfi_restore 19
 668              	.LVL36:
 669 0388 13010103 		addi	sp,sp,48
 670              		.cfi_def_cfa_offset 0
 671 038c 67800000 		jr	ra
 672              		.cfi_endproc
 673              	.LFE53:
 675              		.align	2
 676              		.globl	_Z23kern_thread_end_runningv
 678              	_Z23kern_thread_end_runningv:
 679              	.LFB54:
 158:src/kern_threads.cpp ****     thread_t old = running;
 680              		.loc 1 158 1 is_stmt 1
 681              		.cfi_startproc
 682 0390 130101FE 		addi	sp,sp,-32
 683              		.cfi_def_cfa_offset 32
 684 0394 233C1100 		sd	ra,24(sp)
 685 0398 23388100 		sd	s0,16(sp)
 686 039c 23349100 		sd	s1,8(sp)
 687 03a0 23302101 		sd	s2,0(sp)
 688              		.cfi_offset 1, -8
 689              		.cfi_offset 8, -16
 690              		.cfi_offset 9, -24
 691              		.cfi_offset 18, -32
 692 03a4 13040102 		addi	s0,sp,32
 693              		.cfi_def_cfa 8, 0
 159:src/kern_threads.cpp ****     old->status=UNUSED;
 694              		.loc 1 159 5
 159:src/kern_threads.cpp ****     old->status=UNUSED;
 695              		.loc 1 159 14 is_stmt 0
 696 03a8 17090000 		lla	s2,.LANCHOR0
 696      13090900 
 697 03b0 83340901 		ld	s1,16(s2)
 698              	.LVL37:
 160:src/kern_threads.cpp ****     kern_thread_resume_joined(old->id);
 699              		.loc 1 160 5 is_stmt 1
 160:src/kern_threads.cpp ****     kern_thread_resume_joined(old->id);
 700              		.loc 1 160 16 is_stmt 0
 701 03b4 23A80404 		sw	zero,80(s1)
 161:src/kern_threads.cpp ****     running=kern_scheduler_get();
 702              		.loc 1 161 5 is_stmt 1
 161:src/kern_threads.cpp ****     running=kern_scheduler_get();
 703              		.loc 1 161 30 is_stmt 0
 704 03b8 03B50401 		ld	a0,16(s1)
 705 03bc 97000000 		call	_Z25kern_thread_resume_joinedm
 705      E7800000 
 706              	.LVL38:
 162:src/kern_threads.cpp ****     if(old->stack_space!=0) kern_mem_free((void*)old->stack_space);
 707              		.loc 1 162 5 is_stmt 1
 162:src/kern_threads.cpp ****     if(old->stack_space!=0) kern_mem_free((void*)old->stack_space);
 708              		.loc 1 162 31 is_stmt 0
 709 03c4 97000000 		call	_Z18kern_scheduler_getv
 709      E7800000 
 710              	.LVL39:
GAS LISTING /tmp/ccO5XAsk.s 			page 21


 162:src/kern_threads.cpp ****     if(old->stack_space!=0) kern_mem_free((void*)old->stack_space);
 711              		.loc 1 162 12
 712 03cc 2338A900 		sd	a0,16(s2)
 163:src/kern_threads.cpp ****     kmem_cache_free(threads_cache,old);
 713              		.loc 1 163 5 is_stmt 1
 163:src/kern_threads.cpp ****     kmem_cache_free(threads_cache,old);
 714              		.loc 1 163 13 is_stmt 0
 715 03d0 03B50404 		ld	a0,64(s1)
 163:src/kern_threads.cpp ****     kmem_cache_free(threads_cache,old);
 716              		.loc 1 163 5
 717 03d4 63140504 		bnez	a0,.L41
 718              	.L38:
 164:src/kern_threads.cpp ****     if(old!=running){
 719              		.loc 1 164 5 is_stmt 1
 164:src/kern_threads.cpp ****     if(old!=running){
 720              		.loc 1 164 20 is_stmt 0
 721 03d8 17090000 		lla	s2,.LANCHOR0
 721      13090900 
 722 03e0 93850400 		mv	a1,s1
 723 03e4 03350900 		ld	a0,0(s2)
 724 03e8 97000000 		call	_Z15kmem_cache_freeP12kmem_cache_sPv@plt
 724      E7800000 
 725              	.LVL40:
 165:src/kern_threads.cpp ****         contextSwitch(old,running);
 726              		.loc 1 165 5 is_stmt 1
 165:src/kern_threads.cpp ****         contextSwitch(old,running);
 727              		.loc 1 165 11 is_stmt 0
 728 03f0 83350901 		ld	a1,16(s2)
 165:src/kern_threads.cpp ****         contextSwitch(old,running);
 729              		.loc 1 165 5
 730 03f4 63889500 		beq	a1,s1,.L37
 166:src/kern_threads.cpp ****     }
 731              		.loc 1 166 9 is_stmt 1
 166:src/kern_threads.cpp ****     }
 732              		.loc 1 166 22 is_stmt 0
 733 03f8 13850400 		mv	a0,s1
 734 03fc 97000000 		call	contextSwitch@plt
 734      E7800000 
 735              	.LVL41:
 736              	.L37:
 168:src/kern_threads.cpp **** 
 737              		.loc 1 168 1
 738 0404 83308101 		ld	ra,24(sp)
 739              		.cfi_remember_state
 740              		.cfi_restore 1
 741 0408 03340101 		ld	s0,16(sp)
 742              		.cfi_restore 8
 743              		.cfi_def_cfa 2, 32
 744 040c 83348100 		ld	s1,8(sp)
 745              		.cfi_restore 9
 746              	.LVL42:
 747 0410 03390100 		ld	s2,0(sp)
 748              		.cfi_restore 18
 749 0414 13010102 		addi	sp,sp,32
 750              		.cfi_def_cfa_offset 0
 751 0418 67800000 		jr	ra
 752              	.LVL43:
GAS LISTING /tmp/ccO5XAsk.s 			page 22


 753              	.L41:
 754              		.cfi_restore_state
 163:src/kern_threads.cpp ****     kmem_cache_free(threads_cache,old);
 755              		.loc 1 163 29 is_stmt 1 discriminator 1
 163:src/kern_threads.cpp ****     kmem_cache_free(threads_cache,old);
 756              		.loc 1 163 42 is_stmt 0 discriminator 1
 757 041c 97000000 		call	_Z13kern_mem_freePv@plt
 757      E7800000 
 758              	.LVL44:
 759 0424 6FF05FFB 		j	.L38
 760              		.cfi_endproc
 761              	.LFE54:
 763              		.align	2
 764              		.globl	_Z18kern_thread_createPP8thread_sPFvPvES2_S2_
 766              	_Z18kern_thread_createPP8thread_sPFvPvES2_S2_:
 767              	.LFB56:
 184:src/kern_threads.cpp **** 
 185:src/kern_threads.cpp **** int kern_thread_create(thread_t* handle, void(*start_routine)(void*), void* arg, void* stack_space)
 186:src/kern_threads.cpp **** {
 768              		.loc 1 186 1 is_stmt 1
 769              		.cfi_startproc
 770              	.LVL45:
 771 0428 130101FD 		addi	sp,sp,-48
 772              		.cfi_def_cfa_offset 48
 773 042c 23341102 		sd	ra,40(sp)
 774 0430 23308102 		sd	s0,32(sp)
 775 0434 233C9100 		sd	s1,24(sp)
 776 0438 23382101 		sd	s2,16(sp)
 777 043c 23343101 		sd	s3,8(sp)
 778 0440 23304101 		sd	s4,0(sp)
 779              		.cfi_offset 1, -8
 780              		.cfi_offset 8, -16
 781              		.cfi_offset 9, -24
 782              		.cfi_offset 18, -32
 783              		.cfi_offset 19, -40
 784              		.cfi_offset 20, -48
 785 0444 13040103 		addi	s0,sp,48
 786              		.cfi_def_cfa 8, 0
 787 0448 13090500 		mv	s2,a0
 788 044c 138A0500 		mv	s4,a1
 789 0450 93090600 		mv	s3,a2
 790 0454 93840600 		mv	s1,a3
 187:src/kern_threads.cpp ****     *handle=0;
 791              		.loc 1 187 5
 792              		.loc 1 187 12 is_stmt 0
 793 0458 23300500 		sd	zero,0(a0)
 188:src/kern_threads.cpp ****     thread_t t= (thread_t)kmem_cache_alloc(threads_cache);
 794              		.loc 1 188 5 is_stmt 1
 795              		.loc 1 188 43 is_stmt 0
 796 045c 17050000 		ld	a0,.LANCHOR0
 796      03350500 
 797              	.LVL46:
 798 0464 97000000 		call	_Z16kmem_cache_allocP12kmem_cache_s@plt
 798      E7800000 
 799              	.LVL47:
 189:src/kern_threads.cpp ****     if(t==0) return -1;
 800              		.loc 1 189 5 is_stmt 1
GAS LISTING /tmp/ccO5XAsk.s 			page 23


 801 046c 630C0508 		beqz	a0,.L44
 190:src/kern_threads.cpp ****     *handle=t;
 802              		.loc 1 190 5
 803              		.loc 1 190 12 is_stmt 0
 804 0470 2330A900 		sd	a0,0(s2)
 191:src/kern_threads.cpp **** 
 192:src/kern_threads.cpp ****     t->id=++id;
 805              		.loc 1 192 5 is_stmt 1
 806              		.loc 1 192 11 is_stmt 0
 807 0474 17070000 		lla	a4,.LANCHOR0
 807      13070700 
 808 047c 83278700 		lw	a5,8(a4)
 809 0480 9B871700 		addiw	a5,a5,1
 810 0484 9B860700 		sext.w	a3,a5
 811              		.loc 1 192 10
 812 0488 2324F700 		sw	a5,8(a4)
 813 048c 2338D500 		sd	a3,16(a0)
 193:src/kern_threads.cpp ****     t->status=READY;
 814              		.loc 1 193 5 is_stmt 1
 815              		.loc 1 193 14 is_stmt 0
 816 0490 93072000 		li	a5,2
 817 0494 2328F504 		sw	a5,80(a0)
 194:src/kern_threads.cpp ****     t->arg=arg;
 818              		.loc 1 194 5 is_stmt 1
 819              		.loc 1 194 11 is_stmt 0
 820 0498 23303503 		sd	s3,32(a0)
 195:src/kern_threads.cpp ****     t->joined_tid=-1;
 821              		.loc 1 195 5 is_stmt 1
 822              		.loc 1 195 18 is_stmt 0
 823 049c 9307F0FF 		li	a5,-1
 824 04a0 2334F502 		sd	a5,40(a0)
 196:src/kern_threads.cpp ****     t->timeslice=DEFAULT_TIME_SLICE;
 825              		.loc 1 196 5 is_stmt 1
 826              		.loc 1 196 17 is_stmt 0
 827 04a4 93072000 		li	a5,2
 828 04a8 2338F502 		sd	a5,48(a0)
 197:src/kern_threads.cpp ****     t->body=start_routine;
 829              		.loc 1 197 5 is_stmt 1
 830              		.loc 1 197 12 is_stmt 0
 831 04ac 233C4501 		sd	s4,24(a0)
 198:src/kern_threads.cpp ****     t->stack_space = ((uint64)stack_space);
 832              		.loc 1 198 5 is_stmt 1
 833              		.loc 1 198 20 is_stmt 0
 834 04b0 23309504 		sd	s1,64(a0)
 199:src/kern_threads.cpp ****     t->sp = t->stack_space+(DEFAULT_STACK_SIZE);
 835              		.loc 1 199 5 is_stmt 1
 836              		.loc 1 199 27 is_stmt 0
 837 04b4 B7160000 		li	a3,4096
 838 04b8 B384D400 		add	s1,s1,a3
 839              	.LVL48:
 840              		.loc 1 199 11
 841 04bc 23349500 		sd	s1,8(a0)
 200:src/kern_threads.cpp ****     t->ra=(uint64) &kern_thread_wrapper;
 842              		.loc 1 200 5 is_stmt 1
 843              		.loc 1 200 10 is_stmt 0
 844 04c0 97070000 		lla	a5,_Z19kern_thread_wrapperv
 844      93870700 
GAS LISTING /tmp/ccO5XAsk.s 			page 24


 845 04c8 2330F500 		sd	a5,0(a0)
 201:src/kern_threads.cpp ****     t->sem_next=0;
 846              		.loc 1 201 5 is_stmt 1
 847              		.loc 1 201 16 is_stmt 0
 848 04cc 233C0504 		sd	zero,88(a0)
 202:src/kern_threads.cpp ****     t->next_thread=0;
 849              		.loc 1 202 5 is_stmt 1
 850              		.loc 1 202 19 is_stmt 0
 851 04d0 23300506 		sd	zero,96(a0)
 203:src/kern_threads.cpp ****     t->mailbox=0;
 852              		.loc 1 203 5 is_stmt 1
 853              		.loc 1 203 15 is_stmt 0
 854 04d4 23340504 		sd	zero,72(a0)
 204:src/kern_threads.cpp ****     kern_scheduler_put(t);
 855              		.loc 1 204 5 is_stmt 1
 856              		.loc 1 204 23 is_stmt 0
 857 04d8 97000000 		call	_Z18kern_scheduler_putP8thread_s
 857      E7800000 
 858              	.LVL49:
 205:src/kern_threads.cpp **** 
 206:src/kern_threads.cpp ****     return 0;
 859              		.loc 1 206 5 is_stmt 1
 860              		.loc 1 206 12 is_stmt 0
 861 04e0 13050000 		li	a0,0
 862              	.LVL50:
 863              	.L43:
 207:src/kern_threads.cpp **** }
 864              		.loc 1 207 1
 865 04e4 83308102 		ld	ra,40(sp)
 866              		.cfi_remember_state
 867              		.cfi_restore 1
 868 04e8 03340102 		ld	s0,32(sp)
 869              		.cfi_restore 8
 870              		.cfi_def_cfa 2, 48
 871 04ec 83348101 		ld	s1,24(sp)
 872              		.cfi_restore 9
 873 04f0 03390101 		ld	s2,16(sp)
 874              		.cfi_restore 18
 875              	.LVL51:
 876 04f4 83398100 		ld	s3,8(sp)
 877              		.cfi_restore 19
 878              	.LVL52:
 879 04f8 033A0100 		ld	s4,0(sp)
 880              		.cfi_restore 20
 881              	.LVL53:
 882 04fc 13010103 		addi	sp,sp,48
 883              		.cfi_def_cfa_offset 0
 884 0500 67800000 		jr	ra
 885              	.LVL54:
 886              	.L44:
 887              		.cfi_restore_state
 189:src/kern_threads.cpp ****     *handle=t;
 888              		.loc 1 189 22
 889 0504 1305F0FF 		li	a0,-1
 890              	.LVL55:
 891 0508 6FF0DFFD 		j	.L43
 892              		.cfi_endproc
GAS LISTING /tmp/ccO5XAsk.s 			page 25


 893              	.LFE56:
 895              		.align	2
 896              		.globl	_Z16kern_thread_joinP8thread_s
 898              	_Z16kern_thread_joinP8thread_s:
 899              	.LFB57:
 208:src/kern_threads.cpp **** 
 209:src/kern_threads.cpp **** void kern_thread_join(thread_t handle)
 210:src/kern_threads.cpp **** {
 900              		.loc 1 210 1 is_stmt 1
 901              		.cfi_startproc
 902              	.LVL56:
 211:src/kern_threads.cpp ****     if(handle->status==UNUSED) return;
 903              		.loc 1 211 5
 904              		.loc 1 211 16 is_stmt 0
 905 050c 83270505 		lw	a5,80(a0)
 906              		.loc 1 211 5
 907 0510 63940700 		bnez	a5,.L52
 908 0514 67800000 		ret
 909              	.L52:
 210:src/kern_threads.cpp ****     if(handle->status==UNUSED) return;
 910              		.loc 1 210 1
 911 0518 130101FD 		addi	sp,sp,-48
 912              		.cfi_def_cfa_offset 48
 913 051c 23341102 		sd	ra,40(sp)
 914 0520 23308102 		sd	s0,32(sp)
 915              		.cfi_offset 1, -8
 916              		.cfi_offset 8, -16
 917 0524 13040103 		addi	s0,sp,48
 918              		.cfi_def_cfa 8, 0
 212:src/kern_threads.cpp ****     running->joined_tid=handle->id;
 919              		.loc 1 212 5 is_stmt 1
 920              		.loc 1 212 14 is_stmt 0
 921 0528 17070000 		lla	a4,.LANCHOR0
 921      13070700 
 922 0530 83370701 		ld	a5,16(a4)
 923              		.loc 1 212 33
 924 0534 83360501 		ld	a3,16(a0)
 925              		.loc 1 212 24
 926 0538 23B4D702 		sd	a3,40(a5)
 213:src/kern_threads.cpp ****     running->status=JOINED;
 927              		.loc 1 213 5 is_stmt 1
 928              		.loc 1 213 20 is_stmt 0
 929 053c 93064000 		li	a3,4
 930 0540 23A8D704 		sw	a3,80(a5)
 214:src/kern_threads.cpp ****     running->next_thread=scheduler.joined_head;
 931              		.loc 1 214 5 is_stmt 1
 932              		.loc 1 214 36 is_stmt 0
 933 0544 83368702 		ld	a3,40(a4)
 934              		.loc 1 214 25
 935 0548 23B0D706 		sd	a3,96(a5)
 215:src/kern_threads.cpp ****     scheduler.joined_head=running;
 936              		.loc 1 215 5 is_stmt 1
 937              		.loc 1 215 26 is_stmt 0
 938 054c 2334F702 		sd	a5,40(a4)
 216:src/kern_threads.cpp ****     uint64 volatile sstatus = r_sstatus();
 939              		.loc 1 216 5 is_stmt 1
 940              	.LBB34:
GAS LISTING /tmp/ccO5XAsk.s 			page 26


 941              	.LBB35:
 145:src/../h/kern_reg_util.h ****     __asm__ volatile ("csrr %[sstatus], sstatus" : [sstatus] "=r"(sstatus));
 942              		.loc 2 145 5
 146:src/../h/kern_reg_util.h ****     return sstatus;
 943              		.loc 2 146 5
 146:src/../h/kern_reg_util.h ****     return sstatus;
 944              		.loc 2 146 76 is_stmt 0
 945              	#APP
 946              	# 146 "src/../h/kern_reg_util.h" 1
 947              		csrr a5, sstatus
 948              	# 0 "" 2
 949              	#NO_APP
 950 0554 233CF4FC 		sd	a5,-40(s0)
 147:src/../h/kern_reg_util.h **** }
 951              		.loc 2 147 5 is_stmt 1
 147:src/../h/kern_reg_util.h **** }
 952              		.loc 2 147 12 is_stmt 0
 953 0558 833784FD 		ld	a5,-40(s0)
 954              	.LBE35:
 955              	.LBE34:
 956              		.loc 1 216 41
 957 055c 2334F4FE 		sd	a5,-24(s0)
 217:src/kern_threads.cpp ****     uint64 volatile v_sepc = r_sepc();
 958              		.loc 1 217 5 is_stmt 1
 959              	.LBB36:
 960              	.LBB37:
  77:src/../h/kern_reg_util.h ****     __asm__ volatile ("csrr %[sepc], sepc" : [sepc] "=r"(sepc));
 961              		.loc 2 77 5
  78:src/../h/kern_reg_util.h ****     return sepc;
 962              		.loc 2 78 5
  78:src/../h/kern_reg_util.h ****     return sepc;
 963              		.loc 2 78 64 is_stmt 0
 964              	#APP
 965              	# 78 "src/../h/kern_reg_util.h" 1
 966              		csrr a5, sepc
 967              	# 0 "" 2
 968              	#NO_APP
 969 0564 2338F4FC 		sd	a5,-48(s0)
  79:src/../h/kern_reg_util.h **** }
 970              		.loc 2 79 5 is_stmt 1
  79:src/../h/kern_reg_util.h **** }
 971              		.loc 2 79 12 is_stmt 0
 972 0568 833704FD 		ld	a5,-48(s0)
 973              	.LBE37:
 974              	.LBE36:
 975              		.loc 1 217 37
 976 056c 2330F4FE 		sd	a5,-32(s0)
 218:src/kern_threads.cpp ****     kern_thread_yield();
 977              		.loc 1 218 5 is_stmt 1
 978              		.loc 1 218 22 is_stmt 0
 979 0570 97000000 		call	_Z17kern_thread_yieldv
 979      E7800000 
 980              	.LVL57:
 219:src/kern_threads.cpp ****     w_sstatus(sstatus);
 981              		.loc 1 219 5 is_stmt 1
 982              		.loc 1 219 14 is_stmt 0
 983 0578 833784FE 		ld	a5,-24(s0)
GAS LISTING /tmp/ccO5XAsk.s 			page 27


 984              	.LVL58:
 985              	.LBB38:
 986              	.LBB39:
 152:src/../h/kern_reg_util.h **** }
 987              		.loc 2 152 5 is_stmt 1
 152:src/../h/kern_reg_util.h **** }
 988              		.loc 2 152 77 is_stmt 0
 989              	#APP
 990              	# 152 "src/../h/kern_reg_util.h" 1
 991              		csrw sstatus, a5
 992              	# 0 "" 2
 993              	.LVL59:
 994              	#NO_APP
 995              	.LBE39:
 996              	.LBE38:
 220:src/kern_threads.cpp ****     w_sepc(v_sepc);
 997              		.loc 1 220 5 is_stmt 1
 998              		.loc 1 220 11 is_stmt 0
 999 0580 833704FE 		ld	a5,-32(s0)
 1000              	.LVL60:
 1001              	.LBB40:
 1002              	.LBB41:
  84:src/../h/kern_reg_util.h **** }
 1003              		.loc 2 84 5 is_stmt 1
  84:src/../h/kern_reg_util.h **** }
 1004              		.loc 2 84 65 is_stmt 0
 1005              	#APP
 1006              	# 84 "src/../h/kern_reg_util.h" 1
 1007              		csrw sepc, a5
 1008              	# 0 "" 2
 1009              	.LVL61:
 1010              	#NO_APP
 1011              	.LBE41:
 1012              	.LBE40:
 221:src/kern_threads.cpp **** }
 1013              		.loc 1 221 1
 1014 0588 83308102 		ld	ra,40(sp)
 1015              		.cfi_restore 1
 1016 058c 03340102 		ld	s0,32(sp)
 1017              		.cfi_restore 8
 1018              		.cfi_def_cfa 2, 48
 1019 0590 13010103 		addi	sp,sp,48
 1020              		.cfi_def_cfa_offset 0
 1021 0594 67800000 		jr	ra
 1022              		.cfi_endproc
 1023              	.LFE57:
 1025              		.align	2
 1026              		.globl	_Z18kern_thread_wakeupm
 1028              	_Z18kern_thread_wakeupm:
 1029              	.LFB58:
 222:src/kern_threads.cpp **** 
 223:src/kern_threads.cpp **** void kern_thread_wakeup(uint64 system_time)
 224:src/kern_threads.cpp **** {
 1030              		.loc 1 224 1 is_stmt 1
 1031              		.cfi_startproc
 1032              	.LVL62:
 1033 0598 130101FD 		addi	sp,sp,-48
GAS LISTING /tmp/ccO5XAsk.s 			page 28


 1034              		.cfi_def_cfa_offset 48
 1035 059c 23341102 		sd	ra,40(sp)
 1036 05a0 23308102 		sd	s0,32(sp)
 1037 05a4 233C9100 		sd	s1,24(sp)
 1038 05a8 23382101 		sd	s2,16(sp)
 1039 05ac 23343101 		sd	s3,8(sp)
 1040              		.cfi_offset 1, -8
 1041              		.cfi_offset 8, -16
 1042              		.cfi_offset 9, -24
 1043              		.cfi_offset 18, -32
 1044              		.cfi_offset 19, -40
 1045 05b0 13040103 		addi	s0,sp,48
 1046              		.cfi_def_cfa 8, 0
 1047 05b4 93090500 		mv	s3,a0
 225:src/kern_threads.cpp ****     thread_t curr = scheduler.sleeping_head;
 1048              		.loc 1 225 5
 1049              		.loc 1 225 14 is_stmt 0
 1050 05b8 17050000 		ld	a0,.LANCHOR0+48
 1050      03350500 
 1051              	.LVL63:
 226:src/kern_threads.cpp ****     thread_t prev = 0;
 1052              		.loc 1 226 5 is_stmt 1
 227:src/kern_threads.cpp ****     thread_t next = 0;
 1053              		.loc 1 227 5
 226:src/kern_threads.cpp ****     thread_t prev = 0;
 1054              		.loc 1 226 14 is_stmt 0
 1055 05c0 13090000 		li	s2,0
 1056 05c4 6F00C000 		j	.L54
 1057              	.LVL64:
 1058              	.L59:
 228:src/kern_threads.cpp ****     while (curr!=0){
 229:src/kern_threads.cpp ****         next=curr->next_thread;
 230:src/kern_threads.cpp ****         if(curr->endTime<=system_time){
 231:src/kern_threads.cpp ****             if(prev!=0){
 232:src/kern_threads.cpp ****                 prev->next_thread=curr->next_thread;
 233:src/kern_threads.cpp ****             } else{
 234:src/kern_threads.cpp ****                 scheduler.sleeping_head=curr->next_thread;
 235:src/kern_threads.cpp ****             }
 236:src/kern_threads.cpp ****             kern_scheduler_put(curr);
 237:src/kern_threads.cpp ****         } else{
 238:src/kern_threads.cpp ****             prev=curr;
 1059              		.loc 1 238 17
 1060 05c8 13090500 		mv	s2,a0
 1061              	.LVL65:
 1062              	.L56:
 1063 05cc 13850400 		mv	a0,s1
 1064              	.LVL66:
 1065              	.L54:
 228:src/kern_threads.cpp ****     while (curr!=0){
 1066              		.loc 1 228 5 is_stmt 1
 228:src/kern_threads.cpp ****     while (curr!=0){
 1067              		.loc 1 228 16
 1068 05d0 63080502 		beqz	a0,.L53
 229:src/kern_threads.cpp ****         if(curr->endTime<=system_time){
 1069              		.loc 1 229 9
 229:src/kern_threads.cpp ****         if(curr->endTime<=system_time){
 1070              		.loc 1 229 13 is_stmt 0
GAS LISTING /tmp/ccO5XAsk.s 			page 29


 1071 05d4 83340506 		ld	s1,96(a0)
 1072              	.LVL67:
 230:src/kern_threads.cpp ****             if(prev!=0){
 1073              		.loc 1 230 9 is_stmt 1
 230:src/kern_threads.cpp ****             if(prev!=0){
 1074              		.loc 1 230 18 is_stmt 0
 1075 05d8 83378503 		ld	a5,56(a0)
 230:src/kern_threads.cpp ****             if(prev!=0){
 1076              		.loc 1 230 9
 1077 05dc E3E6F9FE 		bgtu	a5,s3,.L59
 231:src/kern_threads.cpp ****                 prev->next_thread=curr->next_thread;
 1078              		.loc 1 231 13 is_stmt 1
 1079 05e0 630A0900 		beqz	s2,.L57
 232:src/kern_threads.cpp ****             } else{
 1080              		.loc 1 232 17
 232:src/kern_threads.cpp ****             } else{
 1081              		.loc 1 232 34 is_stmt 0
 1082 05e4 23309906 		sd	s1,96(s2)
 1083              	.L58:
 236:src/kern_threads.cpp ****         } else{
 1084              		.loc 1 236 13 is_stmt 1
 236:src/kern_threads.cpp ****         } else{
 1085              		.loc 1 236 31 is_stmt 0
 1086 05e8 97000000 		call	_Z18kern_scheduler_putP8thread_s
 1086      E7800000 
 1087              	.LVL68:
 1088 05f0 6FF0DFFD 		j	.L56
 1089              	.LVL69:
 1090              	.L57:
 234:src/kern_threads.cpp ****             }
 1091              		.loc 1 234 17 is_stmt 1
 234:src/kern_threads.cpp ****             }
 1092              		.loc 1 234 40 is_stmt 0
 1093 05f4 97070000 		sd	s1,.LANCHOR0+48,a5
 1093      23B09700 
 1094 05fc 6FF0DFFE 		j	.L58
 1095              	.LVL70:
 1096              	.L53:
 239:src/kern_threads.cpp ****         }
 240:src/kern_threads.cpp ****         curr=next;
 241:src/kern_threads.cpp ****     }
 242:src/kern_threads.cpp **** 
 243:src/kern_threads.cpp **** }
 1097              		.loc 1 243 1
 1098 0600 83308102 		ld	ra,40(sp)
 1099              		.cfi_restore 1
 1100 0604 03340102 		ld	s0,32(sp)
 1101              		.cfi_restore 8
 1102              		.cfi_def_cfa 2, 48
 1103 0608 83348101 		ld	s1,24(sp)
 1104              		.cfi_restore 9
 1105 060c 03390101 		ld	s2,16(sp)
 1106              		.cfi_restore 18
 1107              	.LVL71:
 1108 0610 83398100 		ld	s3,8(sp)
 1109              		.cfi_restore 19
 1110              	.LVL72:
GAS LISTING /tmp/ccO5XAsk.s 			page 30


 1111 0614 13010103 		addi	sp,sp,48
 1112              		.cfi_def_cfa_offset 0
 1113 0618 67800000 		jr	ra
 1114              		.cfi_endproc
 1115              	.LFE58:
 1117              		.align	2
 1118              		.globl	_Z17kern_thread_sleepm
 1120              	_Z17kern_thread_sleepm:
 1121              	.LFB59:
 244:src/kern_threads.cpp **** 
 245:src/kern_threads.cpp **** void kern_thread_sleep(uint64 wakeTime)
 246:src/kern_threads.cpp **** {
 1122              		.loc 1 246 1 is_stmt 1
 1123              		.cfi_startproc
 1124              	.LVL73:
 1125 061c 130101FD 		addi	sp,sp,-48
 1126              		.cfi_def_cfa_offset 48
 1127 0620 23341102 		sd	ra,40(sp)
 1128 0624 23308102 		sd	s0,32(sp)
 1129              		.cfi_offset 1, -8
 1130              		.cfi_offset 8, -16
 1131 0628 13040103 		addi	s0,sp,48
 1132              		.cfi_def_cfa 8, 0
 247:src/kern_threads.cpp ****     running->status=SLEEPING;
 1133              		.loc 1 247 5
 1134              		.loc 1 247 14 is_stmt 0
 1135 062c 17070000 		lla	a4,.LANCHOR0
 1135      13070700 
 1136 0634 83370701 		ld	a5,16(a4)
 1137              		.loc 1 247 20
 1138 0638 93065000 		li	a3,5
 1139 063c 23A8D704 		sw	a3,80(a5)
 248:src/kern_threads.cpp ****     running->endTime=wakeTime;
 1140              		.loc 1 248 5 is_stmt 1
 1141              		.loc 1 248 21 is_stmt 0
 1142 0640 23BCA702 		sd	a0,56(a5)
 249:src/kern_threads.cpp ****     running->next_thread=scheduler.sleeping_head;
 1143              		.loc 1 249 5 is_stmt 1
 1144              		.loc 1 249 36 is_stmt 0
 1145 0644 83360703 		ld	a3,48(a4)
 1146              		.loc 1 249 25
 1147 0648 23B0D706 		sd	a3,96(a5)
 250:src/kern_threads.cpp ****     scheduler.sleeping_head=running;
 1148              		.loc 1 250 5 is_stmt 1
 1149              		.loc 1 250 28 is_stmt 0
 1150 064c 2338F702 		sd	a5,48(a4)
 251:src/kern_threads.cpp ****     uint64 volatile sstatus = r_sstatus();
 1151              		.loc 1 251 5 is_stmt 1
 1152              	.LBB42:
 1153              	.LBB43:
 145:src/../h/kern_reg_util.h ****     __asm__ volatile ("csrr %[sstatus], sstatus" : [sstatus] "=r"(sstatus));
 1154              		.loc 2 145 5
 146:src/../h/kern_reg_util.h ****     return sstatus;
 1155              		.loc 2 146 5
 146:src/../h/kern_reg_util.h ****     return sstatus;
 1156              		.loc 2 146 76 is_stmt 0
 1157              	#APP
GAS LISTING /tmp/ccO5XAsk.s 			page 31


 1158              	# 146 "src/../h/kern_reg_util.h" 1
 1159              		csrr a5, sstatus
 1160              	# 0 "" 2
 1161              	#NO_APP
 1162 0654 233CF4FC 		sd	a5,-40(s0)
 147:src/../h/kern_reg_util.h **** }
 1163              		.loc 2 147 5 is_stmt 1
 147:src/../h/kern_reg_util.h **** }
 1164              		.loc 2 147 12 is_stmt 0
 1165 0658 833784FD 		ld	a5,-40(s0)
 1166              	.LBE43:
 1167              	.LBE42:
 1168              		.loc 1 251 41
 1169 065c 2334F4FE 		sd	a5,-24(s0)
 252:src/kern_threads.cpp ****     uint64 volatile v_sepc = r_sepc();
 1170              		.loc 1 252 5 is_stmt 1
 1171              	.LBB44:
 1172              	.LBB45:
  77:src/../h/kern_reg_util.h ****     __asm__ volatile ("csrr %[sepc], sepc" : [sepc] "=r"(sepc));
 1173              		.loc 2 77 5
  78:src/../h/kern_reg_util.h ****     return sepc;
 1174              		.loc 2 78 5
  78:src/../h/kern_reg_util.h ****     return sepc;
 1175              		.loc 2 78 64 is_stmt 0
 1176              	#APP
 1177              	# 78 "src/../h/kern_reg_util.h" 1
 1178              		csrr a5, sepc
 1179              	# 0 "" 2
 1180              	#NO_APP
 1181 0664 2338F4FC 		sd	a5,-48(s0)
  79:src/../h/kern_reg_util.h **** }
 1182              		.loc 2 79 5 is_stmt 1
  79:src/../h/kern_reg_util.h **** }
 1183              		.loc 2 79 12 is_stmt 0
 1184 0668 833704FD 		ld	a5,-48(s0)
 1185              	.LBE45:
 1186              	.LBE44:
 1187              		.loc 1 252 37
 1188 066c 2330F4FE 		sd	a5,-32(s0)
 253:src/kern_threads.cpp ****     kern_thread_yield();
 1189              		.loc 1 253 5 is_stmt 1
 1190              		.loc 1 253 22 is_stmt 0
 1191 0670 97000000 		call	_Z17kern_thread_yieldv
 1191      E7800000 
 1192              	.LVL74:
 254:src/kern_threads.cpp ****     w_sstatus(sstatus);
 1193              		.loc 1 254 5 is_stmt 1
 1194              		.loc 1 254 14 is_stmt 0
 1195 0678 833784FE 		ld	a5,-24(s0)
 1196              	.LVL75:
 1197              	.LBB46:
 1198              	.LBB47:
 152:src/../h/kern_reg_util.h **** }
 1199              		.loc 2 152 5 is_stmt 1
 152:src/../h/kern_reg_util.h **** }
 1200              		.loc 2 152 77 is_stmt 0
 1201              	#APP
GAS LISTING /tmp/ccO5XAsk.s 			page 32


 1202              	# 152 "src/../h/kern_reg_util.h" 1
 1203              		csrw sstatus, a5
 1204              	# 0 "" 2
 1205              	.LVL76:
 1206              	#NO_APP
 1207              	.LBE47:
 1208              	.LBE46:
 255:src/kern_threads.cpp ****     w_sepc(v_sepc);
 1209              		.loc 1 255 5 is_stmt 1
 1210              		.loc 1 255 11 is_stmt 0
 1211 0680 833704FE 		ld	a5,-32(s0)
 1212              	.LVL77:
 1213              	.LBB48:
 1214              	.LBB49:
  84:src/../h/kern_reg_util.h **** }
 1215              		.loc 2 84 5 is_stmt 1
  84:src/../h/kern_reg_util.h **** }
 1216              		.loc 2 84 65 is_stmt 0
 1217              	#APP
 1218              	# 84 "src/../h/kern_reg_util.h" 1
 1219              		csrw sepc, a5
 1220              	# 0 "" 2
 1221              	.LVL78:
 1222              	#NO_APP
 1223              	.LBE49:
 1224              	.LBE48:
 256:src/kern_threads.cpp **** }
 1225              		.loc 1 256 1
 1226 0688 83308102 		ld	ra,40(sp)
 1227              		.cfi_restore 1
 1228 068c 03340102 		ld	s0,32(sp)
 1229              		.cfi_restore 8
 1230              		.cfi_def_cfa 2, 48
 1231 0690 13010103 		addi	sp,sp,48
 1232              		.cfi_def_cfa_offset 0
 1233 0694 67800000 		jr	ra
 1234              		.cfi_endproc
 1235              	.LFE59:
 1237              		.globl	running
 1238              		.globl	threads_cache
 1239              		.bss
 1240              		.align	3
 1241              		.set	.LANCHOR0,. + 0
 1244              	threads_cache:
 1245 0000 00000000 		.zero	8
 1245      00000000 
 1248              	_ZL2id:
 1249 0008 00000000 		.zero	4
 1250 000c 00000000 		.zero	4
 1253              	running:
 1254 0010 00000000 		.zero	8
 1254      00000000 
 1257              	scheduler:
 1258 0018 00000000 		.zero	32
 1258      00000000 
 1258      00000000 
 1258      00000000 
GAS LISTING /tmp/ccO5XAsk.s 			page 33


 1258      00000000 
 1259              		.text
 1260              	.Letext0:
 1261              		.file 3 "src/../h/../lib/hw.h"
 1262              		.file 4 "src/../h/kern_threads.hpp"
 1263              		.file 5 "/usr/riscv64-linux-gnu/include/c++/9/bits/std_abs.h"
 1264              		.file 6 "/usr/riscv64-linux-gnu/include/c++/9/cstdlib"
 1265              		.file 7 "/usr/riscv64-linux-gnu/include/c++/9/riscv64-linux-gnu/bits/c++config.h"
 1266              		.file 8 "/usr/riscv64-linux-gnu/include/stdlib.h"
 1267              		.file 9 "/usr/riscv64-linux-gnu/include/bits/stdlib-float.h"
 1268              		.file 10 "/usr/riscv64-linux-gnu/include/bits/stdlib-bsearch.h"
 1269              		.file 11 "/usr/riscv64-linux-gnu/include/bits/stdlib.h"
 1270              		.file 12 "/usr/riscv64-linux-gnu/include/c++/9/stdlib.h"
 1271              		.file 13 "src/../h/kern_slab.hpp"
 1272              		.file 14 "src/../h/syscall_c.h"
 1273              		.file 15 "src/../h/kern_memory.hpp"
 1274              		.file 16 "src/../h/printing.hpp"
 1275              		.file 17 "<built-in>"
GAS LISTING /tmp/ccO5XAsk.s 			page 34


DEFINED SYMBOLS
                            *ABS*:0000000000000000 kern_threads.cpp
     /tmp/ccO5XAsk.s:9      .text:0000000000000000 _Z16kern_thread_ctorPv
     /tmp/ccO5XAsk.s:13     .text:0000000000000000 .L0 
     /tmp/ccO5XAsk.s:15     .text:0000000000000000 .L0 
     /tmp/ccO5XAsk.s:16     .text:0000000000000004 .L0 
     /tmp/ccO5XAsk.s:18     .text:0000000000000008 .L0 
     /tmp/ccO5XAsk.s:20     .text:000000000000000c .L0 
     /tmp/ccO5XAsk.s:23     .text:000000000000000c .L0 
     /tmp/ccO5XAsk.s:24     .text:000000000000000c .L0 
     /tmp/ccO5XAsk.s:25     .text:000000000000000c .L0 
     /tmp/ccO5XAsk.s:27     .text:0000000000000010 .L0 
     /tmp/ccO5XAsk.s:28     .text:0000000000000010 .L0 
     /tmp/ccO5XAsk.s:30     .text:0000000000000014 .L0 
     /tmp/ccO5XAsk.s:31     .text:0000000000000014 .L0 
     /tmp/ccO5XAsk.s:33     .text:0000000000000018 .L0 
     /tmp/ccO5XAsk.s:34     .text:0000000000000018 .L0 
     /tmp/ccO5XAsk.s:37     .text:0000000000000020 .L0 
     /tmp/ccO5XAsk.s:38     .text:0000000000000020 .L0 
     /tmp/ccO5XAsk.s:41     .text:0000000000000028 .L0 
     /tmp/ccO5XAsk.s:42     .text:0000000000000028 .L0 
     /tmp/ccO5XAsk.s:44     .text:000000000000002c .L0 
     /tmp/ccO5XAsk.s:45     .text:000000000000002c .L0 
     /tmp/ccO5XAsk.s:46     .text:000000000000002c .L0 
     /tmp/ccO5XAsk.s:48     .text:0000000000000030 .L0 
     /tmp/ccO5XAsk.s:49     .text:0000000000000030 .L0 
     /tmp/ccO5XAsk.s:51     .text:0000000000000034 .L0 
     /tmp/ccO5XAsk.s:52     .text:0000000000000034 .L0 
     /tmp/ccO5XAsk.s:54     .text:0000000000000038 .L0 
     /tmp/ccO5XAsk.s:55     .text:0000000000000038 .L0 
     /tmp/ccO5XAsk.s:57     .text:000000000000003c .L0 
     /tmp/ccO5XAsk.s:58     .text:000000000000003c .L0 
     /tmp/ccO5XAsk.s:60     .text:0000000000000040 .L0 
     /tmp/ccO5XAsk.s:61     .text:0000000000000044 .L0 
     /tmp/ccO5XAsk.s:62     .text:0000000000000044 .L0 
     /tmp/ccO5XAsk.s:64     .text:0000000000000048 .L0 
     /tmp/ccO5XAsk.s:66     .text:000000000000004c .L0 
     /tmp/ccO5XAsk.s:77     .text:000000000000004c _Z16kern_thread_dtorPv
     /tmp/ccO5XAsk.s:80     .text:000000000000004c .L0 
     /tmp/ccO5XAsk.s:82     .text:000000000000004c .L0 
     /tmp/ccO5XAsk.s:83     .text:0000000000000050 .L0 
     /tmp/ccO5XAsk.s:86     .text:0000000000000058 .L0 
     /tmp/ccO5XAsk.s:87     .text:0000000000000058 .L0 
     /tmp/ccO5XAsk.s:89     .text:000000000000005c .L0 
     /tmp/ccO5XAsk.s:92     .text:000000000000005c .L0 
     /tmp/ccO5XAsk.s:93     .text:000000000000005c .L0 
     /tmp/ccO5XAsk.s:94     .text:000000000000005c .L0 
     /tmp/ccO5XAsk.s:100    .text:0000000000000070 .L0 
     /tmp/ccO5XAsk.s:101    .text:0000000000000074 .L0 
     /tmp/ccO5XAsk.s:103    .text:0000000000000078 .L0 
     /tmp/ccO5XAsk.s:104    .text:0000000000000078 .L0 
     /tmp/ccO5XAsk.s:106    .text:000000000000007c .L0 
     /tmp/ccO5XAsk.s:108    .text:0000000000000080 .L0 
     /tmp/ccO5XAsk.s:119    .text:0000000000000080 _Z16kern_thread_initv
     /tmp/ccO5XAsk.s:122    .text:0000000000000080 .L0 
     /tmp/ccO5XAsk.s:123    .text:0000000000000080 .L0 
     /tmp/ccO5XAsk.s:124    .text:0000000000000084 .L0 
GAS LISTING /tmp/ccO5XAsk.s 			page 35


     /tmp/ccO5XAsk.s:128    .text:0000000000000090 .L0 
     /tmp/ccO5XAsk.s:129    .text:0000000000000090 .L0 
     /tmp/ccO5XAsk.s:130    .text:0000000000000090 .L0 
     /tmp/ccO5XAsk.s:132    .text:0000000000000094 .L0 
     /tmp/ccO5XAsk.s:134    .text:0000000000000094 .L0 
     /tmp/ccO5XAsk.s:135    .text:0000000000000094 .L0 
     /tmp/ccO5XAsk.s:142    .text:00000000000000b8 .L0 
     /tmp/ccO5XAsk.s:145    .text:00000000000000c4 .L0 
     /tmp/ccO5XAsk.s:146    .text:00000000000000c4 .L0 
     /tmp/ccO5XAsk.s:148    .text:00000000000000c8 .L0 
     /tmp/ccO5XAsk.s:149    .text:00000000000000c8 .L0 
     /tmp/ccO5XAsk.s:152    .text:00000000000000d0 .L0 
     /tmp/ccO5XAsk.s:153    .text:00000000000000d0 .L0 
     /tmp/ccO5XAsk.s:156    .text:00000000000000d8 .L0 
     /tmp/ccO5XAsk.s:157    .text:00000000000000d8 .L0 
     /tmp/ccO5XAsk.s:159    .text:00000000000000dc .L0 
     /tmp/ccO5XAsk.s:160    .text:00000000000000dc .L0 
     /tmp/ccO5XAsk.s:163    .text:00000000000000e4 .L0 
     /tmp/ccO5XAsk.s:164    .text:00000000000000e4 .L0 
     /tmp/ccO5XAsk.s:166    .text:00000000000000e8 .L0 
     /tmp/ccO5XAsk.s:167    .text:00000000000000e8 .L0 
     /tmp/ccO5XAsk.s:169    .text:00000000000000ec .L0 
     /tmp/ccO5XAsk.s:170    .text:00000000000000ec .L0 
     /tmp/ccO5XAsk.s:172    .text:00000000000000f0 .L0 
     /tmp/ccO5XAsk.s:173    .text:00000000000000f0 .L0 
     /tmp/ccO5XAsk.s:175    .text:00000000000000f4 .L0 
     /tmp/ccO5XAsk.s:176    .text:00000000000000f4 .L0 
     /tmp/ccO5XAsk.s:178    .text:00000000000000f8 .L0 
     /tmp/ccO5XAsk.s:179    .text:00000000000000f8 .L0 
     /tmp/ccO5XAsk.s:181    .text:00000000000000fc .L0 
     /tmp/ccO5XAsk.s:182    .text:00000000000000fc .L0 
     /tmp/ccO5XAsk.s:184    .text:0000000000000100 .L0 
     /tmp/ccO5XAsk.s:185    .text:0000000000000104 .L0 
     /tmp/ccO5XAsk.s:187    .text:0000000000000108 .L0 
     /tmp/ccO5XAsk.s:188    .text:0000000000000108 .L0 
     /tmp/ccO5XAsk.s:190    .text:000000000000010c .L0 
     /tmp/ccO5XAsk.s:192    .text:0000000000000110 .L0 
     /tmp/ccO5XAsk.s:194    .text:0000000000000114 .L0 
     /tmp/ccO5XAsk.s:200    .text:0000000000000114 _Z18kern_scheduler_putP8thread_s
     /tmp/ccO5XAsk.s:203    .text:0000000000000114 .L0 
     /tmp/ccO5XAsk.s:205    .text:0000000000000114 .L0 
     /tmp/ccO5XAsk.s:206    .text:0000000000000118 .L0 
     /tmp/ccO5XAsk.s:208    .text:000000000000011c .L0 
     /tmp/ccO5XAsk.s:210    .text:0000000000000120 .L0 
     /tmp/ccO5XAsk.s:212    .text:0000000000000120 .L0 
     /tmp/ccO5XAsk.s:213    .text:0000000000000120 .L0 
     /tmp/ccO5XAsk.s:216    .text:0000000000000128 .L0 
     /tmp/ccO5XAsk.s:217    .text:0000000000000128 .L0 
     /tmp/ccO5XAsk.s:219    .text:0000000000000130 .L0 
     /tmp/ccO5XAsk.s:221    .text:0000000000000134 .L0 
     /tmp/ccO5XAsk.s:222    .text:0000000000000134 .L0 
     /tmp/ccO5XAsk.s:224    .text:0000000000000138 .L0 
     /tmp/ccO5XAsk.s:225    .text:0000000000000138 .L0 
     /tmp/ccO5XAsk.s:228    .text:0000000000000140 .L0 
     /tmp/ccO5XAsk.s:229    .text:0000000000000140 .L0 
     /tmp/ccO5XAsk.s:231    .text:0000000000000144 .L0 
     /tmp/ccO5XAsk.s:232    .text:0000000000000148 .L0 
GAS LISTING /tmp/ccO5XAsk.s 			page 36


     /tmp/ccO5XAsk.s:233    .text:0000000000000148 .L0 
     /tmp/ccO5XAsk.s:234    .text:0000000000000148 .L0 
     /tmp/ccO5XAsk.s:236    .text:000000000000014c .L0 
     /tmp/ccO5XAsk.s:239    .text:0000000000000150 .L0 
     /tmp/ccO5XAsk.s:241    .text:0000000000000150 .L0 
     /tmp/ccO5XAsk.s:242    .text:0000000000000150 .L0 
     /tmp/ccO5XAsk.s:245    .text:000000000000015c .L0 
     /tmp/ccO5XAsk.s:246    .text:000000000000015c .L0 
     /tmp/ccO5XAsk.s:248    .text:0000000000000164 .L0 
     /tmp/ccO5XAsk.s:254    .text:0000000000000164 _Z18kern_scheduler_getv
     /tmp/ccO5XAsk.s:257    .text:0000000000000164 .L0 
     /tmp/ccO5XAsk.s:258    .text:0000000000000164 .L0 
     /tmp/ccO5XAsk.s:259    .text:0000000000000168 .L0 
     /tmp/ccO5XAsk.s:261    .text:000000000000016c .L0 
     /tmp/ccO5XAsk.s:263    .text:0000000000000170 .L0 
     /tmp/ccO5XAsk.s:265    .text:0000000000000170 .L0 
     /tmp/ccO5XAsk.s:266    .text:0000000000000170 .L0 
     /tmp/ccO5XAsk.s:268    .text:0000000000000178 .L0 
     /tmp/ccO5XAsk.s:271    .text:000000000000017c .L0 
     /tmp/ccO5XAsk.s:272    .text:000000000000017c .L0 
     /tmp/ccO5XAsk.s:273    .text:000000000000017c .L0 
     /tmp/ccO5XAsk.s:275    .text:0000000000000180 .L0 
     /tmp/ccO5XAsk.s:278    .text:000000000000018c .L0 
     /tmp/ccO5XAsk.s:279    .text:000000000000018c .L0 
     /tmp/ccO5XAsk.s:281    .text:0000000000000190 .L0 
     /tmp/ccO5XAsk.s:284    .text:0000000000000194 .L0 
     /tmp/ccO5XAsk.s:285    .text:0000000000000194 .L0 
     /tmp/ccO5XAsk.s:289    .text:0000000000000198 .L0 
     /tmp/ccO5XAsk.s:290    .text:0000000000000198 .L0 
     /tmp/ccO5XAsk.s:291    .text:000000000000019c .L0 
     /tmp/ccO5XAsk.s:292    .text:000000000000019c .L0 
     /tmp/ccO5XAsk.s:293    .text:000000000000019c .L0 
     /tmp/ccO5XAsk.s:295    .text:00000000000001a0 .L0 
     /tmp/ccO5XAsk.s:299    .text:00000000000001a4 .L0 
     /tmp/ccO5XAsk.s:301    .text:00000000000001a4 .L0 
     /tmp/ccO5XAsk.s:302    .text:00000000000001a4 .L0 
     /tmp/ccO5XAsk.s:304    .text:00000000000001b0 .L0 
     /tmp/ccO5XAsk.s:310    .text:00000000000001b0 _Z10popSppSpiev
     /tmp/ccO5XAsk.s:313    .text:00000000000001b0 .L0 
     /tmp/ccO5XAsk.s:314    .text:00000000000001b0 .L0 
     /tmp/ccO5XAsk.s:315    .text:00000000000001b4 .L0 
     /tmp/ccO5XAsk.s:317    .text:00000000000001b8 .L0 
     /tmp/ccO5XAsk.s:319    .text:00000000000001bc .L0 
     /tmp/ccO5XAsk.s:321    .text:00000000000001bc .L0 
src/kern_threads.cpp:109    .text:00000000000001bc .L0 
     /tmp/ccO5XAsk.s:327    .text:00000000000001c0 .L0 
     /tmp/ccO5XAsk.s:329    .text:00000000000001c0 .L0 
     /tmp/ccO5XAsk.s:335    .text:00000000000001c8 .L0 
src/kern_threads.cpp:111    .text:00000000000001c8 .L0 
     /tmp/ccO5XAsk.s:341    .text:00000000000001cc .L0 
     /tmp/ccO5XAsk.s:342    .text:00000000000001d0 .L0 
     /tmp/ccO5XAsk.s:343    .text:00000000000001d0 .L0 
     /tmp/ccO5XAsk.s:345    .text:00000000000001d4 .L0 
     /tmp/ccO5XAsk.s:347    .text:00000000000001d8 .L0 
     /tmp/ccO5XAsk.s:353    .text:00000000000001d8 _Z19kern_thread_wrapperv
     /tmp/ccO5XAsk.s:356    .text:00000000000001d8 .L0 
     /tmp/ccO5XAsk.s:357    .text:00000000000001d8 .L0 
GAS LISTING /tmp/ccO5XAsk.s 			page 37


     /tmp/ccO5XAsk.s:358    .text:00000000000001dc .L0 
     /tmp/ccO5XAsk.s:361    .text:00000000000001e4 .L0 
     /tmp/ccO5XAsk.s:362    .text:00000000000001e4 .L0 
     /tmp/ccO5XAsk.s:364    .text:00000000000001e8 .L0 
     /tmp/ccO5XAsk.s:366    .text:00000000000001e8 .L0 
     /tmp/ccO5XAsk.s:367    .text:00000000000001e8 .L0 
     /tmp/ccO5XAsk.s:370    .text:00000000000001f0 .L0 
     /tmp/ccO5XAsk.s:371    .text:00000000000001f0 .L0 
     /tmp/ccO5XAsk.s:374    .text:00000000000001fc .L0 
     /tmp/ccO5XAsk.s:378    .text:0000000000000204 .L0 
     /tmp/ccO5XAsk.s:379    .text:0000000000000204 .L0 
     /tmp/ccO5XAsk.s:382    .text:000000000000020c .L0 
     /tmp/ccO5XAsk.s:383    .text:0000000000000210 .L0 
     /tmp/ccO5XAsk.s:385    .text:0000000000000214 .L0 
     /tmp/ccO5XAsk.s:386    .text:0000000000000214 .L0 
     /tmp/ccO5XAsk.s:388    .text:0000000000000218 .L0 
     /tmp/ccO5XAsk.s:390    .text:000000000000021c .L0 
     /tmp/ccO5XAsk.s:396    .text:000000000000021c _Z17kern_thread_yieldv
     /tmp/ccO5XAsk.s:399    .text:000000000000021c .L0 
     /tmp/ccO5XAsk.s:400    .text:000000000000021c .L0 
     /tmp/ccO5XAsk.s:401    .text:0000000000000220 .L0 
     /tmp/ccO5XAsk.s:406    .text:0000000000000230 .L0 
     /tmp/ccO5XAsk.s:407    .text:0000000000000230 .L0 
     /tmp/ccO5XAsk.s:408    .text:0000000000000230 .L0 
     /tmp/ccO5XAsk.s:409    .text:0000000000000230 .L0 
     /tmp/ccO5XAsk.s:411    .text:0000000000000234 .L0 
     /tmp/ccO5XAsk.s:413    .text:0000000000000234 .L0 
     /tmp/ccO5XAsk.s:414    .text:0000000000000234 .L0 
     /tmp/ccO5XAsk.s:418    .text:0000000000000240 .L0 
     /tmp/ccO5XAsk.s:419    .text:0000000000000240 .L0 
     /tmp/ccO5XAsk.s:422    .text:0000000000000248 .L0 
     /tmp/ccO5XAsk.s:424    .text:000000000000024c .L0 
     /tmp/ccO5XAsk.s:427    .text:0000000000000254 .L0 
     /tmp/ccO5XAsk.s:428    .text:0000000000000254 .L0 
     /tmp/ccO5XAsk.s:431    .text:000000000000025c .L0 
     /tmp/ccO5XAsk.s:432    .text:000000000000025c .L0 
     /tmp/ccO5XAsk.s:434    .text:0000000000000260 .L0 
     /tmp/ccO5XAsk.s:438    .text:0000000000000268 .L0 
     /tmp/ccO5XAsk.s:439    .text:0000000000000268 .L0 
     /tmp/ccO5XAsk.s:444    .text:0000000000000274 .L0 
     /tmp/ccO5XAsk.s:445    .text:0000000000000278 .L0 
     /tmp/ccO5XAsk.s:446    .text:0000000000000278 .L0 
     /tmp/ccO5XAsk.s:448    .text:000000000000027c .L0 
     /tmp/ccO5XAsk.s:449    .text:000000000000027c .L0 
     /tmp/ccO5XAsk.s:451    .text:0000000000000280 .L0 
     /tmp/ccO5XAsk.s:454    .text:0000000000000284 .L0 
     /tmp/ccO5XAsk.s:456    .text:0000000000000288 .L0 
     /tmp/ccO5XAsk.s:460    .text:000000000000028c .L0 
     /tmp/ccO5XAsk.s:462    .text:000000000000028c .L0 
     /tmp/ccO5XAsk.s:463    .text:000000000000028c .L0 
     /tmp/ccO5XAsk.s:468    .text:0000000000000298 .L0 
     /tmp/ccO5XAsk.s:469    .text:0000000000000298 .L0 
     /tmp/ccO5XAsk.s:472    .text:00000000000002a0 .L0 
     /tmp/ccO5XAsk.s:473    .text:00000000000002a4 .L0 
     /tmp/ccO5XAsk.s:479    .text:00000000000002a4 _Z20kern_thread_dispatchv
     /tmp/ccO5XAsk.s:482    .text:00000000000002a4 .L0 
     /tmp/ccO5XAsk.s:483    .text:00000000000002a4 .L0 
GAS LISTING /tmp/ccO5XAsk.s 			page 38


     /tmp/ccO5XAsk.s:484    .text:00000000000002a8 .L0 
     /tmp/ccO5XAsk.s:487    .text:00000000000002b0 .L0 
     /tmp/ccO5XAsk.s:488    .text:00000000000002b0 .L0 
     /tmp/ccO5XAsk.s:490    .text:00000000000002b4 .L0 
     /tmp/ccO5XAsk.s:492    .text:00000000000002b4 .L0 
     /tmp/ccO5XAsk.s:493    .text:00000000000002b4 .L0 
     /tmp/ccO5XAsk.s:500    .text:00000000000002c4 .L0 
     /tmp/ccO5XAsk.s:501    .text:00000000000002c4 .L0 
     /tmp/ccO5XAsk.s:502    .text:00000000000002c4 .L0 
src/../h/kern_reg_util.h:146    .text:00000000000002c4 .L0 
     /tmp/ccO5XAsk.s:510    .text:00000000000002cc .L0 
     /tmp/ccO5XAsk.s:511    .text:00000000000002cc .L0 
     /tmp/ccO5XAsk.s:515    .text:00000000000002d0 .L0 
     /tmp/ccO5XAsk.s:519    .text:00000000000002d4 .L0 
     /tmp/ccO5XAsk.s:520    .text:00000000000002d4 .L0 
     /tmp/ccO5XAsk.s:521    .text:00000000000002d4 .L0 
src/../h/kern_reg_util.h:78     .text:00000000000002d4 .L0 
     /tmp/ccO5XAsk.s:529    .text:00000000000002dc .L0 
     /tmp/ccO5XAsk.s:530    .text:00000000000002dc .L0 
     /tmp/ccO5XAsk.s:534    .text:00000000000002e0 .L0 
     /tmp/ccO5XAsk.s:536    .text:00000000000002e4 .L0 
     /tmp/ccO5XAsk.s:537    .text:00000000000002e4 .L0 
     /tmp/ccO5XAsk.s:540    .text:00000000000002ec .L0 
     /tmp/ccO5XAsk.s:541    .text:00000000000002ec .L0 
     /tmp/ccO5XAsk.s:546    .text:00000000000002f0 .L0 
src/../h/kern_reg_util.h:152    .text:00000000000002f0 .L0 
     /tmp/ccO5XAsk.s:556    .text:00000000000002f4 .L0 
     /tmp/ccO5XAsk.s:557    .text:00000000000002f4 .L0 
     /tmp/ccO5XAsk.s:562    .text:00000000000002f8 .L0 
src/../h/kern_reg_util.h:84     .text:00000000000002f8 .L0 
     /tmp/ccO5XAsk.s:572    .text:00000000000002fc .L0 
     /tmp/ccO5XAsk.s:573    .text:0000000000000300 .L0 
     /tmp/ccO5XAsk.s:575    .text:0000000000000304 .L0 
     /tmp/ccO5XAsk.s:576    .text:0000000000000304 .L0 
     /tmp/ccO5XAsk.s:578    .text:0000000000000308 .L0 
     /tmp/ccO5XAsk.s:580    .text:000000000000030c .L0 
     /tmp/ccO5XAsk.s:586    .text:000000000000030c _Z25kern_thread_resume_joinedm
     /tmp/ccO5XAsk.s:589    .text:000000000000030c .L0 
     /tmp/ccO5XAsk.s:591    .text:000000000000030c .L0 
     /tmp/ccO5XAsk.s:592    .text:0000000000000310 .L0 
     /tmp/ccO5XAsk.s:598    .text:0000000000000324 .L0 
     /tmp/ccO5XAsk.s:599    .text:0000000000000324 .L0 
     /tmp/ccO5XAsk.s:600    .text:0000000000000324 .L0 
     /tmp/ccO5XAsk.s:601    .text:0000000000000324 .L0 
     /tmp/ccO5XAsk.s:602    .text:0000000000000324 .L0 
     /tmp/ccO5XAsk.s:604    .text:0000000000000328 .L0 
     /tmp/ccO5XAsk.s:607    .text:000000000000032c .L0 
     /tmp/ccO5XAsk.s:608    .text:000000000000032c .L0 
     /tmp/ccO5XAsk.s:611    .text:0000000000000334 .L0 
     /tmp/ccO5XAsk.s:612    .text:0000000000000334 .L0 
     /tmp/ccO5XAsk.s:613    .text:0000000000000334 .L0 
     /tmp/ccO5XAsk.s:618    .text:000000000000033c .L0 
     /tmp/ccO5XAsk.s:625    .text:0000000000000344 .L0 
     /tmp/ccO5XAsk.s:626    .text:0000000000000344 .L0 
     /tmp/ccO5XAsk.s:628    .text:0000000000000348 .L0 
     /tmp/ccO5XAsk.s:629    .text:0000000000000348 .L0 
     /tmp/ccO5XAsk.s:632    .text:000000000000034c .L0 
GAS LISTING /tmp/ccO5XAsk.s 			page 39


     /tmp/ccO5XAsk.s:633    .text:000000000000034c .L0 
     /tmp/ccO5XAsk.s:635    .text:0000000000000350 .L0 
     /tmp/ccO5XAsk.s:637    .text:0000000000000354 .L0 
     /tmp/ccO5XAsk.s:639    .text:0000000000000358 .L0 
     /tmp/ccO5XAsk.s:640    .text:0000000000000358 .L0 
     /tmp/ccO5XAsk.s:643    .text:000000000000035c .L0 
     /tmp/ccO5XAsk.s:644    .text:000000000000035c .L0 
     /tmp/ccO5XAsk.s:650    .text:0000000000000368 .L0 
     /tmp/ccO5XAsk.s:651    .text:0000000000000368 .L0 
     /tmp/ccO5XAsk.s:656    .text:0000000000000374 .L0 
     /tmp/ccO5XAsk.s:657    .text:0000000000000378 .L0 
     /tmp/ccO5XAsk.s:659    .text:000000000000037c .L0 
     /tmp/ccO5XAsk.s:660    .text:000000000000037c .L0 
     /tmp/ccO5XAsk.s:662    .text:0000000000000380 .L0 
     /tmp/ccO5XAsk.s:664    .text:0000000000000384 .L0 
     /tmp/ccO5XAsk.s:667    .text:0000000000000388 .L0 
     /tmp/ccO5XAsk.s:670    .text:000000000000038c .L0 
     /tmp/ccO5XAsk.s:672    .text:0000000000000390 .L0 
     /tmp/ccO5XAsk.s:678    .text:0000000000000390 _Z23kern_thread_end_runningv
     /tmp/ccO5XAsk.s:681    .text:0000000000000390 .L0 
     /tmp/ccO5XAsk.s:682    .text:0000000000000390 .L0 
     /tmp/ccO5XAsk.s:683    .text:0000000000000394 .L0 
     /tmp/ccO5XAsk.s:688    .text:00000000000003a4 .L0 
     /tmp/ccO5XAsk.s:689    .text:00000000000003a4 .L0 
     /tmp/ccO5XAsk.s:690    .text:00000000000003a4 .L0 
     /tmp/ccO5XAsk.s:691    .text:00000000000003a4 .L0 
     /tmp/ccO5XAsk.s:693    .text:00000000000003a8 .L0 
     /tmp/ccO5XAsk.s:695    .text:00000000000003a8 .L0 
     /tmp/ccO5XAsk.s:696    .text:00000000000003a8 .L0 
     /tmp/ccO5XAsk.s:700    .text:00000000000003b4 .L0 
     /tmp/ccO5XAsk.s:701    .text:00000000000003b4 .L0 
     /tmp/ccO5XAsk.s:703    .text:00000000000003b8 .L0 
     /tmp/ccO5XAsk.s:704    .text:00000000000003b8 .L0 
     /tmp/ccO5XAsk.s:708    .text:00000000000003c4 .L0 
     /tmp/ccO5XAsk.s:709    .text:00000000000003c4 .L0 
     /tmp/ccO5XAsk.s:712    .text:00000000000003cc .L0 
     /tmp/ccO5XAsk.s:714    .text:00000000000003d0 .L0 
     /tmp/ccO5XAsk.s:715    .text:00000000000003d0 .L0 
     /tmp/ccO5XAsk.s:717    .text:00000000000003d4 .L0 
     /tmp/ccO5XAsk.s:720    .text:00000000000003d8 .L0 
     /tmp/ccO5XAsk.s:721    .text:00000000000003d8 .L0 
     /tmp/ccO5XAsk.s:727    .text:00000000000003f0 .L0 
     /tmp/ccO5XAsk.s:728    .text:00000000000003f0 .L0 
     /tmp/ccO5XAsk.s:730    .text:00000000000003f4 .L0 
     /tmp/ccO5XAsk.s:732    .text:00000000000003f8 .L0 
     /tmp/ccO5XAsk.s:733    .text:00000000000003f8 .L0 
     /tmp/ccO5XAsk.s:738    .text:0000000000000404 .L0 
     /tmp/ccO5XAsk.s:739    .text:0000000000000408 .L0 
     /tmp/ccO5XAsk.s:740    .text:0000000000000408 .L0 
     /tmp/ccO5XAsk.s:742    .text:000000000000040c .L0 
     /tmp/ccO5XAsk.s:743    .text:000000000000040c .L0 
     /tmp/ccO5XAsk.s:745    .text:0000000000000410 .L0 
     /tmp/ccO5XAsk.s:748    .text:0000000000000414 .L0 
     /tmp/ccO5XAsk.s:750    .text:0000000000000418 .L0 
     /tmp/ccO5XAsk.s:754    .text:000000000000041c .L0 
     /tmp/ccO5XAsk.s:756    .text:000000000000041c .L0 
     /tmp/ccO5XAsk.s:757    .text:000000000000041c .L0 
GAS LISTING /tmp/ccO5XAsk.s 			page 40


     /tmp/ccO5XAsk.s:760    .text:0000000000000428 .L0 
     /tmp/ccO5XAsk.s:766    .text:0000000000000428 _Z18kern_thread_createPP8thread_sPFvPvES2_S2_
     /tmp/ccO5XAsk.s:769    .text:0000000000000428 .L0 
     /tmp/ccO5XAsk.s:771    .text:0000000000000428 .L0 
     /tmp/ccO5XAsk.s:772    .text:000000000000042c .L0 
     /tmp/ccO5XAsk.s:779    .text:0000000000000444 .L0 
     /tmp/ccO5XAsk.s:780    .text:0000000000000444 .L0 
     /tmp/ccO5XAsk.s:781    .text:0000000000000444 .L0 
     /tmp/ccO5XAsk.s:782    .text:0000000000000444 .L0 
     /tmp/ccO5XAsk.s:783    .text:0000000000000444 .L0 
     /tmp/ccO5XAsk.s:784    .text:0000000000000444 .L0 
     /tmp/ccO5XAsk.s:786    .text:0000000000000448 .L0 
     /tmp/ccO5XAsk.s:792    .text:0000000000000458 .L0 
     /tmp/ccO5XAsk.s:793    .text:0000000000000458 .L0 
     /tmp/ccO5XAsk.s:795    .text:000000000000045c .L0 
     /tmp/ccO5XAsk.s:796    .text:000000000000045c .L0 
     /tmp/ccO5XAsk.s:801    .text:000000000000046c .L0 
     /tmp/ccO5XAsk.s:803    .text:0000000000000470 .L0 
     /tmp/ccO5XAsk.s:804    .text:0000000000000470 .L0 
     /tmp/ccO5XAsk.s:806    .text:0000000000000474 .L0 
     /tmp/ccO5XAsk.s:807    .text:0000000000000474 .L0 
     /tmp/ccO5XAsk.s:812    .text:0000000000000488 .L0 
     /tmp/ccO5XAsk.s:815    .text:0000000000000490 .L0 
     /tmp/ccO5XAsk.s:816    .text:0000000000000490 .L0 
     /tmp/ccO5XAsk.s:819    .text:0000000000000498 .L0 
     /tmp/ccO5XAsk.s:820    .text:0000000000000498 .L0 
     /tmp/ccO5XAsk.s:822    .text:000000000000049c .L0 
     /tmp/ccO5XAsk.s:823    .text:000000000000049c .L0 
     /tmp/ccO5XAsk.s:826    .text:00000000000004a4 .L0 
     /tmp/ccO5XAsk.s:827    .text:00000000000004a4 .L0 
     /tmp/ccO5XAsk.s:830    .text:00000000000004ac .L0 
     /tmp/ccO5XAsk.s:831    .text:00000000000004ac .L0 
     /tmp/ccO5XAsk.s:833    .text:00000000000004b0 .L0 
     /tmp/ccO5XAsk.s:834    .text:00000000000004b0 .L0 
     /tmp/ccO5XAsk.s:836    .text:00000000000004b4 .L0 
     /tmp/ccO5XAsk.s:837    .text:00000000000004b4 .L0 
     /tmp/ccO5XAsk.s:841    .text:00000000000004bc .L0 
     /tmp/ccO5XAsk.s:843    .text:00000000000004c0 .L0 
     /tmp/ccO5XAsk.s:844    .text:00000000000004c0 .L0 
     /tmp/ccO5XAsk.s:847    .text:00000000000004cc .L0 
     /tmp/ccO5XAsk.s:848    .text:00000000000004cc .L0 
     /tmp/ccO5XAsk.s:850    .text:00000000000004d0 .L0 
     /tmp/ccO5XAsk.s:851    .text:00000000000004d0 .L0 
     /tmp/ccO5XAsk.s:853    .text:00000000000004d4 .L0 
     /tmp/ccO5XAsk.s:854    .text:00000000000004d4 .L0 
     /tmp/ccO5XAsk.s:856    .text:00000000000004d8 .L0 
     /tmp/ccO5XAsk.s:857    .text:00000000000004d8 .L0 
     /tmp/ccO5XAsk.s:860    .text:00000000000004e0 .L0 
     /tmp/ccO5XAsk.s:861    .text:00000000000004e0 .L0 
     /tmp/ccO5XAsk.s:865    .text:00000000000004e4 .L0 
     /tmp/ccO5XAsk.s:866    .text:00000000000004e8 .L0 
     /tmp/ccO5XAsk.s:867    .text:00000000000004e8 .L0 
     /tmp/ccO5XAsk.s:869    .text:00000000000004ec .L0 
     /tmp/ccO5XAsk.s:870    .text:00000000000004ec .L0 
     /tmp/ccO5XAsk.s:872    .text:00000000000004f0 .L0 
     /tmp/ccO5XAsk.s:874    .text:00000000000004f4 .L0 
     /tmp/ccO5XAsk.s:877    .text:00000000000004f8 .L0 
GAS LISTING /tmp/ccO5XAsk.s 			page 41


     /tmp/ccO5XAsk.s:880    .text:00000000000004fc .L0 
     /tmp/ccO5XAsk.s:883    .text:0000000000000500 .L0 
     /tmp/ccO5XAsk.s:887    .text:0000000000000504 .L0 
     /tmp/ccO5XAsk.s:889    .text:0000000000000504 .L0 
     /tmp/ccO5XAsk.s:892    .text:000000000000050c .L0 
     /tmp/ccO5XAsk.s:898    .text:000000000000050c _Z16kern_thread_joinP8thread_s
     /tmp/ccO5XAsk.s:901    .text:000000000000050c .L0 
     /tmp/ccO5XAsk.s:903    .text:000000000000050c .L0 
     /tmp/ccO5XAsk.s:904    .text:000000000000050c .L0 
     /tmp/ccO5XAsk.s:905    .text:000000000000050c .L0 
     /tmp/ccO5XAsk.s:907    .text:0000000000000510 .L0 
     /tmp/ccO5XAsk.s:911    .text:0000000000000518 .L0 
     /tmp/ccO5XAsk.s:912    .text:000000000000051c .L0 
     /tmp/ccO5XAsk.s:915    .text:0000000000000524 .L0 
     /tmp/ccO5XAsk.s:916    .text:0000000000000524 .L0 
     /tmp/ccO5XAsk.s:918    .text:0000000000000528 .L0 
     /tmp/ccO5XAsk.s:920    .text:0000000000000528 .L0 
     /tmp/ccO5XAsk.s:921    .text:0000000000000528 .L0 
     /tmp/ccO5XAsk.s:924    .text:0000000000000534 .L0 
     /tmp/ccO5XAsk.s:926    .text:0000000000000538 .L0 
     /tmp/ccO5XAsk.s:928    .text:000000000000053c .L0 
     /tmp/ccO5XAsk.s:929    .text:000000000000053c .L0 
     /tmp/ccO5XAsk.s:932    .text:0000000000000544 .L0 
     /tmp/ccO5XAsk.s:933    .text:0000000000000544 .L0 
     /tmp/ccO5XAsk.s:935    .text:0000000000000548 .L0 
     /tmp/ccO5XAsk.s:937    .text:000000000000054c .L0 
     /tmp/ccO5XAsk.s:938    .text:000000000000054c .L0 
     /tmp/ccO5XAsk.s:942    .text:0000000000000550 .L0 
     /tmp/ccO5XAsk.s:943    .text:0000000000000550 .L0 
     /tmp/ccO5XAsk.s:944    .text:0000000000000550 .L0 
src/../h/kern_reg_util.h:146    .text:0000000000000550 .L0 
     /tmp/ccO5XAsk.s:952    .text:0000000000000558 .L0 
     /tmp/ccO5XAsk.s:953    .text:0000000000000558 .L0 
     /tmp/ccO5XAsk.s:957    .text:000000000000055c .L0 
     /tmp/ccO5XAsk.s:961    .text:0000000000000560 .L0 
     /tmp/ccO5XAsk.s:962    .text:0000000000000560 .L0 
     /tmp/ccO5XAsk.s:963    .text:0000000000000560 .L0 
src/../h/kern_reg_util.h:78     .text:0000000000000560 .L0 
     /tmp/ccO5XAsk.s:971    .text:0000000000000568 .L0 
     /tmp/ccO5XAsk.s:972    .text:0000000000000568 .L0 
     /tmp/ccO5XAsk.s:976    .text:000000000000056c .L0 
     /tmp/ccO5XAsk.s:978    .text:0000000000000570 .L0 
     /tmp/ccO5XAsk.s:979    .text:0000000000000570 .L0 
     /tmp/ccO5XAsk.s:982    .text:0000000000000578 .L0 
     /tmp/ccO5XAsk.s:983    .text:0000000000000578 .L0 
     /tmp/ccO5XAsk.s:988    .text:000000000000057c .L0 
src/../h/kern_reg_util.h:152    .text:000000000000057c .L0 
     /tmp/ccO5XAsk.s:998    .text:0000000000000580 .L0 
     /tmp/ccO5XAsk.s:999    .text:0000000000000580 .L0 
     /tmp/ccO5XAsk.s:1004   .text:0000000000000584 .L0 
src/../h/kern_reg_util.h:84     .text:0000000000000584 .L0 
     /tmp/ccO5XAsk.s:1014   .text:0000000000000588 .L0 
     /tmp/ccO5XAsk.s:1015   .text:000000000000058c .L0 
     /tmp/ccO5XAsk.s:1017   .text:0000000000000590 .L0 
     /tmp/ccO5XAsk.s:1018   .text:0000000000000590 .L0 
     /tmp/ccO5XAsk.s:1020   .text:0000000000000594 .L0 
     /tmp/ccO5XAsk.s:1022   .text:0000000000000598 .L0 
GAS LISTING /tmp/ccO5XAsk.s 			page 42


     /tmp/ccO5XAsk.s:1028   .text:0000000000000598 _Z18kern_thread_wakeupm
     /tmp/ccO5XAsk.s:1031   .text:0000000000000598 .L0 
     /tmp/ccO5XAsk.s:1033   .text:0000000000000598 .L0 
     /tmp/ccO5XAsk.s:1034   .text:000000000000059c .L0 
     /tmp/ccO5XAsk.s:1040   .text:00000000000005b0 .L0 
     /tmp/ccO5XAsk.s:1041   .text:00000000000005b0 .L0 
     /tmp/ccO5XAsk.s:1042   .text:00000000000005b0 .L0 
     /tmp/ccO5XAsk.s:1043   .text:00000000000005b0 .L0 
     /tmp/ccO5XAsk.s:1044   .text:00000000000005b0 .L0 
     /tmp/ccO5XAsk.s:1046   .text:00000000000005b4 .L0 
     /tmp/ccO5XAsk.s:1049   .text:00000000000005b8 .L0 
     /tmp/ccO5XAsk.s:1050   .text:00000000000005b8 .L0 
     /tmp/ccO5XAsk.s:1053   .text:00000000000005c0 .L0 
     /tmp/ccO5XAsk.s:1054   .text:00000000000005c0 .L0 
     /tmp/ccO5XAsk.s:1055   .text:00000000000005c0 .L0 
     /tmp/ccO5XAsk.s:1060   .text:00000000000005c8 .L0 
     /tmp/ccO5XAsk.s:1067   .text:00000000000005d0 .L0 
     /tmp/ccO5XAsk.s:1068   .text:00000000000005d0 .L0 
     /tmp/ccO5XAsk.s:1070   .text:00000000000005d4 .L0 
     /tmp/ccO5XAsk.s:1071   .text:00000000000005d4 .L0 
     /tmp/ccO5XAsk.s:1074   .text:00000000000005d8 .L0 
     /tmp/ccO5XAsk.s:1075   .text:00000000000005d8 .L0 
     /tmp/ccO5XAsk.s:1077   .text:00000000000005dc .L0 
     /tmp/ccO5XAsk.s:1079   .text:00000000000005e0 .L0 
     /tmp/ccO5XAsk.s:1081   .text:00000000000005e4 .L0 
     /tmp/ccO5XAsk.s:1082   .text:00000000000005e4 .L0 
     /tmp/ccO5XAsk.s:1085   .text:00000000000005e8 .L0 
     /tmp/ccO5XAsk.s:1086   .text:00000000000005e8 .L0 
     /tmp/ccO5XAsk.s:1092   .text:00000000000005f4 .L0 
     /tmp/ccO5XAsk.s:1093   .text:00000000000005f4 .L0 
     /tmp/ccO5XAsk.s:1098   .text:0000000000000600 .L0 
     /tmp/ccO5XAsk.s:1099   .text:0000000000000604 .L0 
     /tmp/ccO5XAsk.s:1101   .text:0000000000000608 .L0 
     /tmp/ccO5XAsk.s:1102   .text:0000000000000608 .L0 
     /tmp/ccO5XAsk.s:1104   .text:000000000000060c .L0 
     /tmp/ccO5XAsk.s:1106   .text:0000000000000610 .L0 
     /tmp/ccO5XAsk.s:1109   .text:0000000000000614 .L0 
     /tmp/ccO5XAsk.s:1112   .text:0000000000000618 .L0 
     /tmp/ccO5XAsk.s:1114   .text:000000000000061c .L0 
     /tmp/ccO5XAsk.s:1120   .text:000000000000061c _Z17kern_thread_sleepm
     /tmp/ccO5XAsk.s:1123   .text:000000000000061c .L0 
     /tmp/ccO5XAsk.s:1125   .text:000000000000061c .L0 
     /tmp/ccO5XAsk.s:1126   .text:0000000000000620 .L0 
     /tmp/ccO5XAsk.s:1129   .text:0000000000000628 .L0 
     /tmp/ccO5XAsk.s:1130   .text:0000000000000628 .L0 
     /tmp/ccO5XAsk.s:1132   .text:000000000000062c .L0 
     /tmp/ccO5XAsk.s:1134   .text:000000000000062c .L0 
     /tmp/ccO5XAsk.s:1135   .text:000000000000062c .L0 
     /tmp/ccO5XAsk.s:1138   .text:0000000000000638 .L0 
     /tmp/ccO5XAsk.s:1141   .text:0000000000000640 .L0 
     /tmp/ccO5XAsk.s:1142   .text:0000000000000640 .L0 
     /tmp/ccO5XAsk.s:1144   .text:0000000000000644 .L0 
     /tmp/ccO5XAsk.s:1145   .text:0000000000000644 .L0 
     /tmp/ccO5XAsk.s:1147   .text:0000000000000648 .L0 
     /tmp/ccO5XAsk.s:1149   .text:000000000000064c .L0 
     /tmp/ccO5XAsk.s:1150   .text:000000000000064c .L0 
     /tmp/ccO5XAsk.s:1154   .text:0000000000000650 .L0 
GAS LISTING /tmp/ccO5XAsk.s 			page 43


     /tmp/ccO5XAsk.s:1155   .text:0000000000000650 .L0 
     /tmp/ccO5XAsk.s:1156   .text:0000000000000650 .L0 
src/../h/kern_reg_util.h:146    .text:0000000000000650 .L0 
     /tmp/ccO5XAsk.s:1164   .text:0000000000000658 .L0 
     /tmp/ccO5XAsk.s:1165   .text:0000000000000658 .L0 
     /tmp/ccO5XAsk.s:1169   .text:000000000000065c .L0 
     /tmp/ccO5XAsk.s:1173   .text:0000000000000660 .L0 
     /tmp/ccO5XAsk.s:1174   .text:0000000000000660 .L0 
     /tmp/ccO5XAsk.s:1175   .text:0000000000000660 .L0 
src/../h/kern_reg_util.h:78     .text:0000000000000660 .L0 
     /tmp/ccO5XAsk.s:1183   .text:0000000000000668 .L0 
     /tmp/ccO5XAsk.s:1184   .text:0000000000000668 .L0 
     /tmp/ccO5XAsk.s:1188   .text:000000000000066c .L0 
     /tmp/ccO5XAsk.s:1190   .text:0000000000000670 .L0 
     /tmp/ccO5XAsk.s:1191   .text:0000000000000670 .L0 
     /tmp/ccO5XAsk.s:1194   .text:0000000000000678 .L0 
     /tmp/ccO5XAsk.s:1195   .text:0000000000000678 .L0 
     /tmp/ccO5XAsk.s:1200   .text:000000000000067c .L0 
src/../h/kern_reg_util.h:152    .text:000000000000067c .L0 
     /tmp/ccO5XAsk.s:1210   .text:0000000000000680 .L0 
     /tmp/ccO5XAsk.s:1211   .text:0000000000000680 .L0 
     /tmp/ccO5XAsk.s:1216   .text:0000000000000684 .L0 
src/../h/kern_reg_util.h:84     .text:0000000000000684 .L0 
     /tmp/ccO5XAsk.s:1226   .text:0000000000000688 .L0 
     /tmp/ccO5XAsk.s:1227   .text:000000000000068c .L0 
     /tmp/ccO5XAsk.s:1229   .text:0000000000000690 .L0 
     /tmp/ccO5XAsk.s:1230   .text:0000000000000690 .L0 
     /tmp/ccO5XAsk.s:1232   .text:0000000000000694 .L0 
     /tmp/ccO5XAsk.s:1234   .text:0000000000000698 .L0 
     /tmp/ccO5XAsk.s:1253   .bss:0000000000000010 running
     /tmp/ccO5XAsk.s:1244   .bss:0000000000000000 threads_cache
     /tmp/ccO5XAsk.s:1241   .bss:0000000000000000 .LANCHOR0
     /tmp/ccO5XAsk.s:1248   .bss:0000000000000008 _ZL2id
     /tmp/ccO5XAsk.s:1257   .bss:0000000000000018 scheduler
     /tmp/ccO5XAsk.s:1276   .text:0000000000000698 .L0 
     /tmp/ccO5XAsk.s:71     .rodata.str1.8:0000000000000000 .LC0
     /tmp/ccO5XAsk.s:95     .text:0000000000000060 .L0 
     /tmp/ccO5XAsk.s:135    .text:0000000000000094 .L0 
     /tmp/ccO5XAsk.s:136    .text:000000000000009c .L0 
     /tmp/ccO5XAsk.s:113    .rodata.str1.8:0000000000000020 .LC1
     /tmp/ccO5XAsk.s:138    .text:00000000000000a8 .L0 
     /tmp/ccO5XAsk.s:142    .text:00000000000000b8 .L0 
     /tmp/ccO5XAsk.s:217    .text:0000000000000128 .L0 
     /tmp/ccO5XAsk.s:225    .text:0000000000000138 .L0 
     /tmp/ccO5XAsk.s:242    .text:0000000000000150 .L0 
     /tmp/ccO5XAsk.s:266    .text:0000000000000170 .L0 
     /tmp/ccO5XAsk.s:275    .text:0000000000000180 .L0 
     /tmp/ccO5XAsk.s:302    .text:00000000000001a4 .L0 
     /tmp/ccO5XAsk.s:371    .text:00000000000001f0 .L0 
     /tmp/ccO5XAsk.s:414    .text:0000000000000234 .L0 
     /tmp/ccO5XAsk.s:493    .text:00000000000002b4 .L0 
     /tmp/ccO5XAsk.s:608    .text:000000000000032c .L0 
     /tmp/ccO5XAsk.s:651    .text:0000000000000368 .L0 
     /tmp/ccO5XAsk.s:696    .text:00000000000003a8 .L0 
     /tmp/ccO5XAsk.s:721    .text:00000000000003d8 .L0 
     /tmp/ccO5XAsk.s:796    .text:000000000000045c .L0 
     /tmp/ccO5XAsk.s:807    .text:0000000000000474 .L0 
GAS LISTING /tmp/ccO5XAsk.s 			page 44


     /tmp/ccO5XAsk.s:844    .text:00000000000004c0 .L0 
     /tmp/ccO5XAsk.s:921    .text:0000000000000528 .L0 
     /tmp/ccO5XAsk.s:1050   .text:00000000000005b8 .L0 
     /tmp/ccO5XAsk.s:1093   .text:00000000000005f4 .L0 
     /tmp/ccO5XAsk.s:1135   .text:000000000000062c .L0 
     /tmp/ccO5XAsk.s:238    .text:0000000000000150 .L11
     /tmp/ccO5XAsk.s:226    .text:0000000000000140 .L9
     /tmp/ccO5XAsk.s:288    .text:0000000000000198 .L12
     /tmp/ccO5XAsk.s:298    .text:00000000000001a4 .L16
     /tmp/ccO5XAsk.s:282    .text:0000000000000194 .L14
     /tmp/ccO5XAsk.s:466    .text:0000000000000298 .L22
     /tmp/ccO5XAsk.s:459    .text:000000000000028c .L26
     /tmp/ccO5XAsk.s:436    .text:0000000000000268 .L23
     /tmp/ccO5XAsk.s:442    .text:0000000000000274 .L21
     /tmp/ccO5XAsk.s:623    .text:0000000000000344 .L30
     /tmp/ccO5XAsk.s:654    .text:0000000000000374 .L29
     /tmp/ccO5XAsk.s:616    .text:000000000000033c .L35
     /tmp/ccO5XAsk.s:648    .text:0000000000000368 .L33
     /tmp/ccO5XAsk.s:620    .text:0000000000000340 .L32
     /tmp/ccO5XAsk.s:641    .text:000000000000035c .L34
     /tmp/ccO5XAsk.s:753    .text:000000000000041c .L41
     /tmp/ccO5XAsk.s:736    .text:0000000000000404 .L37
     /tmp/ccO5XAsk.s:718    .text:00000000000003d8 .L38
     /tmp/ccO5XAsk.s:886    .text:0000000000000504 .L44
     /tmp/ccO5XAsk.s:863    .text:00000000000004e4 .L43
     /tmp/ccO5XAsk.s:909    .text:0000000000000518 .L52
     /tmp/ccO5XAsk.s:1065   .text:00000000000005d0 .L54
     /tmp/ccO5XAsk.s:1096   .text:0000000000000600 .L53
     /tmp/ccO5XAsk.s:1058   .text:00000000000005c8 .L59
     /tmp/ccO5XAsk.s:1090   .text:00000000000005f4 .L57
     /tmp/ccO5XAsk.s:1062   .text:00000000000005cc .L56
     /tmp/ccO5XAsk.s:1083   .text:00000000000005e8 .L58
     /tmp/ccO5XAsk.s:3732   .debug_abbrev:0000000000000000 .Ldebug_abbrev0
     /tmp/ccO5XAsk.s:5469   .debug_str:00000000000007e3 .LASF185
     /tmp/ccO5XAsk.s:5445   .debug_str:0000000000000749 .LASF186
     /tmp/ccO5XAsk.s:5387   .debug_str:00000000000005ad .LASF187
     /tmp/ccO5XAsk.s:5      .text:0000000000000000 .Ltext0
     /tmp/ccO5XAsk.s:1260   .text:0000000000000698 .Letext0
     /tmp/ccO5XAsk.s:5159   .debug_line:0000000000000000 .Ldebug_line0
     /tmp/ccO5XAsk.s:5179   .debug_str:0000000000000091 .LASF0
     /tmp/ccO5XAsk.s:5505   .debug_str:0000000000000946 .LASF1
     /tmp/ccO5XAsk.s:5473   .debug_str:00000000000008ad .LASF2
     /tmp/ccO5XAsk.s:5441   .debug_str:0000000000000734 .LASF4
     /tmp/ccO5XAsk.s:5451   .debug_str:0000000000000770 .LASF3
     /tmp/ccO5XAsk.s:5295   .debug_str:0000000000000359 .LASF5
     /tmp/ccO5XAsk.s:5327   .debug_str:0000000000000437 .LASF6
     /tmp/ccO5XAsk.s:5413   .debug_str:0000000000000678 .LASF7
     /tmp/ccO5XAsk.s:5203   .debug_str:000000000000013f .LASF8
     /tmp/ccO5XAsk.s:5499   .debug_str:0000000000000923 .LASF9
     /tmp/ccO5XAsk.s:5301   .debug_str:0000000000000387 .LASF10
     /tmp/ccO5XAsk.s:5239   .debug_str:0000000000000211 .LASF11
     /tmp/ccO5XAsk.s:5349   .debug_str:00000000000004ac .LASF12
     /tmp/ccO5XAsk.s:5305   .debug_str:00000000000003a0 .LASF13
     /tmp/ccO5XAsk.s:5431   .debug_str:00000000000006db .LASF14
     /tmp/ccO5XAsk.s:5307   .debug_str:00000000000003b0 .LASF15
     /tmp/ccO5XAsk.s:5271   .debug_str:00000000000002d9 .LASF16
     /tmp/ccO5XAsk.s:5259   .debug_str:0000000000000298 .LASF188
GAS LISTING /tmp/ccO5XAsk.s 			page 45


     /tmp/ccO5XAsk.s:5279   .debug_str:0000000000000315 .LASF17
     /tmp/ccO5XAsk.s:5385   .debug_str:00000000000005a5 .LASF18
     /tmp/ccO5XAsk.s:5363   .debug_str:0000000000000508 .LASF19
     /tmp/ccO5XAsk.s:5523   .debug_str:0000000000000995 .LASF20
     /tmp/ccO5XAsk.s:5331   .debug_str:0000000000000458 .LASF21
     /tmp/ccO5XAsk.s:5539   .debug_str:0000000000000a2d .LASF22
     /tmp/ccO5XAsk.s:5283   .debug_str:0000000000000327 .LASF96
     /tmp/ccO5XAsk.s:5463   .debug_str:00000000000007c6 .LASF23
     /tmp/ccO5XAsk.s:5459   .debug_str:00000000000007b2 .LASF24
     /tmp/ccO5XAsk.s:5447   .debug_str:000000000000075e .LASF25
     /tmp/ccO5XAsk.s:5489   .debug_str:00000000000008f7 .LASF26
     /tmp/ccO5XAsk.s:5531   .debug_str:00000000000009de .LASF27
     /tmp/ccO5XAsk.s:5541   .debug_str:0000000000000a36 .LASF28
     /tmp/ccO5XAsk.s:5345   .debug_str:00000000000004a0 .LASF29
     /tmp/ccO5XAsk.s:5491   .debug_str:00000000000008ff .LASF30
     /tmp/ccO5XAsk.s:5355   .debug_str:00000000000004d9 .LASF31
     /tmp/ccO5XAsk.s:5285   .debug_str:0000000000000330 .LASF32
     /tmp/ccO5XAsk.s:5521   .debug_str:000000000000098d .LASF33
     /tmp/ccO5XAsk.s:5367   .debug_str:0000000000000521 .LASF39
     /tmp/ccO5XAsk.s:5225   .debug_str:00000000000001c8 .LASF34
     /tmp/ccO5XAsk.s:5227   .debug_str:00000000000001d2 .LASF35
     /tmp/ccO5XAsk.s:5223   .debug_str:00000000000001be .LASF36
     /tmp/ccO5XAsk.s:5235   .debug_str:00000000000001f6 .LASF37
     /tmp/ccO5XAsk.s:5229   .debug_str:00000000000001dc .LASF38
     /tmp/ccO5XAsk.s:5173   .debug_str:0000000000000077 .LASF40
     /tmp/ccO5XAsk.s:5183   .debug_str:00000000000000a3 .LASF189
     /tmp/ccO5XAsk.s:5199   .debug_str:0000000000000113 .LASF41
     /tmp/ccO5XAsk.s:5393   .debug_str:00000000000005f3 .LASF42
     /tmp/ccO5XAsk.s:5245   .debug_str:0000000000000232 .LASF43
     /tmp/ccO5XAsk.s:5519   .debug_str:0000000000000986 .LASF44
     /tmp/ccO5XAsk.s:5325   .debug_str:0000000000000430 .LASF47
     /tmp/ccO5XAsk.s:5347   .debug_str:00000000000004a7 .LASF45
     /tmp/ccO5XAsk.s:5471   .debug_str:00000000000008a7 .LASF46
     /tmp/ccO5XAsk.s:5487   .debug_str:00000000000008ef .LASF48
     /tmp/ccO5XAsk.s:5415   .debug_str:000000000000068b .LASF49
     /tmp/ccO5XAsk.s:5429   .debug_str:00000000000006d4 .LASF50
     /tmp/ccO5XAsk.s:5501   .debug_str:0000000000000931 .LASF51
     /tmp/ccO5XAsk.s:5357   .debug_str:00000000000004e5 .LASF52
     /tmp/ccO5XAsk.s:5507   .debug_str:0000000000000959 .LASF53
     /tmp/ccO5XAsk.s:5323   .debug_str:000000000000042b .LASF54
     /tmp/ccO5XAsk.s:5503   .debug_str:000000000000093a .LASF55
     /tmp/ccO5XAsk.s:5405   .debug_str:000000000000064f .LASF56
     /tmp/ccO5XAsk.s:5257   .debug_str:0000000000000281 .LASF57
     /tmp/ccO5XAsk.s:5375   .debug_str:000000000000054a .LASF58
     /tmp/ccO5XAsk.s:5287   .debug_str:0000000000000339 .LASF78
     /tmp/ccO5XAsk.s:5421   .debug_str:00000000000006a4 .LASF59
     /tmp/ccO5XAsk.s:5317   .debug_str:00000000000003ff .LASF60
     /tmp/ccO5XAsk.s:5511   .debug_str:0000000000000968 .LASF61
     /tmp/ccO5XAsk.s:5513   .debug_str:000000000000096d .LASF62
     /tmp/ccO5XAsk.s:5515   .debug_str:0000000000000972 .LASF63
     /tmp/ccO5XAsk.s:5309   .debug_str:00000000000003c6 .LASF64
     /tmp/ccO5XAsk.s:5215   .debug_str:000000000000017f .LASF65
     /tmp/ccO5XAsk.s:5335   .debug_str:0000000000000466 .LASF66
     /tmp/ccO5XAsk.s:5313   .debug_str:00000000000003e4 .LASF75
     /tmp/ccO5XAsk.s:5161   .debug_str:0000000000000000 .LASF67
     /tmp/ccO5XAsk.s:5497   .debug_str:000000000000091e .LASF68
     /tmp/ccO5XAsk.s:5373   .debug_str:0000000000000545 .LASF69
GAS LISTING /tmp/ccO5XAsk.s 			page 46


     /tmp/ccO5XAsk.s:5249   .debug_str:0000000000000249 .LASF70
     /tmp/ccO5XAsk.s:5177   .debug_str:000000000000008b .LASF71
     /tmp/ccO5XAsk.s:5353   .debug_str:00000000000004d0 .LASF72
     /tmp/ccO5XAsk.s:5189   .debug_str:00000000000000c4 .LASF73
     /tmp/ccO5XAsk.s:5243   .debug_str:000000000000022b .LASF74
     /tmp/ccO5XAsk.s:5543   .debug_str:0000000000000a3e .LASF76
     /tmp/ccO5XAsk.s:5341   .debug_str:0000000000000485 .LASF77
     /tmp/ccO5XAsk.s:5165   .debug_str:0000000000000035 .LASF79
     /tmp/ccO5XAsk.s:5495   .debug_str:0000000000000916 .LASF80
     /tmp/ccO5XAsk.s:5297   .debug_str:0000000000000360 .LASF81
     /tmp/ccO5XAsk.s:5477   .debug_str:00000000000008cc .LASF82
     /tmp/ccO5XAsk.s:5483   .debug_str:00000000000008e3 .LASF83
     /tmp/ccO5XAsk.s:5449   .debug_str:0000000000000768 .LASF84
     /tmp/ccO5XAsk.s:5169   .debug_str:0000000000000053 .LASF85
     /tmp/ccO5XAsk.s:5481   .debug_str:00000000000008da .LASF86
     /tmp/ccO5XAsk.s:5267   .debug_str:00000000000002c1 .LASF87
     /tmp/ccO5XAsk.s:5261   .debug_str:00000000000002a5 .LASF88
     /tmp/ccO5XAsk.s:5397   .debug_str:0000000000000616 .LASF89
     /tmp/ccO5XAsk.s:5275   .debug_str:0000000000000309 .LASF90
     /tmp/ccO5XAsk.s:5277   .debug_str:000000000000030f .LASF91
     /tmp/ccO5XAsk.s:5233   .debug_str:00000000000001ee .LASF92
     /tmp/ccO5XAsk.s:5207   .debug_str:0000000000000155 .LASF93
     /tmp/ccO5XAsk.s:5479   .debug_str:00000000000008d3 .LASF94
     /tmp/ccO5XAsk.s:5231   .debug_str:00000000000001e6 .LASF95
     /tmp/ccO5XAsk.s:5465   .debug_str:00000000000007cb .LASF97
     /tmp/ccO5XAsk.s:5517   .debug_str:0000000000000977 .LASF98
     /tmp/ccO5XAsk.s:5311   .debug_str:00000000000003ce .LASF99
     /tmp/ccO5XAsk.s:5333   .debug_str:000000000000045f .LASF100
     /tmp/ccO5XAsk.s:5255   .debug_str:000000000000026a .LASF101
     /tmp/ccO5XAsk.s:5389   .debug_str:00000000000005c4 .LASF102
     /tmp/ccO5XAsk.s:5175   .debug_str:0000000000000082 .LASF103
     /tmp/ccO5XAsk.s:5467   .debug_str:00000000000007d7 .LASF104
     /tmp/ccO5XAsk.s:5337   .debug_str:000000000000046b .LASF105
     /tmp/ccO5XAsk.s:5399   .debug_str:000000000000061c .LASF106
     /tmp/ccO5XAsk.s:5371   .debug_str:0000000000000537 .LASF107
     /tmp/ccO5XAsk.s:5221   .debug_str:00000000000001b0 .LASF108
     /tmp/ccO5XAsk.s:5263   .debug_str:00000000000002ab .LASF109
     /tmp/ccO5XAsk.s:5461   .debug_str:00000000000007bd .LASF110
     /tmp/ccO5XAsk.s:5185   .debug_str:00000000000000ad .LASF111
     /tmp/ccO5XAsk.s:5403   .debug_str:000000000000064a .LASF112
     /tmp/ccO5XAsk.s:5437   .debug_str:0000000000000725 .LASF113
     /tmp/ccO5XAsk.s:5529   .debug_str:00000000000009d3 .LASF114
     /tmp/ccO5XAsk.s:5205   .debug_str:000000000000014f .LASF115
     /tmp/ccO5XAsk.s:5409   .debug_str:0000000000000660 .LASF116
     /tmp/ccO5XAsk.s:5339   .debug_str:0000000000000478 .LASF117
     /tmp/ccO5XAsk.s:5329   .debug_str:000000000000044a .LASF118
     /tmp/ccO5XAsk.s:5241   .debug_str:0000000000000220 .LASF119
     /tmp/ccO5XAsk.s:5455   .debug_str:0000000000000799 .LASF120
     /tmp/ccO5XAsk.s:5211   .debug_str:0000000000000163 .LASF121
     /tmp/ccO5XAsk.s:5443   .debug_str:000000000000073b .LASF122
     /tmp/ccO5XAsk.s:5321   .debug_str:0000000000000421 .LASF123
     /tmp/ccO5XAsk.s:5191   .debug_str:00000000000000cc .LASF126
     /tmp/ccO5XAsk.s:5201   .debug_str:0000000000000128 .LASF128
     /tmp/ccO5XAsk.s:1121   .text:000000000000061c .LFB59
     /tmp/ccO5XAsk.s:1235   .text:0000000000000698 .LFE59
     /tmp/ccO5XAsk.s:5423   .debug_str:00000000000006ab .LASF130
     /tmp/ccO5XAsk.s:4775   .debug_loc:0000000000000000 .LLST23
GAS LISTING /tmp/ccO5XAsk.s 			page 47


     /tmp/ccO5XAsk.s:5377   .debug_str:0000000000000558 .LASF124
     /tmp/ccO5XAsk.s:5407   .debug_str:0000000000000659 .LASF125
     /tmp/ccO5XAsk.s:1152   .text:0000000000000650 .LBB42
     /tmp/ccO5XAsk.s:1167   .text:000000000000065c .LBE42
     /tmp/ccO5XAsk.s:1171   .text:0000000000000660 .LBB44
     /tmp/ccO5XAsk.s:1186   .text:000000000000066c .LBE44
     /tmp/ccO5XAsk.s:1197   .text:000000000000067c .LBB46
     /tmp/ccO5XAsk.s:1208   .text:0000000000000680 .LBE46
     /tmp/ccO5XAsk.s:4789   .debug_loc:0000000000000039 .LLST24
     /tmp/ccO5XAsk.s:1213   .text:0000000000000684 .LBB48
     /tmp/ccO5XAsk.s:1224   .text:0000000000000688 .LBE48
     /tmp/ccO5XAsk.s:4796   .debug_loc:000000000000005c .LLST25
     /tmp/ccO5XAsk.s:1192   .text:0000000000000678 .LVL74
     /tmp/ccO5XAsk.s:5217   .debug_str:0000000000000186 .LASF127
     /tmp/ccO5XAsk.s:5193   .debug_str:00000000000000de .LASF129
     /tmp/ccO5XAsk.s:1029   .text:0000000000000598 .LFB58
     /tmp/ccO5XAsk.s:1115   .text:000000000000061c .LFE58
     /tmp/ccO5XAsk.s:5411   .debug_str:000000000000066c .LASF131
     /tmp/ccO5XAsk.s:4803   .debug_loc:000000000000007f .LLST19
     /tmp/ccO5XAsk.s:5419   .debug_str:000000000000069f .LASF132
     /tmp/ccO5XAsk.s:4821   .debug_loc:00000000000000cb .LLST20
     /tmp/ccO5XAsk.s:5209   .debug_str:000000000000015e .LASF133
     /tmp/ccO5XAsk.s:4836   .debug_loc:0000000000000114 .LLST21
     /tmp/ccO5XAsk.s:5181   .debug_str:000000000000009e .LASF134
     /tmp/ccO5XAsk.s:4852   .debug_loc:000000000000015e .LLST22
     /tmp/ccO5XAsk.s:1087   .text:00000000000005f0 .LVL68
     /tmp/ccO5XAsk.s:5237   .debug_str:0000000000000200 .LASF135
     /tmp/ccO5XAsk.s:5391   .debug_str:00000000000005d4 .LASF136
     /tmp/ccO5XAsk.s:899    .text:000000000000050c .LFB57
     /tmp/ccO5XAsk.s:1023   .text:0000000000000598 .LFE57
     /tmp/ccO5XAsk.s:5509   .debug_str:0000000000000961 .LASF137
     /tmp/ccO5XAsk.s:4868   .debug_loc:00000000000001a8 .LLST16
     /tmp/ccO5XAsk.s:940    .text:0000000000000550 .LBB34
     /tmp/ccO5XAsk.s:955    .text:000000000000055c .LBE34
     /tmp/ccO5XAsk.s:959    .text:0000000000000560 .LBB36
     /tmp/ccO5XAsk.s:974    .text:000000000000056c .LBE36
     /tmp/ccO5XAsk.s:985    .text:000000000000057c .LBB38
     /tmp/ccO5XAsk.s:996    .text:0000000000000580 .LBE38
     /tmp/ccO5XAsk.s:4882   .debug_loc:00000000000001e1 .LLST17
     /tmp/ccO5XAsk.s:1001   .text:0000000000000584 .LBB40
     /tmp/ccO5XAsk.s:1012   .text:0000000000000588 .LBE40
     /tmp/ccO5XAsk.s:4889   .debug_loc:0000000000000204 .LLST18
     /tmp/ccO5XAsk.s:980    .text:0000000000000578 .LVL57
     /tmp/ccO5XAsk.s:5535   .debug_str:0000000000000a02 .LASF149
     /tmp/ccO5XAsk.s:5163   .debug_str:0000000000000007 .LASF151
     /tmp/ccO5XAsk.s:767    .text:0000000000000428 .LFB56
     /tmp/ccO5XAsk.s:893    .text:000000000000050c .LFE56
     /tmp/ccO5XAsk.s:4896   .debug_loc:0000000000000227 .LLST11
     /tmp/ccO5XAsk.s:5425   .debug_str:00000000000006b4 .LASF138
     /tmp/ccO5XAsk.s:4918   .debug_loc:0000000000000286 .LLST12
     /tmp/ccO5XAsk.s:4940   .debug_loc:00000000000002e5 .LLST13
     /tmp/ccO5XAsk.s:4962   .debug_loc:0000000000000344 .LLST14
     /tmp/ccO5XAsk.s:4995   .debug_loc:00000000000003ce .LLST15
     /tmp/ccO5XAsk.s:799    .text:000000000000046c .LVL47
     /tmp/ccO5XAsk.s:858    .text:00000000000004e0 .LVL49
     /tmp/ccO5XAsk.s:5351   .debug_str:00000000000004bc .LASF139
     /tmp/ccO5XAsk.s:5167   .debug_str:000000000000003a .LASF140
GAS LISTING /tmp/ccO5XAsk.s 			page 48


     /tmp/ccO5XAsk.s:354    .text:00000000000001d8 .LFB55
     /tmp/ccO5XAsk.s:391    .text:000000000000021c .LFE55
     /tmp/ccO5XAsk.s:368    .text:00000000000001f0 .LVL12
     /tmp/ccO5XAsk.s:380    .text:000000000000020c .LVL14
     /tmp/ccO5XAsk.s:5537   .debug_str:0000000000000a15 .LASF141
     /tmp/ccO5XAsk.s:5171   .debug_str:000000000000005a .LASF142
     /tmp/ccO5XAsk.s:679    .text:0000000000000390 .LFB54
     /tmp/ccO5XAsk.s:761    .text:0000000000000428 .LFE54
     /tmp/ccO5XAsk.s:5006   .debug_loc:0000000000000404 .LLST10
     /tmp/ccO5XAsk.s:706    .text:00000000000003c4 .LVL38
     /tmp/ccO5XAsk.s:710    .text:00000000000003cc .LVL39
     /tmp/ccO5XAsk.s:725    .text:00000000000003f0 .LVL40
     /tmp/ccO5XAsk.s:735    .text:0000000000000404 .LVL41
     /tmp/ccO5XAsk.s:758    .text:0000000000000424 .LVL44
     /tmp/ccO5XAsk.s:5433   .debug_str:00000000000006e7 .LASF143
     /tmp/ccO5XAsk.s:5401   .debug_str:000000000000062b .LASF144
     /tmp/ccO5XAsk.s:587    .text:000000000000030c .LFB53
     /tmp/ccO5XAsk.s:673    .text:0000000000000390 .LFE53
     /tmp/ccO5XAsk.s:5017   .debug_loc:000000000000043a .LLST6
     /tmp/ccO5XAsk.s:5035   .debug_loc:0000000000000486 .LLST7
     /tmp/ccO5XAsk.s:5050   .debug_loc:00000000000004cf .LLST8
     /tmp/ccO5XAsk.s:5066   .debug_loc:0000000000000519 .LLST9
     /tmp/ccO5XAsk.s:645    .text:0000000000000364 .LVL32
     /tmp/ccO5XAsk.s:5427   .debug_str:00000000000006c2 .LASF145
     /tmp/ccO5XAsk.s:5453   .debug_str:0000000000000782 .LASF146
     /tmp/ccO5XAsk.s:397    .text:000000000000021c .LFB52
     /tmp/ccO5XAsk.s:474    .text:00000000000002a4 .LFE52
     /tmp/ccO5XAsk.s:5082   .debug_loc:0000000000000563 .LLST3
     /tmp/ccO5XAsk.s:420    .text:0000000000000248 .LVL16
     /tmp/ccO5XAsk.s:441    .text:0000000000000274 .LVL17
     /tmp/ccO5XAsk.s:5417   .debug_str:0000000000000694 .LASF190
     /tmp/ccO5XAsk.s:5343   .debug_str:0000000000000490 .LASF191
     /tmp/ccO5XAsk.s:311    .text:00000000000001b0 .LFB51
     /tmp/ccO5XAsk.s:348    .text:00000000000001d8 .LFE51
     /tmp/ccO5XAsk.s:5379   .debug_str:0000000000000560 .LASF147
     /tmp/ccO5XAsk.s:5273   .debug_str:00000000000002ef .LASF148
     /tmp/ccO5XAsk.s:480    .text:00000000000002a4 .LFB50
     /tmp/ccO5XAsk.s:581    .text:000000000000030c .LFE50
     /tmp/ccO5XAsk.s:497    .text:00000000000002c4 .LBB26
     /tmp/ccO5XAsk.s:513    .text:00000000000002d0 .LBE26
     /tmp/ccO5XAsk.s:517    .text:00000000000002d4 .LBB28
     /tmp/ccO5XAsk.s:532    .text:00000000000002e0 .LBE28
     /tmp/ccO5XAsk.s:543    .text:00000000000002f0 .LBB30
     /tmp/ccO5XAsk.s:554    .text:00000000000002f4 .LBE30
     /tmp/ccO5XAsk.s:5093   .debug_loc:0000000000000599 .LLST4
     /tmp/ccO5XAsk.s:559    .text:00000000000002f8 .LBB32
     /tmp/ccO5XAsk.s:570    .text:00000000000002fc .LBE32
     /tmp/ccO5XAsk.s:5100   .debug_loc:00000000000005bc .LLST5
     /tmp/ccO5XAsk.s:495    .text:00000000000002c4 .LVL20
     /tmp/ccO5XAsk.s:538    .text:00000000000002ec .LVL21
     /tmp/ccO5XAsk.s:5251   .debug_str:0000000000000250 .LASF150
     /tmp/ccO5XAsk.s:5533   .debug_str:00000000000009ea .LASF152
     /tmp/ccO5XAsk.s:255    .text:0000000000000164 .LFB49
     /tmp/ccO5XAsk.s:305    .text:00000000000001b0 .LFE49
     /tmp/ccO5XAsk.s:5107   .debug_loc:00000000000005df .LLST2
     /tmp/ccO5XAsk.s:5365   .debug_str:000000000000050e .LASF153
     /tmp/ccO5XAsk.s:5299   .debug_str:0000000000000366 .LASF154
GAS LISTING /tmp/ccO5XAsk.s 			page 49


     /tmp/ccO5XAsk.s:201    .text:0000000000000114 .LFB48
     /tmp/ccO5XAsk.s:249    .text:0000000000000164 .LFE48
     /tmp/ccO5XAsk.s:5525   .debug_str:000000000000099f .LASF155
     /tmp/ccO5XAsk.s:5315   .debug_str:00000000000003e9 .LASF156
     /tmp/ccO5XAsk.s:120    .text:0000000000000080 .LFB47
     /tmp/ccO5XAsk.s:195    .text:0000000000000114 .LFE47
     /tmp/ccO5XAsk.s:5265   .debug_str:00000000000002b5 .LASF157
     /tmp/ccO5XAsk.s:140    .text:00000000000000b8 .LVL6
     /tmp/ccO5XAsk.s:150    .text:00000000000000d0 .LVL7
     /tmp/ccO5XAsk.s:5475   .debug_str:00000000000008bb .LASF158
     /tmp/ccO5XAsk.s:5219   .debug_str:0000000000000199 .LASF159
     /tmp/ccO5XAsk.s:78     .text:000000000000004c .LFB46
     /tmp/ccO5XAsk.s:109    .text:0000000000000080 .LFE46
     /tmp/ccO5XAsk.s:5485   .debug_str:00000000000008ea .LASF160
     /tmp/ccO5XAsk.s:5118   .debug_loc:0000000000000615 .LLST0
     /tmp/ccO5XAsk.s:5132   .debug_loc:000000000000064e .LLST1
     /tmp/ccO5XAsk.s:98     .text:0000000000000070 .LVL5
     /tmp/ccO5XAsk.s:5269   .debug_str:00000000000002c8 .LASF161
     /tmp/ccO5XAsk.s:5395   .debug_str:00000000000005ff .LASF162
     /tmp/ccO5XAsk.s:10     .text:0000000000000000 .LFB45
     /tmp/ccO5XAsk.s:67     .text:000000000000004c .LFE45
     /tmp/ccO5XAsk.s:5439   .debug_str:000000000000072a .LASF163
     /tmp/ccO5XAsk.s:5361   .debug_str:00000000000004fa .LASF166
     /tmp/ccO5XAsk.s:5303   .debug_str:0000000000000396 .LASF164
     /tmp/ccO5XAsk.s:5289   .debug_str:000000000000033f .LASF170
     /tmp/ccO5XAsk.s:5293   .debug_str:0000000000000352 .LASF165
     /tmp/ccO5XAsk.s:5281   .debug_str:000000000000031c .LASF167
     /tmp/ccO5XAsk.s:5291   .debug_str:000000000000034d .LASF168
     /tmp/ccO5XAsk.s:5253   .debug_str:0000000000000263 .LASF169
     /tmp/ccO5XAsk.s:5383   .debug_str:000000000000059a .LASF171
     /tmp/ccO5XAsk.s:5435   .debug_str:0000000000000701 .LASF172
     /tmp/ccO5XAsk.s:5195   .debug_str:00000000000000f6 .LASF174
     /tmp/ccO5XAsk.s:5247   .debug_str:0000000000000238 .LASF173
     /tmp/ccO5XAsk.s:5197   .debug_str:0000000000000107 .LASF175
     /tmp/ccO5XAsk.s:5381   .debug_str:0000000000000575 .LASF176
     /tmp/ccO5XAsk.s:5213   .debug_str:000000000000016f .LASF177
     /tmp/ccO5XAsk.s:5493   .debug_str:0000000000000908 .LASF178
     /tmp/ccO5XAsk.s:5319   .debug_str:000000000000040d .LASF179
     /tmp/ccO5XAsk.s:5457   .debug_str:00000000000007a4 .LASF180
     /tmp/ccO5XAsk.s:5527   .debug_str:00000000000009b0 .LASF181
     /tmp/ccO5XAsk.s:5187   .debug_str:00000000000000b2 .LASF182
     /tmp/ccO5XAsk.s:5369   .debug_str:0000000000000529 .LASF183
     /tmp/ccO5XAsk.s:5359   .debug_str:00000000000004f3 .LASF184
     /tmp/ccO5XAsk.s:1124   .text:000000000000061c .LVL73
     /tmp/ccO5XAsk.s:1196   .text:000000000000067c .LVL75
     /tmp/ccO5XAsk.s:1205   .text:0000000000000680 .LVL76
     /tmp/ccO5XAsk.s:1212   .text:0000000000000684 .LVL77
     /tmp/ccO5XAsk.s:1221   .text:0000000000000688 .LVL78
     /tmp/ccO5XAsk.s:1032   .text:0000000000000598 .LVL62
     /tmp/ccO5XAsk.s:1051   .text:00000000000005c0 .LVL63
     /tmp/ccO5XAsk.s:1110   .text:0000000000000614 .LVL72
     /tmp/ccO5XAsk.s:1061   .text:00000000000005cc .LVL65
     /tmp/ccO5XAsk.s:1064   .text:00000000000005d0 .LVL66
     /tmp/ccO5XAsk.s:1089   .text:00000000000005f4 .LVL69
     /tmp/ccO5XAsk.s:1057   .text:00000000000005c8 .LVL64
     /tmp/ccO5XAsk.s:1107   .text:0000000000000610 .LVL71
     /tmp/ccO5XAsk.s:1072   .text:00000000000005d8 .LVL67
GAS LISTING /tmp/ccO5XAsk.s 			page 50


     /tmp/ccO5XAsk.s:1095   .text:0000000000000600 .LVL70
     /tmp/ccO5XAsk.s:902    .text:000000000000050c .LVL56
     /tmp/ccO5XAsk.s:984    .text:000000000000057c .LVL58
     /tmp/ccO5XAsk.s:993    .text:0000000000000580 .LVL59
     /tmp/ccO5XAsk.s:1000   .text:0000000000000584 .LVL60
     /tmp/ccO5XAsk.s:1009   .text:0000000000000588 .LVL61
     /tmp/ccO5XAsk.s:770    .text:0000000000000428 .LVL45
     /tmp/ccO5XAsk.s:797    .text:0000000000000464 .LVL46
     /tmp/ccO5XAsk.s:875    .text:00000000000004f4 .LVL51
     /tmp/ccO5XAsk.s:885    .text:0000000000000504 .LVL54
     /tmp/ccO5XAsk.s:881    .text:00000000000004fc .LVL53
     /tmp/ccO5XAsk.s:878    .text:00000000000004f8 .LVL52
     /tmp/ccO5XAsk.s:839    .text:00000000000004bc .LVL48
     /tmp/ccO5XAsk.s:862    .text:00000000000004e4 .LVL50
     /tmp/ccO5XAsk.s:890    .text:0000000000000508 .LVL55
     /tmp/ccO5XAsk.s:698    .text:00000000000003b4 .LVL37
     /tmp/ccO5XAsk.s:746    .text:0000000000000410 .LVL42
     /tmp/ccO5XAsk.s:752    .text:000000000000041c .LVL43
     /tmp/ccO5XAsk.s:590    .text:000000000000030c .LVL26
     /tmp/ccO5XAsk.s:609    .text:0000000000000334 .LVL27
     /tmp/ccO5XAsk.s:668    .text:0000000000000388 .LVL36
     /tmp/ccO5XAsk.s:619    .text:0000000000000340 .LVL29
     /tmp/ccO5XAsk.s:622    .text:0000000000000344 .LVL30
     /tmp/ccO5XAsk.s:647    .text:0000000000000368 .LVL33
     /tmp/ccO5XAsk.s:615    .text:000000000000033c .LVL28
     /tmp/ccO5XAsk.s:665    .text:0000000000000384 .LVL35
     /tmp/ccO5XAsk.s:630    .text:000000000000034c .LVL31
     /tmp/ccO5XAsk.s:653    .text:0000000000000374 .LVL34
     /tmp/ccO5XAsk.s:416    .text:0000000000000240 .LVL15
     /tmp/ccO5XAsk.s:452    .text:0000000000000280 .LVL18
     /tmp/ccO5XAsk.s:458    .text:000000000000028c .LVL19
     /tmp/ccO5XAsk.s:542    .text:00000000000002f0 .LVL22
     /tmp/ccO5XAsk.s:551    .text:00000000000002f4 .LVL23
     /tmp/ccO5XAsk.s:558    .text:00000000000002f8 .LVL24
     /tmp/ccO5XAsk.s:567    .text:00000000000002fc .LVL25
     /tmp/ccO5XAsk.s:270    .text:000000000000017c .LVL9
     /tmp/ccO5XAsk.s:287    .text:0000000000000198 .LVL10
     /tmp/ccO5XAsk.s:297    .text:00000000000001a4 .LVL11
     /tmp/ccO5XAsk.s:81     .text:000000000000004c .LVL2
     /tmp/ccO5XAsk.s:96     .text:0000000000000068 .LVL4
     /tmp/ccO5XAsk.s:91     .text:000000000000005c .LVL3
     /tmp/ccO5XAsk.s:1277   .debug_info:0000000000000000 .Ldebug_info0

UNDEFINED SYMBOLS
_Z6printfPKcz
_Z17kmem_cache_createPKcmPFvPvES3_
_Z16kmem_cache_allocP12kmem_cache_s
_Z11thread_exitv
contextSwitch
_Z15kmem_cache_freeP12kmem_cache_sPv
_Z13kern_mem_freePv
