GAS LISTING /tmp/cc58N0Lo.s 			page 1


   1              		.file	"kern_memory.cpp"
   2              		.option pic
   3              		.option norelax
   4              		.text
   5              	.Ltext0:
   6              		.align	2
   7              		.globl	_Z14kern_mem_alloci
   9              	_Z14kern_mem_alloci:
  10              	.LFB0:
  11              		.file 1 "src/kern_memory.cpp"
   1:src/kern_memory.cpp **** //
   2:src/kern_memory.cpp **** // Created by os on 5/17/23.
   3:src/kern_memory.cpp **** //
   4:src/kern_memory.cpp **** 
   5:src/kern_memory.cpp **** #include "../lib/hw.h"
   6:src/kern_memory.cpp **** #include "../h/kern_memory.hpp"
   7:src/kern_memory.cpp **** 
   8:src/kern_memory.cpp **** typedef struct mem_block {
   9:src/kern_memory.cpp ****     int sizeInBlocks;
  10:src/kern_memory.cpp ****     int startingBlock;
  11:src/kern_memory.cpp ****     struct mem_block* next;
  12:src/kern_memory.cpp **** } mem_block_s;
  13:src/kern_memory.cpp **** 
  14:src/kern_memory.cpp **** 
  15:src/kern_memory.cpp **** mem_block_s * freeHead;
  16:src/kern_memory.cpp **** 
  17:src/kern_memory.cpp **** 
  18:src/kern_memory.cpp **** void* kern_mem_alloc(int sizeInBlocks)
  19:src/kern_memory.cpp **** {
  12              		.loc 1 19 1
  13              		.cfi_startproc
  14              	.LVL0:
  15 0000 130101FF 		addi	sp,sp,-16
  16              		.cfi_def_cfa_offset 16
  17 0004 23348100 		sd	s0,8(sp)
  18              		.cfi_offset 8, -8
  19 0008 13040101 		addi	s0,sp,16
  20              		.cfi_def_cfa 8, 0
  21 000c 93060500 		mv	a3,a0
  20:src/kern_memory.cpp ****     mem_block_s *curr = freeHead;
  22              		.loc 1 20 5
  23              		.loc 1 20 18 is_stmt 0
  24 0010 97050000 		ld	a1,.LANCHOR0
  24      83B50500 
  25              	.LVL1:
  21:src/kern_memory.cpp ****     mem_block_s *prev = 0;
  26              		.loc 1 21 5 is_stmt 1
  20:src/kern_memory.cpp ****     mem_block_s *curr = freeHead;
  27              		.loc 1 20 18 is_stmt 0
  28 0018 13850500 		mv	a0,a1
  29              	.LVL2:
  30              		.loc 1 21 18
  31 001c 13060000 		li	a2,0
  32 0020 6F008004 		j	.L9
  33              	.LVL3:
  34              	.L12:
  35              	.LBB2:
GAS LISTING /tmp/cc58N0Lo.s 			page 2


  36              	.LBB3:
  22:src/kern_memory.cpp **** 
  23:src/kern_memory.cpp ****     while (curr){
  24:src/kern_memory.cpp ****         if(curr->sizeInBlocks==sizeInBlocks+1){
  25:src/kern_memory.cpp ****             if(curr==freeHead) freeHead=curr->next;
  37              		.loc 1 25 13 is_stmt 1
  38 0024 6300B502 		beq	a0,a1,.L11
  26:src/kern_memory.cpp ****             else prev->next = curr->next;
  39              		.loc 1 26 18
  40              		.loc 1 26 37 is_stmt 0
  41 0028 83378500 		ld	a5,8(a0)
  42              		.loc 1 26 29
  43 002c 2334F600 		sd	a5,8(a2)
  44              	.L5:
  27:src/kern_memory.cpp ****             curr->sizeInBlocks=sizeInBlocks+1;
  45              		.loc 1 27 13 is_stmt 1
  46              		.loc 1 27 31 is_stmt 0
  47 0030 2320E500 		sw	a4,0(a0)
  28:src/kern_memory.cpp ****             return (curr+MEM_BLOCK_SIZE);
  48              		.loc 1 28 13 is_stmt 1
  49              		.loc 1 28 40 is_stmt 0
  50 0034 13050540 		addi	a0,a0,1024
  51              	.LVL4:
  52              	.L1:
  53              	.LBE3:
  54              	.LBE2:
  29:src/kern_memory.cpp ****         }
  30:src/kern_memory.cpp ****         else if(curr->sizeInBlocks>sizeInBlocks+1){
  31:src/kern_memory.cpp ****             mem_block_s* newFreeBlock = curr+(sizeInBlocks+1)*MEM_BLOCK_SIZE;
  32:src/kern_memory.cpp ****             newFreeBlock->sizeInBlocks = curr->sizeInBlocks-sizeInBlocks-1;
  33:src/kern_memory.cpp ****             newFreeBlock->startingBlock=curr->startingBlock+sizeInBlocks+1;
  34:src/kern_memory.cpp ****             newFreeBlock->next = curr->next;
  35:src/kern_memory.cpp ****             if(curr==freeHead) freeHead=newFreeBlock;
  36:src/kern_memory.cpp ****             else prev->next=newFreeBlock;
  37:src/kern_memory.cpp ****             curr->sizeInBlocks=sizeInBlocks+1;
  38:src/kern_memory.cpp ****             return (curr+MEM_BLOCK_SIZE);
  39:src/kern_memory.cpp ****         }
  40:src/kern_memory.cpp ****         prev=curr;
  41:src/kern_memory.cpp ****         curr=curr->next;
  42:src/kern_memory.cpp ****     }
  43:src/kern_memory.cpp **** 
  44:src/kern_memory.cpp ****     return 0;
  45:src/kern_memory.cpp **** }
  55              		.loc 1 45 1
  56 0038 03348100 		ld	s0,8(sp)
  57              		.cfi_remember_state
  58              		.cfi_restore 8
  59              		.cfi_def_cfa 2, 16
  60 003c 13010101 		addi	sp,sp,16
  61              		.cfi_def_cfa_offset 0
  62 0040 67800000 		jr	ra
  63              	.LVL5:
  64              	.L11:
  65              		.cfi_restore_state
  66              	.LBB11:
  67              	.LBB8:
  25:src/kern_memory.cpp ****             else prev->next = curr->next;
GAS LISTING /tmp/cc58N0Lo.s 			page 3


  68              		.loc 1 25 32 is_stmt 1 discriminator 1
  25:src/kern_memory.cpp ****             else prev->next = curr->next;
  69              		.loc 1 25 47 is_stmt 0 discriminator 1
  70 0044 83378500 		ld	a5,8(a0)
  25:src/kern_memory.cpp ****             else prev->next = curr->next;
  71              		.loc 1 25 40 discriminator 1
  72 0048 97060000 		sd	a5,.LANCHOR0,a3
  72      23B0F600 
  73 0050 6FF01FFE 		j	.L5
  74              	.LVL6:
  75              	.L13:
  76              	.LBB4:
  77              	.LBB5:
  35:src/kern_memory.cpp ****             else prev->next=newFreeBlock;
  78              		.loc 1 35 32 is_stmt 1 discriminator 1
  35:src/kern_memory.cpp ****             else prev->next=newFreeBlock;
  79              		.loc 1 35 40 is_stmt 0 discriminator 1
  80 0054 97070000 		sd	a1,.LANCHOR0,a5
  80      23B0B700 
  81 005c 6F00C005 		j	.L8
  82              	.LVL7:
  83              	.L6:
  84              	.LBE5:
  85              	.LBE4:
  86              	.LBE8:
  40:src/kern_memory.cpp ****         curr=curr->next;
  87              		.loc 1 40 9 is_stmt 1
  41:src/kern_memory.cpp ****     }
  88              		.loc 1 41 9
  40:src/kern_memory.cpp ****         curr=curr->next;
  89              		.loc 1 40 13 is_stmt 0
  90 0060 13060500 		mv	a2,a0
  41:src/kern_memory.cpp ****     }
  91              		.loc 1 41 13
  92 0064 03358500 		ld	a0,8(a0)
  93              	.LVL8:
  94              	.L9:
  95              	.LBE11:
  23:src/kern_memory.cpp ****         if(curr->sizeInBlocks==sizeInBlocks+1){
  96              		.loc 1 23 5 is_stmt 1
  23:src/kern_memory.cpp ****         if(curr->sizeInBlocks==sizeInBlocks+1){
  97              		.loc 1 23 12
  98 0068 E30805FC 		beqz	a0,.L1
  99              	.LBB12:
  24:src/kern_memory.cpp ****             if(curr==freeHead) freeHead=curr->next;
 100              		.loc 1 24 9
 101              	.LBB9:
  24:src/kern_memory.cpp ****             if(curr==freeHead) freeHead=curr->next;
 102              		.loc 1 24 18 is_stmt 0
 103 006c 83270500 		lw	a5,0(a0)
  24:src/kern_memory.cpp ****             if(curr==freeHead) freeHead=curr->next;
 104              		.loc 1 24 44
 105 0070 1B871600 		addiw	a4,a3,1
  24:src/kern_memory.cpp ****             if(curr==freeHead) freeHead=curr->next;
 106              		.loc 1 24 9
 107 0074 E388E7FA 		beq	a5,a4,.L12
 108              	.LBE9:
GAS LISTING /tmp/cc58N0Lo.s 			page 4


 109              	.LBE12:
  30:src/kern_memory.cpp ****             mem_block_s* newFreeBlock = curr+(sizeInBlocks+1)*MEM_BLOCK_SIZE;
 110              		.loc 1 30 14 is_stmt 1
 111              	.LBB13:
 112              	.LBB10:
 113              	.LBB7:
 114 0078 E354F7FE 		ble	a5,a4,.L6
 115              	.LBB6:
  31:src/kern_memory.cpp ****             newFreeBlock->sizeInBlocks = curr->sizeInBlocks-sizeInBlocks-1;
 116              		.loc 1 31 13
  31:src/kern_memory.cpp ****             newFreeBlock->sizeInBlocks = curr->sizeInBlocks-sizeInBlocks-1;
 117              		.loc 1 31 45 is_stmt 0
 118 007c 9315A700 		slli	a1,a4,10
  31:src/kern_memory.cpp ****             newFreeBlock->sizeInBlocks = curr->sizeInBlocks-sizeInBlocks-1;
 119              		.loc 1 31 26
 120 0080 B305B500 		add	a1,a0,a1
 121              	.LVL9:
  32:src/kern_memory.cpp ****             newFreeBlock->startingBlock=curr->startingBlock+sizeInBlocks+1;
 122              		.loc 1 32 13 is_stmt 1
  32:src/kern_memory.cpp ****             newFreeBlock->startingBlock=curr->startingBlock+sizeInBlocks+1;
 123              		.loc 1 32 60 is_stmt 0
 124 0084 BB87D740 		subw	a5,a5,a3
  32:src/kern_memory.cpp ****             newFreeBlock->startingBlock=curr->startingBlock+sizeInBlocks+1;
 125              		.loc 1 32 73
 126 0088 9B87F7FF 		addiw	a5,a5,-1
  32:src/kern_memory.cpp ****             newFreeBlock->startingBlock=curr->startingBlock+sizeInBlocks+1;
 127              		.loc 1 32 40
 128 008c 23A0F500 		sw	a5,0(a1)
  33:src/kern_memory.cpp ****             newFreeBlock->next = curr->next;
 129              		.loc 1 33 13 is_stmt 1
  33:src/kern_memory.cpp ****             newFreeBlock->next = curr->next;
 130              		.loc 1 33 47 is_stmt 0
 131 0090 83274500 		lw	a5,4(a0)
  33:src/kern_memory.cpp ****             newFreeBlock->next = curr->next;
 132              		.loc 1 33 60
 133 0094 BB86D700 		addw	a3,a5,a3
  33:src/kern_memory.cpp ****             newFreeBlock->next = curr->next;
 134              		.loc 1 33 73
 135 0098 9B861600 		addiw	a3,a3,1
  33:src/kern_memory.cpp ****             newFreeBlock->next = curr->next;
 136              		.loc 1 33 40
 137 009c 23A2D500 		sw	a3,4(a1)
  34:src/kern_memory.cpp ****             if(curr==freeHead) freeHead=newFreeBlock;
 138              		.loc 1 34 13 is_stmt 1
  34:src/kern_memory.cpp ****             if(curr==freeHead) freeHead=newFreeBlock;
 139              		.loc 1 34 40 is_stmt 0
 140 00a0 83378500 		ld	a5,8(a0)
  34:src/kern_memory.cpp ****             if(curr==freeHead) freeHead=newFreeBlock;
 141              		.loc 1 34 32
 142 00a4 23B4F500 		sd	a5,8(a1)
  35:src/kern_memory.cpp ****             else prev->next=newFreeBlock;
 143              		.loc 1 35 13 is_stmt 1
  35:src/kern_memory.cpp ****             else prev->next=newFreeBlock;
 144              		.loc 1 35 20 is_stmt 0
 145 00a8 97070000 		ld	a5,.LANCHOR0
 145      83B70700 
  35:src/kern_memory.cpp ****             else prev->next=newFreeBlock;
GAS LISTING /tmp/cc58N0Lo.s 			page 5


 146              		.loc 1 35 13
 147 00b0 E382A7FA 		beq	a5,a0,.L13
  36:src/kern_memory.cpp ****             curr->sizeInBlocks=sizeInBlocks+1;
 148              		.loc 1 36 18 is_stmt 1
  36:src/kern_memory.cpp ****             curr->sizeInBlocks=sizeInBlocks+1;
 149              		.loc 1 36 28 is_stmt 0
 150 00b4 2334B600 		sd	a1,8(a2)
 151              	.L8:
  37:src/kern_memory.cpp ****             return (curr+MEM_BLOCK_SIZE);
 152              		.loc 1 37 13 is_stmt 1
  37:src/kern_memory.cpp ****             return (curr+MEM_BLOCK_SIZE);
 153              		.loc 1 37 31 is_stmt 0
 154 00b8 2320E500 		sw	a4,0(a0)
  38:src/kern_memory.cpp ****         }
 155              		.loc 1 38 13 is_stmt 1
  38:src/kern_memory.cpp ****         }
 156              		.loc 1 38 40 is_stmt 0
 157 00bc 13050540 		addi	a0,a0,1024
 158              	.LVL10:
 159 00c0 6FF09FF7 		j	.L1
 160              	.LBE6:
 161              	.LBE7:
 162              	.LBE10:
 163              	.LBE13:
 164              		.cfi_endproc
 165              	.LFE0:
 167              		.align	2
 168              		.globl	_Z13kern_mem_freePv
 170              	_Z13kern_mem_freePv:
 171              	.LFB1:
  46:src/kern_memory.cpp **** 
  47:src/kern_memory.cpp **** int kern_mem_free(void* addr)
  48:src/kern_memory.cpp **** {
 172              		.loc 1 48 1 is_stmt 1
 173              		.cfi_startproc
 174              	.LVL11:
 175 00c4 130101FF 		addi	sp,sp,-16
 176              		.cfi_def_cfa_offset 16
 177 00c8 23348100 		sd	s0,8(sp)
 178              		.cfi_offset 8, -8
 179 00cc 13040101 		addi	s0,sp,16
 180              		.cfi_def_cfa 8, 0
  49:src/kern_memory.cpp ****     mem_block_s* freedBlock = (mem_block_s*) addr-MEM_BLOCK_SIZE;
 181              		.loc 1 49 5
 182              		.loc 1 49 18 is_stmt 0
 183 00d0 130705C0 		addi	a4,a0,-1024
 184              	.LVL12:
  50:src/kern_memory.cpp ****     mem_block_s* curr=freeHead;
 185              		.loc 1 50 5 is_stmt 1
 186              		.loc 1 50 18 is_stmt 0
 187 00d4 97070000 		ld	a5,.LANCHOR0
 187      83B70700 
 188              	.LVL13:
  51:src/kern_memory.cpp ****     mem_block_s * prev =0;
 189              		.loc 1 51 5 is_stmt 1
 190              		.loc 1 51 19 is_stmt 0
 191 00dc 93060000 		li	a3,0
GAS LISTING /tmp/cc58N0Lo.s 			page 6


 192              	.LVL14:
 193              	.L16:
  52:src/kern_memory.cpp **** 
  53:src/kern_memory.cpp ****     while (curr<freedBlock && curr!=0){
 194              		.loc 1 53 5 is_stmt 1
 195              		.loc 1 53 28
 196 00e0 63FAE700 		bgeu	a5,a4,.L15
 197              		.loc 1 53 28 is_stmt 0 discriminator 1
 198 00e4 63880700 		beqz	a5,.L15
  54:src/kern_memory.cpp ****         prev=curr;
 199              		.loc 1 54 9 is_stmt 1
 200              	.LVL15:
  55:src/kern_memory.cpp ****         curr=curr->next;
 201              		.loc 1 55 9
  54:src/kern_memory.cpp ****         prev=curr;
 202              		.loc 1 54 13 is_stmt 0
 203 00e8 93860700 		mv	a3,a5
 204              		.loc 1 55 13
 205 00ec 83B78700 		ld	a5,8(a5)
 206              	.LVL16:
  53:src/kern_memory.cpp ****         prev=curr;
 207              		.loc 1 53 5
 208 00f0 6FF01FFF 		j	.L16
 209              	.L15:
  56:src/kern_memory.cpp ****     }
  57:src/kern_memory.cpp **** 
  58:src/kern_memory.cpp ****     /*
  59:src/kern_memory.cpp ****     //kast radi lakse aritmetike
  60:src/kern_memory.cpp ****     char* cfreedBlock = (char *)freedBlock;
  61:src/kern_memory.cpp ****     char* cprev = (char *)prev;
  62:src/kern_memory.cpp ****     char* ccurr = (char *)curr;
  63:src/kern_memory.cpp ****     */
  64:src/kern_memory.cpp **** 
  65:src/kern_memory.cpp ****     if(prev){
 210              		.loc 1 65 5 is_stmt 1
 211 00f4 638E0604 		beqz	a3,.L17
  66:src/kern_memory.cpp ****         if(prev->startingBlock+prev->sizeInBlocks==freedBlock->startingBlock){
 212              		.loc 1 66 9
 213              		.loc 1 66 18 is_stmt 0
 214 00f8 03A64600 		lw	a2,4(a3)
 215              		.loc 1 66 38
 216 00fc 83A50600 		lw	a1,0(a3)
 217              		.loc 1 66 31
 218 0100 3B06B600 		addw	a2,a2,a1
 219              		.loc 1 66 64
 220 0104 032845C0 		lw	a6,-1020(a0)
 221              		.loc 1 66 9
 222 0108 630A0603 		beq	a2,a6,.L23
  67:src/kern_memory.cpp ****             prev->sizeInBlocks+=freedBlock->sizeInBlocks;
  68:src/kern_memory.cpp ****             freedBlock=prev;
  69:src/kern_memory.cpp ****         } else {
  70:src/kern_memory.cpp ****             prev->next=freedBlock;
 223              		.loc 1 70 13 is_stmt 1
 224              		.loc 1 70 23 is_stmt 0
 225 010c 23B4E600 		sd	a4,8(a3)
 226              	.LVL17:
 227              	.L19:
GAS LISTING /tmp/cc58N0Lo.s 			page 7


  71:src/kern_memory.cpp ****         }
  72:src/kern_memory.cpp ****     }
  73:src/kern_memory.cpp ****     else freeHead=freedBlock;
  74:src/kern_memory.cpp **** 
  75:src/kern_memory.cpp ****     if(curr){
 228              		.loc 1 75 5 is_stmt 1
 229 0110 638E0700 		beqz	a5,.L20
  76:src/kern_memory.cpp ****         if(freedBlock->startingBlock+freedBlock->sizeInBlocks==curr->startingBlock){
 230              		.loc 1 76 9
 231              		.loc 1 76 24 is_stmt 0
 232 0114 83264700 		lw	a3,4(a4)
 233              		.loc 1 76 50
 234 0118 03260700 		lw	a2,0(a4)
 235              		.loc 1 76 37
 236 011c BB86C600 		addw	a3,a3,a2
 237              		.loc 1 76 70
 238 0120 83A54700 		lw	a1,4(a5)
 239              		.loc 1 76 9
 240 0124 638CB602 		beq	a3,a1,.L24
  77:src/kern_memory.cpp ****             freedBlock->sizeInBlocks+=curr->sizeInBlocks;
  78:src/kern_memory.cpp ****             freedBlock->next=curr->next;
  79:src/kern_memory.cpp ****         } else{
  80:src/kern_memory.cpp ****           freedBlock->next=curr;
 241              		.loc 1 80 11 is_stmt 1
 242              		.loc 1 80 27 is_stmt 0
 243 0128 2334F700 		sd	a5,8(a4)
 244              	.LVL18:
 245              	.L20:
  81:src/kern_memory.cpp ****         }
  82:src/kern_memory.cpp ****     }
  83:src/kern_memory.cpp **** 
  84:src/kern_memory.cpp **** 
  85:src/kern_memory.cpp ****     return 0;
 246              		.loc 1 85 5 is_stmt 1
  86:src/kern_memory.cpp **** }
 247              		.loc 1 86 1 is_stmt 0
 248 012c 13050000 		li	a0,0
 249              	.LVL19:
 250 0130 03348100 		ld	s0,8(sp)
 251              		.cfi_remember_state
 252              		.cfi_restore 8
 253              		.cfi_def_cfa 2, 16
 254 0134 13010101 		addi	sp,sp,16
 255              		.cfi_def_cfa_offset 0
 256 0138 67800000 		jr	ra
 257              	.LVL20:
 258              	.L23:
 259              		.cfi_restore_state
  67:src/kern_memory.cpp ****             freedBlock=prev;
 260              		.loc 1 67 13 is_stmt 1
  67:src/kern_memory.cpp ****             freedBlock=prev;
 261              		.loc 1 67 45 is_stmt 0
 262 013c 032705C0 		lw	a4,-1024(a0)
 263              	.LVL21:
  67:src/kern_memory.cpp ****             freedBlock=prev;
 264              		.loc 1 67 31
 265 0140 BB85E500 		addw	a1,a1,a4
GAS LISTING /tmp/cc58N0Lo.s 			page 8


 266 0144 23A0B600 		sw	a1,0(a3)
  68:src/kern_memory.cpp ****         } else {
 267              		.loc 1 68 13 is_stmt 1
 268              	.LVL22:
  68:src/kern_memory.cpp ****         } else {
 269              		.loc 1 68 23 is_stmt 0
 270 0148 13870600 		mv	a4,a3
 271 014c 6FF05FFC 		j	.L19
 272              	.LVL23:
 273              	.L17:
  73:src/kern_memory.cpp **** 
 274              		.loc 1 73 10 is_stmt 1
  73:src/kern_memory.cpp **** 
 275              		.loc 1 73 18 is_stmt 0
 276 0150 97060000 		sd	a4,.LANCHOR0,a3
 276      23B0E600 
 277              	.LVL24:
 278 0158 6FF09FFB 		j	.L19
 279              	.L24:
  77:src/kern_memory.cpp ****             freedBlock->next=curr->next;
 280              		.loc 1 77 13 is_stmt 1
  77:src/kern_memory.cpp ****             freedBlock->next=curr->next;
 281              		.loc 1 77 45 is_stmt 0
 282 015c 83A60700 		lw	a3,0(a5)
  77:src/kern_memory.cpp ****             freedBlock->next=curr->next;
 283              		.loc 1 77 37
 284 0160 3B06D600 		addw	a2,a2,a3
 285 0164 2320C700 		sw	a2,0(a4)
  78:src/kern_memory.cpp ****         } else{
 286              		.loc 1 78 13 is_stmt 1
  78:src/kern_memory.cpp ****         } else{
 287              		.loc 1 78 36 is_stmt 0
 288 0168 83B78700 		ld	a5,8(a5)
 289              	.LVL25:
  78:src/kern_memory.cpp ****         } else{
 290              		.loc 1 78 29
 291 016c 2334F700 		sd	a5,8(a4)
 292 0170 6FF0DFFB 		j	.L20
 293              		.cfi_endproc
 294              	.LFE1:
 296              		.align	2
 297              		.globl	_Z13kern_mem_initPvS_
 299              	_Z13kern_mem_initPvS_:
 300              	.LFB2:
  87:src/kern_memory.cpp **** 
  88:src/kern_memory.cpp **** unsigned long ukupno_memorije;
  89:src/kern_memory.cpp **** void kern_mem_init(void* start, void* end)
  90:src/kern_memory.cpp **** {
 301              		.loc 1 90 1 is_stmt 1
 302              		.cfi_startproc
 303              	.LVL26:
 304 0174 130101FF 		addi	sp,sp,-16
 305              		.cfi_def_cfa_offset 16
 306 0178 23348100 		sd	s0,8(sp)
 307              		.cfi_offset 8, -8
 308 017c 13040101 		addi	s0,sp,16
 309              		.cfi_def_cfa 8, 0
GAS LISTING /tmp/cc58N0Lo.s 			page 9


  91:src/kern_memory.cpp ****     unsigned long lstart = (unsigned long) start;
 310              		.loc 1 91 5
 311              	.LVL27:
  92:src/kern_memory.cpp ****     unsigned long lend = (unsigned long) end;
 312              		.loc 1 92 5
 313              		.loc 1 92 19 is_stmt 0
 314 0180 93870500 		mv	a5,a1
 315              	.LVL28:
  93:src/kern_memory.cpp **** 
  94:src/kern_memory.cpp ****     if(lstart%MEM_BLOCK_SIZE>0) start =(void*) ((lstart/MEM_BLOCK_SIZE+1)*MEM_BLOCK_SIZE);
 316              		.loc 1 94 5 is_stmt 1
 317              		.loc 1 94 14 is_stmt 0
 318 0184 1377F503 		andi	a4,a0,63
 319              		.loc 1 94 5
 320 0188 63080700 		beqz	a4,.L26
 321              		.loc 1 94 33 is_stmt 1 discriminator 1
 322              		.loc 1 94 56 is_stmt 0 discriminator 1
 323 018c 13556500 		srli	a0,a0,6
 324              	.LVL29:
 325              		.loc 1 94 71 discriminator 1
 326 0190 13051500 		addi	a0,a0,1
 327              		.loc 1 94 74 discriminator 1
 328 0194 13156500 		slli	a0,a0,6
 329              	.LVL30:
 330              	.L26:
  95:src/kern_memory.cpp ****     if(lend%MEM_BLOCK_SIZE>0) end =(void*) ((lend/MEM_BLOCK_SIZE)*MEM_BLOCK_SIZE);
 331              		.loc 1 95 5 is_stmt 1
 332              		.loc 1 95 12 is_stmt 0
 333 0198 13F7F703 		andi	a4,a5,63
 334              		.loc 1 95 5
 335 019c 63040700 		beqz	a4,.L27
 336              		.loc 1 95 31 is_stmt 1 discriminator 1
 337              		.loc 1 95 66 is_stmt 0 discriminator 1
 338 01a0 93F507FC 		andi	a1,a5,-64
 339              	.LVL31:
 340              	.L27:
  96:src/kern_memory.cpp **** 
  97:src/kern_memory.cpp ****     freeHead = (mem_block_s*)start;
 341              		.loc 1 97 5 is_stmt 1
 342              		.loc 1 97 14 is_stmt 0
 343 01a4 97070000 		lla	a5,.LANCHOR0
 343      93870700 
 344              	.LVL32:
 345 01ac 23B0A700 		sd	a0,0(a5)
  98:src/kern_memory.cpp ****     freeHead->next=0;
 346              		.loc 1 98 5 is_stmt 1
 347              		.loc 1 98 19 is_stmt 0
 348 01b0 23340500 		sd	zero,8(a0)
  99:src/kern_memory.cpp ****     freeHead->startingBlock=0;
 349              		.loc 1 99 5 is_stmt 1
 350              		.loc 1 99 28 is_stmt 0
 351 01b4 23220500 		sw	zero,4(a0)
 100:src/kern_memory.cpp ****     freeHead->sizeInBlocks = ((uint64)end-(uint64)start)/MEM_BLOCK_SIZE;
 352              		.loc 1 100 5 is_stmt 1
 353              		.loc 1 100 42 is_stmt 0
 354 01b8 3385A540 		sub	a0,a1,a0
 355              	.LVL33:
GAS LISTING /tmp/cc58N0Lo.s 			page 10


 356              		.loc 1 100 57
 357 01bc 13556500 		srli	a0,a0,6
 358              		.loc 1 100 15
 359 01c0 03B70700 		ld	a4,0(a5)
 360              		.loc 1 100 28
 361 01c4 2320A700 		sw	a0,0(a4)
 101:src/kern_memory.cpp ****     ukupno_memorije=freeHead->sizeInBlocks;
 362              		.loc 1 101 5 is_stmt 1
 363              		.loc 1 101 31 is_stmt 0
 364 01c8 03B70700 		ld	a4,0(a5)
 365 01cc 03270700 		lw	a4,0(a4)
 366              		.loc 1 101 20
 367 01d0 23B4E700 		sd	a4,8(a5)
 102:src/kern_memory.cpp **** }
 368              		.loc 1 102 1
 369 01d4 03348100 		ld	s0,8(sp)
 370              		.cfi_restore 8
 371              		.cfi_def_cfa 2, 16
 372 01d8 13010101 		addi	sp,sp,16
 373              		.cfi_def_cfa_offset 0
 374 01dc 67800000 		jr	ra
 375              		.cfi_endproc
 376              	.LFE2:
 378              		.globl	ukupno_memorije
 379              		.globl	freeHead
 380              		.bss
 381              		.align	3
 382              		.set	.LANCHOR0,. + 0
 385              	freeHead:
 386 0000 00000000 		.zero	8
 386      00000000 
 389              	ukupno_memorije:
 390 0008 00000000 		.zero	8
 390      00000000 
 391              		.text
 392              	.Letext0:
 393              		.file 2 "src/../lib/hw.h"
GAS LISTING /tmp/cc58N0Lo.s 			page 11

