GAS LISTING /tmp/ccvXE2EI.s 			page 1


   1              		.file	"kern_threads.c"
   2              		.option nopic
   3              		.option norelax
   4              		.text
   5              	.Ltext0:
   6              		.cfi_sections	.debug_frame
   7              		.align	2
   8              		.globl	kern_thread_init
  10              	kern_thread_init:
  11              	.LFB0:
  12              		.file 1 "src/kern_threads.c"
   1:src/kern_threads.c **** //
   2:src/kern_threads.c **** // Created by os on 5/22/23.
   3:src/kern_threads.c **** //
   4:src/kern_threads.c **** 
   5:src/kern_threads.c **** #include "../h/kern_threads.h"
   6:src/kern_threads.c **** #include "../h/kern_interrupts.h"
   7:src/kern_threads.c **** #include "../lib/hw.h"
   8:src/kern_threads.c **** 
   9:src/kern_threads.c **** #define MAX_THREADS 64
  10:src/kern_threads.c **** 
  11:src/kern_threads.c **** typedef struct thread_s* thread_t;
  12:src/kern_threads.c **** 
  13:src/kern_threads.c **** struct thread_s threads[MAX_THREADS];
  14:src/kern_threads.c **** static int id;
  15:src/kern_threads.c **** struct thread_s* running;
  16:src/kern_threads.c **** 
  17:src/kern_threads.c **** void kern_thread_init()
  18:src/kern_threads.c **** {
  13              		.loc 1 18 1
  14              		.cfi_startproc
  15 0000 130101FF 		addi	sp,sp,-16
  16              		.cfi_def_cfa_offset 16
  17 0004 23348100 		sd	s0,8(sp)
  18              		.cfi_offset 8, -8
  19 0008 13040101 		addi	s0,sp,16
  20              		.cfi_def_cfa 8, 0
  19:src/kern_threads.c ****     id=0;
  21              		.loc 1 19 5
  22              		.loc 1 19 7 is_stmt 0
  23 000c 97070000 		sw	zero,id,a5
  23      23A00700 
  20:src/kern_threads.c ****     for (int i=0;i<MAX_THREADS;i++){
  24              		.loc 1 20 5 is_stmt 1
  25              	.LBB2:
  26              		.loc 1 20 10
  27              	.LVL0:
  28              		.loc 1 20 14 is_stmt 0
  29 0014 93070000 		li	a5,0
  30              		.loc 1 20 5
  31 0018 6F004002 		j	.L2
  32              	.LVL1:
  33              	.L3:
  21:src/kern_threads.c ****         threads[i].status=UNUSED;
  34              		.loc 1 21 9 is_stmt 1 discriminator 3
  35              		.loc 1 21 26 is_stmt 0 discriminator 3
  36 001c 13972700 		slli	a4,a5,2
GAS LISTING /tmp/ccvXE2EI.s 			page 2


  37 0020 3307F700 		add	a4,a4,a5
  38 0024 93164700 		slli	a3,a4,4
  39 0028 17070000 		lla	a4,threads
  39      13070700 
  40 0030 3307D700 		add	a4,a4,a3
  41 0034 23220704 		sw	zero,68(a4)
  20:src/kern_threads.c ****     for (int i=0;i<MAX_THREADS;i++){
  42              		.loc 1 20 32 is_stmt 1 discriminator 3
  20:src/kern_threads.c ****     for (int i=0;i<MAX_THREADS;i++){
  43              		.loc 1 20 33 is_stmt 0 discriminator 3
  44 0038 9B871700 		addiw	a5,a5,1
  45              	.LVL2:
  46              	.L2:
  20:src/kern_threads.c ****     for (int i=0;i<MAX_THREADS;i++){
  47              		.loc 1 20 18 is_stmt 1 discriminator 1
  20:src/kern_threads.c ****     for (int i=0;i<MAX_THREADS;i++){
  48              		.loc 1 20 5 is_stmt 0 discriminator 1
  49 003c 1307F003 		li	a4,63
  50 0040 E35EF7FC 		ble	a5,a4,.L3
  51              	.LBE2:
  22:src/kern_threads.c ****     }
  23:src/kern_threads.c **** 
  24:src/kern_threads.c ****     //set threads[0] as main thread
  25:src/kern_threads.c ****     threads[0].status=RUNNING;
  52              		.loc 1 25 5 is_stmt 1
  53              		.loc 1 25 22 is_stmt 0
  54 0044 97070000 		lla	a5,threads
  54      93870700 
  55              	.LVL3:
  56 004c 13071000 		li	a4,1
  57 0050 23A2E704 		sw	a4,68(a5)
  26:src/kern_threads.c ****     threads[0].id=0;
  58              		.loc 1 26 5 is_stmt 1
  59              		.loc 1 26 18 is_stmt 0
  60 0054 23B80700 		sd	zero,16(a5)
  27:src/kern_threads.c ****     threads[0].timeslice=DEFAULT_TIME_SLICE+2;
  61              		.loc 1 27 5 is_stmt 1
  62              		.loc 1 27 25 is_stmt 0
  63 0058 13074000 		li	a4,4
  64 005c 23B8E702 		sd	a4,48(a5)
  28:src/kern_threads.c ****     threads[0].endTime=9999;
  65              		.loc 1 28 5 is_stmt 1
  66              		.loc 1 28 23 is_stmt 0
  67 0060 37270000 		li	a4,8192
  68 0064 1307F770 		addi	a4,a4,1807
  69 0068 23BCE702 		sd	a4,56(a5)
  29:src/kern_threads.c ****     running=&threads[0];
  70              		.loc 1 29 5 is_stmt 1
  71              		.loc 1 29 12 is_stmt 0
  72 006c 17070000 		sd	a5,running,a4
  72      2330F700 
  30:src/kern_threads.c **** }
  73              		.loc 1 30 1
  74 0074 03348100 		ld	s0,8(sp)
  75              		.cfi_restore 8
  76              		.cfi_def_cfa 2, 16
  77 0078 13010101 		addi	sp,sp,16
GAS LISTING /tmp/ccvXE2EI.s 			page 3


  78              		.cfi_def_cfa_offset 0
  79 007c 67800000 		jr	ra
  80              		.cfi_endproc
  81              	.LFE0:
  83              		.align	2
  84              		.globl	kern_scheduler_get
  86              	kern_scheduler_get:
  87              	.LFB1:
  31:src/kern_threads.c **** 
  32:src/kern_threads.c **** thread_t kern_scheduler_get()
  33:src/kern_threads.c **** {
  88              		.loc 1 33 1 is_stmt 1
  89              		.cfi_startproc
  90 0080 130101FF 		addi	sp,sp,-16
  91              		.cfi_def_cfa_offset 16
  92 0084 23348100 		sd	s0,8(sp)
  93              		.cfi_offset 8, -8
  94 0088 13040101 		addi	s0,sp,16
  95              		.cfi_def_cfa 8, 0
  34:src/kern_threads.c ****     int num = running-threads;
  96              		.loc 1 34 5
  97              		.loc 1 34 22 is_stmt 0
  98 008c 17050000 		ld	a0,running
  98      03350500 
  99 0094 97070000 		lla	a5,threads
  99      93870700 
 100 009c B307F540 		sub	a5,a0,a5
 101 00a0 93D74740 		srai	a5,a5,4
 102              		.loc 1 34 9
 103 00a4 17070000 		ld	a4,.LC0
 103      03370700 
 104 00ac BB87E702 		mulw	a5,a5,a4
 105              	.LVL4:
  35:src/kern_threads.c ****     for(int i=1;i<=MAX_THREADS;i++){
 106              		.loc 1 35 5 is_stmt 1
 107              	.LBB3:
 108              		.loc 1 35 9
 109              		.loc 1 35 13 is_stmt 0
 110 00b0 93061000 		li	a3,1
 111              	.LVL5:
 112              	.L6:
 113              		.loc 1 35 17 is_stmt 1 discriminator 1
 114              		.loc 1 35 5 is_stmt 0 discriminator 1
 115 00b4 13070004 		li	a4,64
 116 00b8 6346D706 		bgt	a3,a4,.L11
  36:src/kern_threads.c ****         num = (num+i)%MAX_THREADS;
 117              		.loc 1 36 9 is_stmt 1
 118              		.loc 1 36 19 is_stmt 0
 119 00bc BB87D700 		addw	a5,a5,a3
 120              	.LVL6:
 121              		.loc 1 36 13
 122 00c0 1BD7F741 		sraiw	a4,a5,31
 123 00c4 1B57A701 		srliw	a4,a4,26
 124 00c8 BB87E700 		addw	a5,a5,a4
 125 00cc 93F7F703 		andi	a5,a5,63
 126 00d0 BB87E740 		subw	a5,a5,a4
  37:src/kern_threads.c ****         if(threads[num].status==READY) return &threads[num];
GAS LISTING /tmp/ccvXE2EI.s 			page 4


 127              		.loc 1 37 9 is_stmt 1
 128              		.loc 1 37 24 is_stmt 0
 129 00d4 13972700 		slli	a4,a5,2
 130 00d8 3307F700 		add	a4,a4,a5
 131 00dc 13164700 		slli	a2,a4,4
 132 00e0 17070000 		lla	a4,threads
 132      13070700 
 133 00e8 3307C700 		add	a4,a4,a2
 134 00ec 03264704 		lw	a2,68(a4)
 135              		.loc 1 37 11
 136 00f0 13072000 		li	a4,2
 137 00f4 6306E600 		beq	a2,a4,.L12
  35:src/kern_threads.c ****     for(int i=1;i<=MAX_THREADS;i++){
 138              		.loc 1 35 32 is_stmt 1 discriminator 2
  35:src/kern_threads.c ****     for(int i=1;i<=MAX_THREADS;i++){
 139              		.loc 1 35 33 is_stmt 0 discriminator 2
 140 00f8 9B861600 		addiw	a3,a3,1
 141              	.LVL7:
 142 00fc 6FF09FFB 		j	.L6
 143              	.LVL8:
 144              	.L12:
 145              		.loc 1 37 40 is_stmt 1 discriminator 1
 146              		.loc 1 37 47 is_stmt 0 discriminator 1
 147 0100 13972700 		slli	a4,a5,2
 148 0104 B307F700 		add	a5,a4,a5
 149 0108 13954700 		slli	a0,a5,4
 150 010c 97070000 		lla	a5,threads
 150      93870700 
 151 0114 3305F500 		add	a0,a0,a5
 152              	.L5:
 153              	.LBE3:
  38:src/kern_threads.c ****     }
  39:src/kern_threads.c ****     if(running->status==READY) return running;
  40:src/kern_threads.c ****     return 0;
  41:src/kern_threads.c **** }
 154              		.loc 1 41 1
 155 0118 03348100 		ld	s0,8(sp)
 156              		.cfi_remember_state
 157              		.cfi_restore 8
 158              		.cfi_def_cfa 2, 16
 159 011c 13010101 		addi	sp,sp,16
 160              		.cfi_def_cfa_offset 0
 161 0120 67800000 		jr	ra
 162              	.LVL9:
 163              	.L11:
 164              		.cfi_restore_state
  39:src/kern_threads.c ****     return 0;
 165              		.loc 1 39 5 is_stmt 1
  39:src/kern_threads.c ****     return 0;
 166              		.loc 1 39 15 is_stmt 0
 167 0124 03274504 		lw	a4,68(a0)
  39:src/kern_threads.c ****     return 0;
 168              		.loc 1 39 7
 169 0128 93072000 		li	a5,2
 170              	.LVL10:
 171 012c E306F7FE 		beq	a4,a5,.L5
  40:src/kern_threads.c **** }
GAS LISTING /tmp/ccvXE2EI.s 			page 5


 172              		.loc 1 40 12
 173 0130 13050000 		li	a0,0
 174 0134 6FF05FFE 		j	.L5
 175              		.cfi_endproc
 176              	.LFE1:
 178              		.align	2
 179              		.globl	kern_thread_yield
 181              	kern_thread_yield:
 182              	.LFB2:
  42:src/kern_threads.c **** 
  43:src/kern_threads.c **** void kern_thread_yield()
  44:src/kern_threads.c **** {
 183              		.loc 1 44 1 is_stmt 1
 184              		.cfi_startproc
 185 0138 130101FF 		addi	sp,sp,-16
 186              		.cfi_def_cfa_offset 16
 187 013c 23341100 		sd	ra,8(sp)
 188 0140 23308100 		sd	s0,0(sp)
 189              		.cfi_offset 1, -8
 190              		.cfi_offset 8, -16
 191 0144 13040101 		addi	s0,sp,16
 192              		.cfi_def_cfa 8, 0
  45:src/kern_threads.c ****     kern_syscall(THREAD_DISPATCH);
 193              		.loc 1 45 5
 194 0148 13053001 		li	a0,19
 195 014c 97000000 		call	kern_syscall
 195      E7800000 
 196              	.LVL11:
  46:src/kern_threads.c **** }
 197              		.loc 1 46 1 is_stmt 0
 198 0154 83308100 		ld	ra,8(sp)
 199              		.cfi_restore 1
 200 0158 03340100 		ld	s0,0(sp)
 201              		.cfi_restore 8
 202              		.cfi_def_cfa 2, 16
 203 015c 13010101 		addi	sp,sp,16
 204              		.cfi_def_cfa_offset 0
 205 0160 67800000 		jr	ra
 206              		.cfi_endproc
 207              	.LFE2:
 209              		.align	2
 210              		.globl	popSppSpie
 212              	popSppSpie:
 213              	.LFB3:
  47:src/kern_threads.c **** 
  48:src/kern_threads.c **** //samo izlazi iz kernela i vraca se odakle je pozvana
  49:src/kern_threads.c **** void popSppSpie()
  50:src/kern_threads.c **** {
 214              		.loc 1 50 1 is_stmt 1
 215              		.cfi_startproc
 216 0164 130101FF 		addi	sp,sp,-16
 217              		.cfi_def_cfa_offset 16
 218 0168 23348100 		sd	s0,8(sp)
 219              		.cfi_offset 8, -8
 220 016c 13040101 		addi	s0,sp,16
 221              		.cfi_def_cfa 8, 0
  51:src/kern_threads.c ****     __asm__ volatile("csrw sepc, ra"); //ovde dodaj izlazak iz privilegovanog moda
GAS LISTING /tmp/ccvXE2EI.s 			page 6


 222              		.loc 1 51 5
 223              	#APP
 224              	# 51 "src/kern_threads.c" 1
  52              	    __asm__ volatile("sret");
 225              		csrw sepc, ra
 226              	# 0 "" 2
 227              		.loc 1 52 5
 228              	# 52 "src/kern_threads.c" 1
  53              	}
 229              		sret
 230              	# 0 "" 2
 231              		.loc 1 53 1 is_stmt 0
 232              	#NO_APP
 233 0178 03348100 		ld	s0,8(sp)
 234              		.cfi_restore 8
 235              		.cfi_def_cfa 2, 16
 236 017c 13010101 		addi	sp,sp,16
 237              		.cfi_def_cfa_offset 0
 238 0180 67800000 		jr	ra
 239              		.cfi_endproc
 240              	.LFE3:
 242              		.align	2
 243              		.globl	kern_thread_wrapper
 245              	kern_thread_wrapper:
 246              	.LFB5:
  54:src/kern_threads.c **** 
  55:src/kern_threads.c **** extern void contextSwitch(thread_t old, thread_t new);
  56:src/kern_threads.c **** 
  57:src/kern_threads.c **** void kern_thread_dispatch()
  58:src/kern_threads.c **** {
  59:src/kern_threads.c ****     thread_t old = running;
  60:src/kern_threads.c ****     running=kern_scheduler_get();
  61:src/kern_threads.c ****     if(old!=running){
  62:src/kern_threads.c ****         if(old->status==RUNNING) old->status=READY;
  63:src/kern_threads.c ****         contextSwitch(old,running);
  64:src/kern_threads.c ****     }
  65:src/kern_threads.c **** }
  66:src/kern_threads.c **** 
  67:src/kern_threads.c **** void kern_thread_wrapper()
  68:src/kern_threads.c **** {
 247              		.loc 1 68 1 is_stmt 1
 248              		.cfi_startproc
 249 0184 130101FE 		addi	sp,sp,-32
 250              		.cfi_def_cfa_offset 32
 251 0188 233C1100 		sd	ra,24(sp)
 252 018c 23388100 		sd	s0,16(sp)
 253 0190 23349100 		sd	s1,8(sp)
 254              		.cfi_offset 1, -8
 255              		.cfi_offset 8, -16
 256              		.cfi_offset 9, -24
 257 0194 13040102 		addi	s0,sp,32
 258              		.cfi_def_cfa 8, 0
  69:src/kern_threads.c ****     popSppSpie();
 259              		.loc 1 69 5
 260 0198 97000000 		call	popSppSpie
 260      E7800000 
 261              	.LVL12:
GAS LISTING /tmp/ccvXE2EI.s 			page 7


  70:src/kern_threads.c ****     running->body(running->arg);
 262              		.loc 1 70 5
 263              		.loc 1 70 12 is_stmt 0
 264 01a0 97040000 		lla	s1,running
 264      93840400 
 265 01a8 83B70400 		ld	a5,0(s1)
 266 01ac 03B78701 		ld	a4,24(a5)
 267              		.loc 1 70 5
 268 01b0 03B50702 		ld	a0,32(a5)
 269 01b4 E7000700 		jalr	a4
 270              	.LVL13:
  71:src/kern_threads.c ****     running->status=UNUSED;
 271              		.loc 1 71 5 is_stmt 1
 272              		.loc 1 71 12 is_stmt 0
 273 01b8 83B70400 		ld	a5,0(s1)
 274              		.loc 1 71 20
 275 01bc 23A20704 		sw	zero,68(a5)
  72:src/kern_threads.c ****     kern_thread_yield();
 276              		.loc 1 72 5 is_stmt 1
 277 01c0 97000000 		call	kern_thread_yield
 277      E7800000 
 278              	.LVL14:
  73:src/kern_threads.c **** }
 279              		.loc 1 73 1 is_stmt 0
 280 01c8 83308101 		ld	ra,24(sp)
 281              		.cfi_restore 1
 282 01cc 03340101 		ld	s0,16(sp)
 283              		.cfi_restore 8
 284              		.cfi_def_cfa 2, 32
 285 01d0 83348100 		ld	s1,8(sp)
 286              		.cfi_restore 9
 287 01d4 13010102 		addi	sp,sp,32
 288              		.cfi_def_cfa_offset 0
 289 01d8 67800000 		jr	ra
 290              		.cfi_endproc
 291              	.LFE5:
 293              		.align	2
 294              		.globl	kern_thread_dispatch
 296              	kern_thread_dispatch:
 297              	.LFB4:
  58:src/kern_threads.c ****     thread_t old = running;
 298              		.loc 1 58 1 is_stmt 1
 299              		.cfi_startproc
 300 01dc 130101FE 		addi	sp,sp,-32
 301              		.cfi_def_cfa_offset 32
 302 01e0 233C1100 		sd	ra,24(sp)
 303 01e4 23388100 		sd	s0,16(sp)
 304 01e8 23349100 		sd	s1,8(sp)
 305 01ec 23302101 		sd	s2,0(sp)
 306              		.cfi_offset 1, -8
 307              		.cfi_offset 8, -16
 308              		.cfi_offset 9, -24
 309              		.cfi_offset 18, -32
 310 01f0 13040102 		addi	s0,sp,32
 311              		.cfi_def_cfa 8, 0
  59:src/kern_threads.c ****     running=kern_scheduler_get();
 312              		.loc 1 59 5
GAS LISTING /tmp/ccvXE2EI.s 			page 8


  59:src/kern_threads.c ****     running=kern_scheduler_get();
 313              		.loc 1 59 14 is_stmt 0
 314 01f4 17090000 		lla	s2,running
 314      13090900 
 315 01fc 83340900 		ld	s1,0(s2)
 316              	.LVL15:
  60:src/kern_threads.c ****     if(old!=running){
 317              		.loc 1 60 5 is_stmt 1
  60:src/kern_threads.c ****     if(old!=running){
 318              		.loc 1 60 13 is_stmt 0
 319 0200 97000000 		call	kern_scheduler_get
 319      E7800000 
 320              	.LVL16:
  60:src/kern_threads.c ****     if(old!=running){
 321              		.loc 1 60 12
 322 0208 2330A900 		sd	a0,0(s2)
  61:src/kern_threads.c ****         if(old->status==RUNNING) old->status=READY;
 323              		.loc 1 61 5 is_stmt 1
  61:src/kern_threads.c ****         if(old->status==RUNNING) old->status=READY;
 324              		.loc 1 61 7 is_stmt 0
 325 020c 63009502 		beq	a0,s1,.L19
 326 0210 93050500 		mv	a1,a0
  62:src/kern_threads.c ****         contextSwitch(old,running);
 327              		.loc 1 62 9 is_stmt 1
  62:src/kern_threads.c ****         contextSwitch(old,running);
 328              		.loc 1 62 15 is_stmt 0
 329 0214 03A74404 		lw	a4,68(s1)
  62:src/kern_threads.c ****         contextSwitch(old,running);
 330              		.loc 1 62 11
 331 0218 93071000 		li	a5,1
 332 021c 6304F702 		beq	a4,a5,.L23
 333              	.L21:
  63:src/kern_threads.c ****     }
 334              		.loc 1 63 9 is_stmt 1
 335 0220 13850400 		mv	a0,s1
 336 0224 97000000 		call	contextSwitch
 336      E7800000 
 337              	.LVL17:
 338              	.L19:
  65:src/kern_threads.c **** 
 339              		.loc 1 65 1 is_stmt 0
 340 022c 83308101 		ld	ra,24(sp)
 341              		.cfi_remember_state
 342              		.cfi_restore 1
 343 0230 03340101 		ld	s0,16(sp)
 344              		.cfi_restore 8
 345              		.cfi_def_cfa 2, 32
 346 0234 83348100 		ld	s1,8(sp)
 347              		.cfi_restore 9
 348              	.LVL18:
 349 0238 03390100 		ld	s2,0(sp)
 350              		.cfi_restore 18
 351 023c 13010102 		addi	sp,sp,32
 352              		.cfi_def_cfa_offset 0
 353 0240 67800000 		jr	ra
 354              	.LVL19:
 355              	.L23:
GAS LISTING /tmp/ccvXE2EI.s 			page 9


 356              		.cfi_restore_state
  62:src/kern_threads.c ****         contextSwitch(old,running);
 357              		.loc 1 62 34 is_stmt 1 discriminator 1
  62:src/kern_threads.c ****         contextSwitch(old,running);
 358              		.loc 1 62 45 is_stmt 0 discriminator 1
 359 0244 93072000 		li	a5,2
 360 0248 23A2F404 		sw	a5,68(s1)
 361 024c 6FF05FFD 		j	.L21
 362              		.cfi_endproc
 363              	.LFE4:
 365              		.align	2
 366              		.globl	kern_thread_create
 368              	kern_thread_create:
 369              	.LFB6:
  74:src/kern_threads.c **** 
  75:src/kern_threads.c **** int kern_thread_create(thread_t* handle, void(*start_routine)(void*), void* arg, void* stack_space)
  76:src/kern_threads.c **** {
 370              		.loc 1 76 1 is_stmt 1
 371              		.cfi_startproc
 372              	.LVL20:
 373 0250 130101FF 		addi	sp,sp,-16
 374              		.cfi_def_cfa_offset 16
 375 0254 23348100 		sd	s0,8(sp)
 376              		.cfi_offset 8, -8
 377 0258 13040101 		addi	s0,sp,16
 378              		.cfi_def_cfa 8, 0
  77:src/kern_threads.c ****     *handle=0;
 379              		.loc 1 77 5
 380              		.loc 1 77 12 is_stmt 0
 381 025c 23300500 		sd	zero,0(a0)
  78:src/kern_threads.c ****     thread_t t=&threads[0]; //dodela da bismo sklonili upozorenje
 382              		.loc 1 78 5 is_stmt 1
 383              	.LVL21:
  79:src/kern_threads.c ****     for(int i=0;i<MAX_THREADS;i++){
 384              		.loc 1 79 5
 385              	.LBB4:
 386              		.loc 1 79 9
 387              		.loc 1 79 13 is_stmt 0
 388 0260 13070000 		li	a4,0
 389              	.LVL22:
 390              	.L25:
 391              		.loc 1 79 17 is_stmt 1 discriminator 1
 392              		.loc 1 79 5 is_stmt 0 discriminator 1
 393 0264 9307F003 		li	a5,63
 394 0268 63C4E70A 		bgt	a4,a5,.L32
  80:src/kern_threads.c ****         if(threads[i].status==UNUSED){
 395              		.loc 1 80 9 is_stmt 1
 396              		.loc 1 80 22 is_stmt 0
 397 026c 93172700 		slli	a5,a4,2
 398 0270 B387E700 		add	a5,a5,a4
 399 0274 93974700 		slli	a5,a5,4
 400 0278 17080000 		lla	a6,threads
 400      13080800 
 401 0280 B307F800 		add	a5,a6,a5
 402 0284 83A74704 		lw	a5,68(a5)
 403              		.loc 1 80 11
 404 0288 63860700 		beqz	a5,.L33
GAS LISTING /tmp/ccvXE2EI.s 			page 10


  79:src/kern_threads.c ****     for(int i=0;i<MAX_THREADS;i++){
 405              		.loc 1 79 31 is_stmt 1 discriminator 2
  79:src/kern_threads.c ****     for(int i=0;i<MAX_THREADS;i++){
 406              		.loc 1 79 32 is_stmt 0 discriminator 2
 407 028c 1B071700 		addiw	a4,a4,1
 408              	.LVL23:
 409 0290 6FF05FFD 		j	.L25
 410              	.LVL24:
 411              	.L33:
  81:src/kern_threads.c ****             *handle=&threads[i];
 412              		.loc 1 81 13 is_stmt 1
 413              		.loc 1 81 21 is_stmt 0
 414 0294 93172700 		slli	a5,a4,2
 415 0298 B387E700 		add	a5,a5,a4
 416 029c 93974700 		slli	a5,a5,4
 417 02a0 B3870701 		add	a5,a5,a6
 418              		.loc 1 81 20
 419 02a4 2330F500 		sd	a5,0(a0)
  82:src/kern_threads.c ****             t=&threads[i];
 420              		.loc 1 82 13 is_stmt 1
 421              	.LVL25:
  83:src/kern_threads.c ****             break;
 422              		.loc 1 83 13
 423              	.L27:
 424              	.LBE4:
  84:src/kern_threads.c ****         }
  85:src/kern_threads.c ****     }
  86:src/kern_threads.c ****     if(*handle==0) return -1;
 425              		.loc 1 86 5
 426              		.loc 1 86 8 is_stmt 0
 427 02a8 03370500 		ld	a4,0(a0)
 428              	.LVL26:
 429              		.loc 1 86 7
 430 02ac 63080706 		beqz	a4,.L30
  87:src/kern_threads.c **** 
  88:src/kern_threads.c ****     t->id=++id;
 431              		.loc 1 88 5 is_stmt 1
 432              		.loc 1 88 11 is_stmt 0
 433 02b0 17050000 		lla	a0,id
 433      13050500 
 434              	.LVL27:
 435 02b8 03270500 		lw	a4,0(a0)
 436 02bc 1B071700 		addiw	a4,a4,1
 437 02c0 1B080700 		sext.w	a6,a4
 438              		.loc 1 88 10
 439 02c4 2320E500 		sw	a4,0(a0)
 440 02c8 23B80701 		sd	a6,16(a5)
  89:src/kern_threads.c ****     t->status=READY;
 441              		.loc 1 89 5 is_stmt 1
 442              		.loc 1 89 14 is_stmt 0
 443 02cc 13072000 		li	a4,2
 444 02d0 23A2E704 		sw	a4,68(a5)
  90:src/kern_threads.c ****     t->type=REGULAR;
 445              		.loc 1 90 5 is_stmt 1
 446              		.loc 1 90 12 is_stmt 0
 447 02d4 23A00704 		sw	zero,64(a5)
  91:src/kern_threads.c ****     t->arg=arg;
GAS LISTING /tmp/ccvXE2EI.s 			page 11


 448              		.loc 1 91 5 is_stmt 1
 449              		.loc 1 91 11 is_stmt 0
 450 02d8 23B0C702 		sd	a2,32(a5)
  92:src/kern_threads.c ****     t->joined_tid=-1;
 451              		.loc 1 92 5 is_stmt 1
 452              		.loc 1 92 18 is_stmt 0
 453 02dc 1307F0FF 		li	a4,-1
 454 02e0 23B4E702 		sd	a4,40(a5)
  93:src/kern_threads.c ****     t->timeslice=DEFAULT_TIME_SLICE;
 455              		.loc 1 93 5 is_stmt 1
 456              		.loc 1 93 17 is_stmt 0
 457 02e4 13072000 		li	a4,2
 458 02e8 23B8E702 		sd	a4,48(a5)
  94:src/kern_threads.c ****     t->body=start_routine;
 459              		.loc 1 94 5 is_stmt 1
 460              		.loc 1 94 12 is_stmt 0
 461 02ec 23BCB700 		sd	a1,24(a5)
  95:src/kern_threads.c ****     t->sp = ((uint64)stack_space);
 462              		.loc 1 95 5 is_stmt 1
 463              		.loc 1 95 11 is_stmt 0
 464 02f0 23B4D700 		sd	a3,8(a5)
  96:src/kern_threads.c ****     t->ra=(uint64) &kern_thread_wrapper;
 465              		.loc 1 96 5 is_stmt 1
 466              		.loc 1 96 11 is_stmt 0
 467 02f4 17070000 		lla	a4,kern_thread_wrapper
 467      13070700 
 468              		.loc 1 96 10
 469 02fc 23B0E700 		sd	a4,0(a5)
  97:src/kern_threads.c **** 
  98:src/kern_threads.c ****     return 0;
 470              		.loc 1 98 5 is_stmt 1
 471              		.loc 1 98 12 is_stmt 0
 472 0300 13050000 		li	a0,0
 473              	.L29:
  99:src/kern_threads.c **** }
 474              		.loc 1 99 1
 475 0304 03348100 		ld	s0,8(sp)
 476              		.cfi_remember_state
 477              		.cfi_restore 8
 478              		.cfi_def_cfa 2, 16
 479 0308 13010101 		addi	sp,sp,16
 480              		.cfi_def_cfa_offset 0
 481 030c 67800000 		jr	ra
 482              	.LVL28:
 483              	.L32:
 484              		.cfi_restore_state
  78:src/kern_threads.c ****     for(int i=0;i<MAX_THREADS;i++){
 485              		.loc 1 78 14
 486 0310 97070000 		lla	a5,threads
 486      93870700 
 487 0318 6FF01FF9 		j	.L27
 488              	.LVL29:
 489              	.L30:
  86:src/kern_threads.c **** 
 490              		.loc 1 86 27
 491 031c 1305F0FF 		li	a0,-1
 492              	.LVL30:
GAS LISTING /tmp/ccvXE2EI.s 			page 12


 493 0320 6FF05FFE 		j	.L29
 494              		.cfi_endproc
 495              	.LFE6:
 497              		.globl	running
 498              		.globl	threads
 499              		.section	.srodata.cst8,"aM",@progbits,8
 500              		.align	3
 501              	.LC0:
 502 0000 CDCCCCCC 		.dword	-3689348814741910323
 502      CCCCCCCC 
 503              		.bss
 504              		.align	3
 507              	threads:
 508 0000 00000000 		.zero	5120
 508      00000000 
 508      00000000 
 508      00000000 
 508      00000000 
 509              		.section	.sbss,"aw",@nobits
 510              		.align	3
 513              	running:
 514 0000 00000000 		.zero	8
 514      00000000 
 517              	id:
 518 0008 00000000 		.zero	4
 519              		.text
 520              	.Letext0:
 521              		.file 2 "src/../h/../lib/hw.h"
 522              		.file 3 "src/../h/kern_threads.h"
 523              		.file 4 "src/../h/kern_interrupts.h"
GAS LISTING /tmp/ccvXE2EI.s 			page 13


DEFINED SYMBOLS
                            *ABS*:0000000000000000 kern_threads.c
     /tmp/ccvXE2EI.s:10     .text:0000000000000000 kern_thread_init
     /tmp/ccvXE2EI.s:14     .text:0000000000000000 .L0 
     /tmp/ccvXE2EI.s:15     .text:0000000000000000 .L0 
     /tmp/ccvXE2EI.s:16     .text:0000000000000004 .L0 
     /tmp/ccvXE2EI.s:18     .text:0000000000000008 .L0 
     /tmp/ccvXE2EI.s:20     .text:000000000000000c .L0 
     /tmp/ccvXE2EI.s:22     .text:000000000000000c .L0 
     /tmp/ccvXE2EI.s:517    .sbss:0000000000000008 id
     /tmp/ccvXE2EI.s:23     .text:000000000000000c .L0 
     /tmp/ccvXE2EI.s:26     .text:0000000000000014 .L0 
     /tmp/ccvXE2EI.s:28     .text:0000000000000014 .L0 
     /tmp/ccvXE2EI.s:29     .text:0000000000000014 .L0 
     /tmp/ccvXE2EI.s:31     .text:0000000000000018 .L0 
     /tmp/ccvXE2EI.s:35     .text:000000000000001c .L0 
     /tmp/ccvXE2EI.s:36     .text:000000000000001c .L0 
     /tmp/ccvXE2EI.s:507    .bss:0000000000000000 threads
     /tmp/ccvXE2EI.s:43     .text:0000000000000038 .L0 
     /tmp/ccvXE2EI.s:44     .text:0000000000000038 .L0 
     /tmp/ccvXE2EI.s:48     .text:000000000000003c .L0 
     /tmp/ccvXE2EI.s:49     .text:000000000000003c .L0 
     /tmp/ccvXE2EI.s:53     .text:0000000000000044 .L0 
     /tmp/ccvXE2EI.s:54     .text:0000000000000044 .L0 
     /tmp/ccvXE2EI.s:59     .text:0000000000000054 .L0 
     /tmp/ccvXE2EI.s:60     .text:0000000000000054 .L0 
     /tmp/ccvXE2EI.s:62     .text:0000000000000058 .L0 
     /tmp/ccvXE2EI.s:63     .text:0000000000000058 .L0 
     /tmp/ccvXE2EI.s:66     .text:0000000000000060 .L0 
     /tmp/ccvXE2EI.s:67     .text:0000000000000060 .L0 
     /tmp/ccvXE2EI.s:71     .text:000000000000006c .L0 
     /tmp/ccvXE2EI.s:513    .sbss:0000000000000000 running
     /tmp/ccvXE2EI.s:72     .text:000000000000006c .L0 
     /tmp/ccvXE2EI.s:74     .text:0000000000000074 .L0 
     /tmp/ccvXE2EI.s:75     .text:0000000000000078 .L0 
     /tmp/ccvXE2EI.s:76     .text:0000000000000078 .L0 
     /tmp/ccvXE2EI.s:78     .text:000000000000007c .L0 
     /tmp/ccvXE2EI.s:80     .text:0000000000000080 .L0 
     /tmp/ccvXE2EI.s:86     .text:0000000000000080 kern_scheduler_get
     /tmp/ccvXE2EI.s:89     .text:0000000000000080 .L0 
     /tmp/ccvXE2EI.s:90     .text:0000000000000080 .L0 
     /tmp/ccvXE2EI.s:91     .text:0000000000000084 .L0 
     /tmp/ccvXE2EI.s:93     .text:0000000000000088 .L0 
     /tmp/ccvXE2EI.s:95     .text:000000000000008c .L0 
     /tmp/ccvXE2EI.s:97     .text:000000000000008c .L0 
     /tmp/ccvXE2EI.s:98     .text:000000000000008c .L0 
     /tmp/ccvXE2EI.s:103    .text:00000000000000a4 .L0 
     /tmp/ccvXE2EI.s:108    .text:00000000000000b0 .L0 
     /tmp/ccvXE2EI.s:109    .text:00000000000000b0 .L0 
     /tmp/ccvXE2EI.s:110    .text:00000000000000b0 .L0 
     /tmp/ccvXE2EI.s:114    .text:00000000000000b4 .L0 
     /tmp/ccvXE2EI.s:115    .text:00000000000000b4 .L0 
     /tmp/ccvXE2EI.s:118    .text:00000000000000bc .L0 
     /tmp/ccvXE2EI.s:119    .text:00000000000000bc .L0 
     /tmp/ccvXE2EI.s:122    .text:00000000000000c0 .L0 
     /tmp/ccvXE2EI.s:128    .text:00000000000000d4 .L0 
     /tmp/ccvXE2EI.s:129    .text:00000000000000d4 .L0 
GAS LISTING /tmp/ccvXE2EI.s 			page 14


     /tmp/ccvXE2EI.s:136    .text:00000000000000f0 .L0 
     /tmp/ccvXE2EI.s:139    .text:00000000000000f8 .L0 
     /tmp/ccvXE2EI.s:140    .text:00000000000000f8 .L0 
     /tmp/ccvXE2EI.s:146    .text:0000000000000100 .L0 
     /tmp/ccvXE2EI.s:147    .text:0000000000000100 .L0 
     /tmp/ccvXE2EI.s:155    .text:0000000000000118 .L0 
     /tmp/ccvXE2EI.s:156    .text:000000000000011c .L0 
     /tmp/ccvXE2EI.s:157    .text:000000000000011c .L0 
     /tmp/ccvXE2EI.s:158    .text:000000000000011c .L0 
     /tmp/ccvXE2EI.s:160    .text:0000000000000120 .L0 
     /tmp/ccvXE2EI.s:164    .text:0000000000000124 .L0 
     /tmp/ccvXE2EI.s:166    .text:0000000000000124 .L0 
     /tmp/ccvXE2EI.s:167    .text:0000000000000124 .L0 
     /tmp/ccvXE2EI.s:169    .text:0000000000000128 .L0 
     /tmp/ccvXE2EI.s:173    .text:0000000000000130 .L0 
     /tmp/ccvXE2EI.s:175    .text:0000000000000138 .L0 
     /tmp/ccvXE2EI.s:181    .text:0000000000000138 kern_thread_yield
     /tmp/ccvXE2EI.s:184    .text:0000000000000138 .L0 
     /tmp/ccvXE2EI.s:185    .text:0000000000000138 .L0 
     /tmp/ccvXE2EI.s:186    .text:000000000000013c .L0 
     /tmp/ccvXE2EI.s:189    .text:0000000000000144 .L0 
     /tmp/ccvXE2EI.s:190    .text:0000000000000144 .L0 
     /tmp/ccvXE2EI.s:192    .text:0000000000000148 .L0 
     /tmp/ccvXE2EI.s:194    .text:0000000000000148 .L0 
     /tmp/ccvXE2EI.s:198    .text:0000000000000154 .L0 
     /tmp/ccvXE2EI.s:199    .text:0000000000000158 .L0 
     /tmp/ccvXE2EI.s:201    .text:000000000000015c .L0 
     /tmp/ccvXE2EI.s:202    .text:000000000000015c .L0 
     /tmp/ccvXE2EI.s:204    .text:0000000000000160 .L0 
     /tmp/ccvXE2EI.s:206    .text:0000000000000164 .L0 
     /tmp/ccvXE2EI.s:212    .text:0000000000000164 popSppSpie
     /tmp/ccvXE2EI.s:215    .text:0000000000000164 .L0 
     /tmp/ccvXE2EI.s:216    .text:0000000000000164 .L0 
     /tmp/ccvXE2EI.s:217    .text:0000000000000168 .L0 
     /tmp/ccvXE2EI.s:219    .text:000000000000016c .L0 
     /tmp/ccvXE2EI.s:221    .text:0000000000000170 .L0 
  src/kern_threads.c:51     .text:0000000000000170 .L0 
  src/kern_threads.c:52     .text:0000000000000174 .L0 
     /tmp/ccvXE2EI.s:233    .text:0000000000000178 .L0 
     /tmp/ccvXE2EI.s:234    .text:000000000000017c .L0 
     /tmp/ccvXE2EI.s:235    .text:000000000000017c .L0 
     /tmp/ccvXE2EI.s:237    .text:0000000000000180 .L0 
     /tmp/ccvXE2EI.s:239    .text:0000000000000184 .L0 
     /tmp/ccvXE2EI.s:245    .text:0000000000000184 kern_thread_wrapper
     /tmp/ccvXE2EI.s:248    .text:0000000000000184 .L0 
     /tmp/ccvXE2EI.s:249    .text:0000000000000184 .L0 
     /tmp/ccvXE2EI.s:250    .text:0000000000000188 .L0 
     /tmp/ccvXE2EI.s:254    .text:0000000000000194 .L0 
     /tmp/ccvXE2EI.s:255    .text:0000000000000194 .L0 
     /tmp/ccvXE2EI.s:256    .text:0000000000000194 .L0 
     /tmp/ccvXE2EI.s:258    .text:0000000000000198 .L0 
     /tmp/ccvXE2EI.s:260    .text:0000000000000198 .L0 
     /tmp/ccvXE2EI.s:263    .text:00000000000001a0 .L0 
     /tmp/ccvXE2EI.s:264    .text:00000000000001a0 .L0 
     /tmp/ccvXE2EI.s:268    .text:00000000000001b0 .L0 
     /tmp/ccvXE2EI.s:272    .text:00000000000001b8 .L0 
     /tmp/ccvXE2EI.s:273    .text:00000000000001b8 .L0 
GAS LISTING /tmp/ccvXE2EI.s 			page 15


     /tmp/ccvXE2EI.s:275    .text:00000000000001bc .L0 
     /tmp/ccvXE2EI.s:277    .text:00000000000001c0 .L0 
     /tmp/ccvXE2EI.s:280    .text:00000000000001c8 .L0 
     /tmp/ccvXE2EI.s:281    .text:00000000000001cc .L0 
     /tmp/ccvXE2EI.s:283    .text:00000000000001d0 .L0 
     /tmp/ccvXE2EI.s:284    .text:00000000000001d0 .L0 
     /tmp/ccvXE2EI.s:286    .text:00000000000001d4 .L0 
     /tmp/ccvXE2EI.s:288    .text:00000000000001d8 .L0 
     /tmp/ccvXE2EI.s:290    .text:00000000000001dc .L0 
     /tmp/ccvXE2EI.s:296    .text:00000000000001dc kern_thread_dispatch
     /tmp/ccvXE2EI.s:299    .text:00000000000001dc .L0 
     /tmp/ccvXE2EI.s:300    .text:00000000000001dc .L0 
     /tmp/ccvXE2EI.s:301    .text:00000000000001e0 .L0 
     /tmp/ccvXE2EI.s:306    .text:00000000000001f0 .L0 
     /tmp/ccvXE2EI.s:307    .text:00000000000001f0 .L0 
     /tmp/ccvXE2EI.s:308    .text:00000000000001f0 .L0 
     /tmp/ccvXE2EI.s:309    .text:00000000000001f0 .L0 
     /tmp/ccvXE2EI.s:311    .text:00000000000001f4 .L0 
     /tmp/ccvXE2EI.s:313    .text:00000000000001f4 .L0 
     /tmp/ccvXE2EI.s:314    .text:00000000000001f4 .L0 
     /tmp/ccvXE2EI.s:318    .text:0000000000000200 .L0 
     /tmp/ccvXE2EI.s:319    .text:0000000000000200 .L0 
     /tmp/ccvXE2EI.s:322    .text:0000000000000208 .L0 
     /tmp/ccvXE2EI.s:324    .text:000000000000020c .L0 
     /tmp/ccvXE2EI.s:325    .text:000000000000020c .L0 
     /tmp/ccvXE2EI.s:328    .text:0000000000000214 .L0 
     /tmp/ccvXE2EI.s:329    .text:0000000000000214 .L0 
     /tmp/ccvXE2EI.s:331    .text:0000000000000218 .L0 
     /tmp/ccvXE2EI.s:335    .text:0000000000000220 .L0 
     /tmp/ccvXE2EI.s:340    .text:000000000000022c .L0 
     /tmp/ccvXE2EI.s:341    .text:0000000000000230 .L0 
     /tmp/ccvXE2EI.s:342    .text:0000000000000230 .L0 
     /tmp/ccvXE2EI.s:344    .text:0000000000000234 .L0 
     /tmp/ccvXE2EI.s:345    .text:0000000000000234 .L0 
     /tmp/ccvXE2EI.s:347    .text:0000000000000238 .L0 
     /tmp/ccvXE2EI.s:350    .text:000000000000023c .L0 
     /tmp/ccvXE2EI.s:352    .text:0000000000000240 .L0 
     /tmp/ccvXE2EI.s:356    .text:0000000000000244 .L0 
     /tmp/ccvXE2EI.s:358    .text:0000000000000244 .L0 
     /tmp/ccvXE2EI.s:359    .text:0000000000000244 .L0 
     /tmp/ccvXE2EI.s:362    .text:0000000000000250 .L0 
     /tmp/ccvXE2EI.s:368    .text:0000000000000250 kern_thread_create
     /tmp/ccvXE2EI.s:371    .text:0000000000000250 .L0 
     /tmp/ccvXE2EI.s:373    .text:0000000000000250 .L0 
     /tmp/ccvXE2EI.s:374    .text:0000000000000254 .L0 
     /tmp/ccvXE2EI.s:376    .text:0000000000000258 .L0 
     /tmp/ccvXE2EI.s:378    .text:000000000000025c .L0 
     /tmp/ccvXE2EI.s:380    .text:000000000000025c .L0 
     /tmp/ccvXE2EI.s:381    .text:000000000000025c .L0 
     /tmp/ccvXE2EI.s:384    .text:0000000000000260 .L0 
     /tmp/ccvXE2EI.s:386    .text:0000000000000260 .L0 
     /tmp/ccvXE2EI.s:387    .text:0000000000000260 .L0 
     /tmp/ccvXE2EI.s:388    .text:0000000000000260 .L0 
     /tmp/ccvXE2EI.s:392    .text:0000000000000264 .L0 
     /tmp/ccvXE2EI.s:393    .text:0000000000000264 .L0 
     /tmp/ccvXE2EI.s:396    .text:000000000000026c .L0 
     /tmp/ccvXE2EI.s:397    .text:000000000000026c .L0 
GAS LISTING /tmp/ccvXE2EI.s 			page 16


     /tmp/ccvXE2EI.s:404    .text:0000000000000288 .L0 
     /tmp/ccvXE2EI.s:406    .text:000000000000028c .L0 
     /tmp/ccvXE2EI.s:407    .text:000000000000028c .L0 
     /tmp/ccvXE2EI.s:413    .text:0000000000000294 .L0 
     /tmp/ccvXE2EI.s:414    .text:0000000000000294 .L0 
     /tmp/ccvXE2EI.s:419    .text:00000000000002a4 .L0 
     /tmp/ccvXE2EI.s:422    .text:00000000000002a8 .L0 
     /tmp/ccvXE2EI.s:425    .text:00000000000002a8 .L0 
     /tmp/ccvXE2EI.s:426    .text:00000000000002a8 .L0 
     /tmp/ccvXE2EI.s:427    .text:00000000000002a8 .L0 
     /tmp/ccvXE2EI.s:430    .text:00000000000002ac .L0 
     /tmp/ccvXE2EI.s:432    .text:00000000000002b0 .L0 
     /tmp/ccvXE2EI.s:433    .text:00000000000002b0 .L0 
     /tmp/ccvXE2EI.s:439    .text:00000000000002c4 .L0 
     /tmp/ccvXE2EI.s:442    .text:00000000000002cc .L0 
     /tmp/ccvXE2EI.s:443    .text:00000000000002cc .L0 
     /tmp/ccvXE2EI.s:446    .text:00000000000002d4 .L0 
     /tmp/ccvXE2EI.s:447    .text:00000000000002d4 .L0 
     /tmp/ccvXE2EI.s:449    .text:00000000000002d8 .L0 
     /tmp/ccvXE2EI.s:450    .text:00000000000002d8 .L0 
     /tmp/ccvXE2EI.s:452    .text:00000000000002dc .L0 
     /tmp/ccvXE2EI.s:453    .text:00000000000002dc .L0 
     /tmp/ccvXE2EI.s:456    .text:00000000000002e4 .L0 
     /tmp/ccvXE2EI.s:457    .text:00000000000002e4 .L0 
     /tmp/ccvXE2EI.s:460    .text:00000000000002ec .L0 
     /tmp/ccvXE2EI.s:461    .text:00000000000002ec .L0 
     /tmp/ccvXE2EI.s:463    .text:00000000000002f0 .L0 
     /tmp/ccvXE2EI.s:464    .text:00000000000002f0 .L0 
     /tmp/ccvXE2EI.s:466    .text:00000000000002f4 .L0 
     /tmp/ccvXE2EI.s:467    .text:00000000000002f4 .L0 
     /tmp/ccvXE2EI.s:469    .text:00000000000002fc .L0 
     /tmp/ccvXE2EI.s:471    .text:0000000000000300 .L0 
     /tmp/ccvXE2EI.s:472    .text:0000000000000300 .L0 
     /tmp/ccvXE2EI.s:475    .text:0000000000000304 .L0 
     /tmp/ccvXE2EI.s:476    .text:0000000000000308 .L0 
     /tmp/ccvXE2EI.s:477    .text:0000000000000308 .L0 
     /tmp/ccvXE2EI.s:478    .text:0000000000000308 .L0 
     /tmp/ccvXE2EI.s:480    .text:000000000000030c .L0 
     /tmp/ccvXE2EI.s:484    .text:0000000000000310 .L0 
     /tmp/ccvXE2EI.s:486    .text:0000000000000310 .L0 
     /tmp/ccvXE2EI.s:491    .text:000000000000031c .L0 
     /tmp/ccvXE2EI.s:494    .text:0000000000000324 .L0 
     /tmp/ccvXE2EI.s:524    .text:0000000000000324 .L0 
                     .debug_frame:0000000000000000 .L0 
     /tmp/ccvXE2EI.s:23     .text:000000000000000c .L0 
     /tmp/ccvXE2EI.s:39     .text:0000000000000028 .L0 
     /tmp/ccvXE2EI.s:54     .text:0000000000000044 .L0 
     /tmp/ccvXE2EI.s:72     .text:000000000000006c .L0 
     /tmp/ccvXE2EI.s:98     .text:000000000000008c .L0 
     /tmp/ccvXE2EI.s:99     .text:0000000000000094 .L0 
     /tmp/ccvXE2EI.s:501    .srodata.cst8:0000000000000000 .LC0
     /tmp/ccvXE2EI.s:103    .text:00000000000000a4 .L0 
     /tmp/ccvXE2EI.s:132    .text:00000000000000e0 .L0 
     /tmp/ccvXE2EI.s:150    .text:000000000000010c .L0 
     /tmp/ccvXE2EI.s:264    .text:00000000000001a0 .L0 
     /tmp/ccvXE2EI.s:314    .text:00000000000001f4 .L0 
     /tmp/ccvXE2EI.s:400    .text:0000000000000278 .L0 
GAS LISTING /tmp/ccvXE2EI.s 			page 17


     /tmp/ccvXE2EI.s:433    .text:00000000000002b0 .L0 
     /tmp/ccvXE2EI.s:467    .text:00000000000002f4 .L0 
     /tmp/ccvXE2EI.s:486    .text:0000000000000310 .L0 
     /tmp/ccvXE2EI.s:46     .text:000000000000003c .L2
     /tmp/ccvXE2EI.s:33     .text:000000000000001c .L3
     /tmp/ccvXE2EI.s:163    .text:0000000000000124 .L11
     /tmp/ccvXE2EI.s:144    .text:0000000000000100 .L12
     /tmp/ccvXE2EI.s:112    .text:00000000000000b4 .L6
     /tmp/ccvXE2EI.s:152    .text:0000000000000118 .L5
     /tmp/ccvXE2EI.s:338    .text:000000000000022c .L19
     /tmp/ccvXE2EI.s:355    .text:0000000000000244 .L23
     /tmp/ccvXE2EI.s:333    .text:0000000000000220 .L21
     /tmp/ccvXE2EI.s:483    .text:0000000000000310 .L32
     /tmp/ccvXE2EI.s:411    .text:0000000000000294 .L33
     /tmp/ccvXE2EI.s:390    .text:0000000000000264 .L25
     /tmp/ccvXE2EI.s:489    .text:000000000000031c .L30
     /tmp/ccvXE2EI.s:423    .text:00000000000002a8 .L27
     /tmp/ccvXE2EI.s:473    .text:0000000000000304 .L29
     /tmp/ccvXE2EI.s:1089   .debug_abbrev:0000000000000000 .Ldebug_abbrev0
     /tmp/ccvXE2EI.s:1845   .debug_str:00000000000001e6 .LASF58
     /tmp/ccvXE2EI.s:1793   .debug_str:000000000000008f .LASF59
     /tmp/ccvXE2EI.s:1883   .debug_str:000000000000034d .LASF60
     /tmp/ccvXE2EI.s:5      .text:0000000000000000 .Ltext0
     /tmp/ccvXE2EI.s:520    .text:0000000000000324 .Letext0
     /tmp/ccvXE2EI.s:1769   .debug_line:0000000000000000 .Ldebug_line0
     /tmp/ccvXE2EI.s:1847   .debug_str:0000000000000284 .LASF0
     /tmp/ccvXE2EI.s:1819   .debug_str:0000000000000146 .LASF1
     /tmp/ccvXE2EI.s:1809   .debug_str:00000000000000fc .LASF2
     /tmp/ccvXE2EI.s:1789   .debug_str:000000000000007f .LASF4
     /tmp/ccvXE2EI.s:1815   .debug_str:0000000000000124 .LASF3
     /tmp/ccvXE2EI.s:1775   .debug_str:000000000000001c .LASF5
     /tmp/ccvXE2EI.s:1773   .debug_str:0000000000000009 .LASF6
     /tmp/ccvXE2EI.s:1803   .debug_str:00000000000000d5 .LASF7
     /tmp/ccvXE2EI.s:1855   .debug_str:00000000000002b2 .LASF8
     /tmp/ccvXE2EI.s:1787   .debug_str:0000000000000071 .LASF9
     /tmp/ccvXE2EI.s:1899   .debug_str:00000000000003b4 .LASF10
     /tmp/ccvXE2EI.s:1805   .debug_str:00000000000000e8 .LASF11
     /tmp/ccvXE2EI.s:1891   .debug_str:000000000000038a .LASF12
     /tmp/ccvXE2EI.s:1863   .debug_str:00000000000002ec .LASF13
     /tmp/ccvXE2EI.s:1823   .debug_str:000000000000016c .LASF14
     /tmp/ccvXE2EI.s:1795   .debug_str:00000000000000a2 .LASF15
     /tmp/ccvXE2EI.s:1857   .debug_str:00000000000002c2 .LASF16
     /tmp/ccvXE2EI.s:1833   .debug_str:0000000000000198 .LASF21
     /tmp/ccvXE2EI.s:1875   .debug_str:000000000000032d .LASF17
     /tmp/ccvXE2EI.s:1893   .debug_str:000000000000039a .LASF18
     /tmp/ccvXE2EI.s:1811   .debug_str:000000000000010a .LASF19
     /tmp/ccvXE2EI.s:1829   .debug_str:0000000000000189 .LASF20
     /tmp/ccvXE2EI.s:1797   .debug_str:00000000000000b8 .LASF22
     /tmp/ccvXE2EI.s:1895   .debug_str:00000000000003a2 .LASF23
     /tmp/ccvXE2EI.s:1873   .debug_str:0000000000000324 .LASF24
     /tmp/ccvXE2EI.s:1791   .debug_str:0000000000000086 .LASF61
     /tmp/ccvXE2EI.s:1831   .debug_str:0000000000000193 .LASF25
     /tmp/ccvXE2EI.s:1837   .debug_str:00000000000001b3 .LASF26
     /tmp/ccvXE2EI.s:1865   .debug_str:00000000000002fc .LASF27
     /tmp/ccvXE2EI.s:1871   .debug_str:000000000000031c .LASF28
     /tmp/ccvXE2EI.s:1881   .debug_str:0000000000000348 .LASF29
     /tmp/ccvXE2EI.s:1869   .debug_str:0000000000000315 .LASF30
GAS LISTING /tmp/ccvXE2EI.s 			page 18


     /tmp/ccvXE2EI.s:1867   .debug_str:0000000000000306 .LASF31
     /tmp/ccvXE2EI.s:1859   .debug_str:00000000000002d8 .LASF32
     /tmp/ccvXE2EI.s:1849   .debug_str:0000000000000291 .LASF33
     /tmp/ccvXE2EI.s:1879   .debug_str:0000000000000340 .LASF34
     /tmp/ccvXE2EI.s:1841   .debug_str:00000000000001ca .LASF35
     /tmp/ccvXE2EI.s:1827   .debug_str:000000000000017f .LASF36
     /tmp/ccvXE2EI.s:1889   .debug_str:0000000000000381 .LASF37
     /tmp/ccvXE2EI.s:1843   .debug_str:00000000000001d8 .LASF38
     /tmp/ccvXE2EI.s:1885   .debug_str:0000000000000364 .LASF39
     /tmp/ccvXE2EI.s:1817   .debug_str:0000000000000136 .LASF40
     /tmp/ccvXE2EI.s:1877   .debug_str:0000000000000334 .LASF41
     /tmp/ccvXE2EI.s:1771   .debug_str:0000000000000000 .LASF42
     /tmp/ccvXE2EI.s:1897   .debug_str:00000000000003aa .LASF43
     /tmp/ccvXE2EI.s:1777   .debug_str:0000000000000023 .LASF44
     /tmp/ccvXE2EI.s:1851   .debug_str:0000000000000299 .LASF45
     /tmp/ccvXE2EI.s:1781   .debug_str:000000000000003f .LASF46
     /tmp/ccvXE2EI.s:1807   .debug_str:00000000000000f7 .LASF47
     /tmp/ccvXE2EI.s:1801   .debug_str:00000000000000d0 .LASF48
     /tmp/ccvXE2EI.s:1779   .debug_str:000000000000002c .LASF62
     /tmp/ccvXE2EI.s:369    .text:0000000000000250 .LFB6
     /tmp/ccvXE2EI.s:495    .text:0000000000000324 .LFE6
     /tmp/ccvXE2EI.s:1825   .debug_str:0000000000000178 .LASF49
     /tmp/ccvXE2EI.s:1638   .debug_loc:0000000000000000 .LLST4
     /tmp/ccvXE2EI.s:1835   .debug_str:00000000000001a5 .LASF50
     /tmp/ccvXE2EI.s:1839   .debug_str:00000000000001be .LASF51
     /tmp/ccvXE2EI.s:1663   .debug_loc:0000000000000062 .LLST5
     /tmp/ccvXE2EI.s:385    .text:0000000000000260 .LBB4
     /tmp/ccvXE2EI.s:424    .text:00000000000002a8 .LBE4
     /tmp/ccvXE2EI.s:1686   .debug_loc:00000000000000d0 .LLST6
     /tmp/ccvXE2EI.s:1813   .debug_str:0000000000000110 .LASF52
     /tmp/ccvXE2EI.s:246    .text:0000000000000184 .LFB5
     /tmp/ccvXE2EI.s:291    .text:00000000000001dc .LFE5
     /tmp/ccvXE2EI.s:261    .text:00000000000001a0 .LVL12
     /tmp/ccvXE2EI.s:278    .text:00000000000001c8 .LVL14
     /tmp/ccvXE2EI.s:1785   .debug_str:000000000000005c .LASF53
     /tmp/ccvXE2EI.s:297    .text:00000000000001dc .LFB4
     /tmp/ccvXE2EI.s:363    .text:0000000000000250 .LFE4
     /tmp/ccvXE2EI.s:1706   .debug_loc:000000000000012d .LLST3
     /tmp/ccvXE2EI.s:320    .text:0000000000000208 .LVL16
     /tmp/ccvXE2EI.s:337    .text:000000000000022c .LVL17
     /tmp/ccvXE2EI.s:1861   .debug_str:00000000000002e1 .LASF63
     /tmp/ccvXE2EI.s:213    .text:0000000000000164 .LFB3
     /tmp/ccvXE2EI.s:240    .text:0000000000000184 .LFE3
     /tmp/ccvXE2EI.s:1783   .debug_str:000000000000004a .LASF54
     /tmp/ccvXE2EI.s:182    .text:0000000000000138 .LFB2
     /tmp/ccvXE2EI.s:207    .text:0000000000000164 .LFE2
     /tmp/ccvXE2EI.s:196    .text:0000000000000154 .LVL11
     /tmp/ccvXE2EI.s:1821   .debug_str:0000000000000159 .LASF64
     /tmp/ccvXE2EI.s:87     .text:0000000000000080 .LFB1
     /tmp/ccvXE2EI.s:176    .text:0000000000000138 .LFE1
     /tmp/ccvXE2EI.s:1717   .debug_loc:0000000000000163 .LLST1
     /tmp/ccvXE2EI.s:107    .text:00000000000000b0 .LBB3
     /tmp/ccvXE2EI.s:153    .text:0000000000000118 .LBE3
     /tmp/ccvXE2EI.s:1728   .debug_loc:0000000000000199 .LLST2
     /tmp/ccvXE2EI.s:1887   .debug_str:0000000000000370 .LASF55
     /tmp/ccvXE2EI.s:11     .text:0000000000000000 .LFB0
     /tmp/ccvXE2EI.s:81     .text:0000000000000080 .LFE0
GAS LISTING /tmp/ccvXE2EI.s 			page 19


     /tmp/ccvXE2EI.s:25     .text:0000000000000014 .LBB2
     /tmp/ccvXE2EI.s:51     .text:0000000000000044 .LBE2
     /tmp/ccvXE2EI.s:1744   .debug_loc:00000000000001e3 .LLST0
     /tmp/ccvXE2EI.s:1853   .debug_str:00000000000002a4 .LASF56
     /tmp/ccvXE2EI.s:1799   .debug_str:00000000000000c3 .LASF57
     /tmp/ccvXE2EI.s:372    .text:0000000000000250 .LVL20
     /tmp/ccvXE2EI.s:434    .text:00000000000002b8 .LVL27
     /tmp/ccvXE2EI.s:482    .text:0000000000000310 .LVL28
     /tmp/ccvXE2EI.s:492    .text:0000000000000320 .LVL30
     /tmp/ccvXE2EI.s:383    .text:0000000000000260 .LVL21
     /tmp/ccvXE2EI.s:421    .text:00000000000002a8 .LVL25
     /tmp/ccvXE2EI.s:488    .text:000000000000031c .LVL29
     /tmp/ccvXE2EI.s:389    .text:0000000000000264 .LVL22
     /tmp/ccvXE2EI.s:408    .text:0000000000000290 .LVL23
     /tmp/ccvXE2EI.s:410    .text:0000000000000294 .LVL24
     /tmp/ccvXE2EI.s:428    .text:00000000000002ac .LVL26
     /tmp/ccvXE2EI.s:316    .text:0000000000000200 .LVL15
     /tmp/ccvXE2EI.s:348    .text:0000000000000238 .LVL18
     /tmp/ccvXE2EI.s:354    .text:0000000000000244 .LVL19
     /tmp/ccvXE2EI.s:105    .text:00000000000000b0 .LVL4
     /tmp/ccvXE2EI.s:120    .text:00000000000000c0 .LVL6
     /tmp/ccvXE2EI.s:162    .text:0000000000000124 .LVL9
     /tmp/ccvXE2EI.s:170    .text:000000000000012c .LVL10
     /tmp/ccvXE2EI.s:111    .text:00000000000000b4 .LVL5
     /tmp/ccvXE2EI.s:141    .text:00000000000000fc .LVL7
     /tmp/ccvXE2EI.s:143    .text:0000000000000100 .LVL8
     /tmp/ccvXE2EI.s:27     .text:0000000000000014 .LVL0
     /tmp/ccvXE2EI.s:32     .text:000000000000001c .LVL1
     /tmp/ccvXE2EI.s:55     .text:000000000000004c .LVL3
     /tmp/ccvXE2EI.s:525    .debug_info:0000000000000000 .Ldebug_info0

UNDEFINED SYMBOLS
kern_syscall
contextSwitch
