GAS LISTING /tmp/ccMjnBPO.s 			page 1


   1              		.file	"kern_interrupts.c"
   2              		.option nopic
   3              		.option norelax
   4              		.text
   5              	.Ltext0:
   6              		.cfi_sections	.debug_frame
   7              		.align	2
   8              		.globl	kern_syscall
  10              	kern_syscall:
  11              	.LFB22:
  12              		.file 1 "src/kern_interrupts.c"
   1:src/kern_interrupts.c **** //
   2:src/kern_interrupts.c **** // Created by os on 5/22/23.
   3:src/kern_interrupts.c **** //
   4:src/kern_interrupts.c **** 
   5:src/kern_interrupts.c **** #include "../lib/hw.h"
   6:src/kern_interrupts.c **** #include "../lib/console.h"
   7:src/kern_interrupts.c **** #include "../h/kern_interrupts.h"
   8:src/kern_interrupts.c **** #include "../h/kern_reg_util.h"
   9:src/kern_interrupts.c **** #include "../h/kern_memory.h"
  10:src/kern_interrupts.c **** #include "../h/kern_threads.h"
  11:src/kern_interrupts.c **** #include "../h/syscall_c.h"
  12:src/kern_interrupts.c **** #include "../h/kern_semaphore.h"
  13:src/kern_interrupts.c **** 
  14:src/kern_interrupts.c **** #define INTR_ILLEGAL_INSTRUCTION 0x0000000000000002UL
  15:src/kern_interrupts.c **** #define INTR_ILLEGAL_ADDR_RD 0x0000000000000005UL
  16:src/kern_interrupts.c **** #define INTR_ILLEGAL_ADDR_WR 0x0000000000000007UL
  17:src/kern_interrupts.c **** #define INTR_USER_ECALL 0x0000000000000008UL
  18:src/kern_interrupts.c **** #define INTR_KERNEL_ECALL 0x0000000000000009UL
  19:src/kern_interrupts.c **** #define INTR_TIMER 0x8000000000000001UL
  20:src/kern_interrupts.c **** #define INTR_CONSOLE 0x8000000000000009UL
  21:src/kern_interrupts.c **** 
  22:src/kern_interrupts.c **** 
  23:src/kern_interrupts.c **** extern void supervisorTrap();
  24:src/kern_interrupts.c **** 
  25:src/kern_interrupts.c **** 
  26:src/kern_interrupts.c **** uint64 SYSTEM_TIME;
  27:src/kern_interrupts.c **** 
  28:src/kern_interrupts.c **** 
  29:src/kern_interrupts.c **** void kern_syscall(enum SyscallNumber num, ...)
  30:src/kern_interrupts.c **** {
  13              		.loc 1 30 1
  14              		.cfi_startproc
  15              	.LVL0:
  16 0000 130101FB 		addi	sp,sp,-80
  17              		.cfi_def_cfa_offset 80
  18 0004 23348100 		sd	s0,8(sp)
  19              		.cfi_offset 8, -72
  20 0008 13040101 		addi	s0,sp,16
  21              		.cfi_def_cfa 8, 64
  22 000c 2334B400 		sd	a1,8(s0)
  23 0010 2338C400 		sd	a2,16(s0)
  24 0014 233CD400 		sd	a3,24(s0)
  25 0018 2330E402 		sd	a4,32(s0)
  26 001c 2334F402 		sd	a5,40(s0)
  27 0020 23380403 		sd	a6,48(s0)
  28 0024 233C1403 		sd	a7,56(s0)
GAS LISTING /tmp/ccMjnBPO.s 			page 2


  31:src/kern_interrupts.c ****     __asm__ volatile ("ecall");
  29              		.loc 1 31 5
  30              	#APP
  31              	# 31 "src/kern_interrupts.c" 1
  32              	    return;
  32              		ecall
  33              	# 0 "" 2
  34              		.loc 1 32 5
  33:src/kern_interrupts.c **** }
  35              		.loc 1 33 1 is_stmt 0
  36              	#NO_APP
  37 002c 03348100 		ld	s0,8(sp)
  38              		.cfi_restore 8
  39              		.cfi_def_cfa 2, 80
  40 0030 13010105 		addi	sp,sp,80
  41              		.cfi_def_cfa_offset 0
  42 0034 67800000 		jr	ra
  43              		.cfi_endproc
  44              	.LFE22:
  46              		.align	2
  47              		.globl	kern_interrupt_init
  49              	kern_interrupt_init:
  50              	.LFB23:
  34:src/kern_interrupts.c **** 
  35:src/kern_interrupts.c **** void kern_interrupt_init()
  36:src/kern_interrupts.c **** {
  51              		.loc 1 36 1 is_stmt 1
  52              		.cfi_startproc
  53 0038 130101FF 		addi	sp,sp,-16
  54              		.cfi_def_cfa_offset 16
  55 003c 23348100 		sd	s0,8(sp)
  56              		.cfi_offset 8, -8
  57 0040 13040101 		addi	s0,sp,16
  58              		.cfi_def_cfa 8, 0
  37:src/kern_interrupts.c ****     SYSTEM_TIME=0;
  59              		.loc 1 37 5
  60              		.loc 1 37 16 is_stmt 0
  61 0044 97070000 		sd	zero,SYSTEM_TIME,a5
  61      23B00700 
  38:src/kern_interrupts.c ****     w_stvec((uint64) &supervisorTrap);
  62              		.loc 1 38 5 is_stmt 1
  63 004c 97070000 		lla	a5,supervisorTrap
  63      93870700 
  64              	.LVL1:
  65              	.LBB82:
  66              	.LBB83:
  67              		.file 2 "src/../h/kern_reg_util.h"
   1:src/../h/kern_reg_util.h **** //
   2:src/../h/kern_reg_util.h **** // Created by os on 5/23/23.
   3:src/../h/kern_reg_util.h **** //
   4:src/../h/kern_reg_util.h **** 
   5:src/../h/kern_reg_util.h **** #ifndef OS1_KERN_REG_UTIL_H
   6:src/../h/kern_reg_util.h **** #define OS1_KERN_REG_UTIL_H
   7:src/../h/kern_reg_util.h **** 
   8:src/../h/kern_reg_util.h **** #include "../lib/hw.h"
   9:src/../h/kern_reg_util.h **** 
  10:src/../h/kern_reg_util.h **** enum BitMaskSstatus
GAS LISTING /tmp/ccMjnBPO.s 			page 3


  11:src/../h/kern_reg_util.h **** {
  12:src/../h/kern_reg_util.h ****     SSTATUS_SIE = (1 << 1),
  13:src/../h/kern_reg_util.h ****     SSTATUS_SPIE = (1 << 5),
  14:src/../h/kern_reg_util.h ****     SSTATUS_SPP = (1 << 8),
  15:src/../h/kern_reg_util.h **** };
  16:src/../h/kern_reg_util.h **** 
  17:src/../h/kern_reg_util.h **** enum BitMaskSip
  18:src/../h/kern_reg_util.h **** {
  19:src/../h/kern_reg_util.h ****     SIP_SSIP = (1 << 1),
  20:src/../h/kern_reg_util.h ****     SIP_STIP = (1 << 5),
  21:src/../h/kern_reg_util.h ****     SIP_SEIP = (1 << 9),
  22:src/../h/kern_reg_util.h **** };
  23:src/../h/kern_reg_util.h **** 
  24:src/../h/kern_reg_util.h **** inline uint64 r_a0()
  25:src/../h/kern_reg_util.h **** {
  26:src/../h/kern_reg_util.h ****     uint64 volatile a0;
  27:src/../h/kern_reg_util.h ****     __asm__ volatile ("mv %[a0], a0" : [a0] "=r"(a0));
  28:src/../h/kern_reg_util.h ****     return a0;
  29:src/../h/kern_reg_util.h **** }
  30:src/../h/kern_reg_util.h **** inline void w_a0(uint64 value)
  31:src/../h/kern_reg_util.h **** {
  32:src/../h/kern_reg_util.h ****     __asm__ volatile ("mv a0, %[value]" :: [value] "r"(value));
  33:src/../h/kern_reg_util.h **** }
  34:src/../h/kern_reg_util.h **** 
  35:src/../h/kern_reg_util.h **** inline uint64 r_a1()
  36:src/../h/kern_reg_util.h **** {
  37:src/../h/kern_reg_util.h ****     uint64 volatile a1;
  38:src/../h/kern_reg_util.h ****     __asm__ volatile ("mv %[a1], a1" : [a1] "=r"(a1));
  39:src/../h/kern_reg_util.h ****     return a1;
  40:src/../h/kern_reg_util.h **** }
  41:src/../h/kern_reg_util.h **** 
  42:src/../h/kern_reg_util.h **** inline uint64 r_a2()
  43:src/../h/kern_reg_util.h **** {
  44:src/../h/kern_reg_util.h ****     uint64 volatile a2;
  45:src/../h/kern_reg_util.h ****     __asm__ volatile ("mv %[a2], a2" : [a2] "=r"(a2));
  46:src/../h/kern_reg_util.h ****     return a2;
  47:src/../h/kern_reg_util.h **** }
  48:src/../h/kern_reg_util.h **** 
  49:src/../h/kern_reg_util.h **** inline uint64 r_a3()
  50:src/../h/kern_reg_util.h **** {
  51:src/../h/kern_reg_util.h ****     uint64 volatile a3;
  52:src/../h/kern_reg_util.h ****     __asm__ volatile ("mv %[a3], a3" : [a3] "=r"(a3));
  53:src/../h/kern_reg_util.h ****     return a3;
  54:src/../h/kern_reg_util.h **** }
  55:src/../h/kern_reg_util.h **** 
  56:src/../h/kern_reg_util.h **** inline uint64 r_a4()
  57:src/../h/kern_reg_util.h **** {
  58:src/../h/kern_reg_util.h ****     uint64 volatile a4;
  59:src/../h/kern_reg_util.h ****     __asm__ volatile ("mv %[a4], a4" : [a4] "=r"(a4));
  60:src/../h/kern_reg_util.h ****     return a4;
  61:src/../h/kern_reg_util.h **** }
  62:src/../h/kern_reg_util.h **** 
  63:src/../h/kern_reg_util.h **** inline uint64 r_scause()
  64:src/../h/kern_reg_util.h **** {
  65:src/../h/kern_reg_util.h ****     uint64 volatile scause;
  66:src/../h/kern_reg_util.h ****     __asm__ volatile ("csrr %[scause], scause" : [scause] "=r"(scause));
  67:src/../h/kern_reg_util.h ****     return scause;
GAS LISTING /tmp/ccMjnBPO.s 			page 4


  68:src/../h/kern_reg_util.h **** }
  69:src/../h/kern_reg_util.h **** 
  70:src/../h/kern_reg_util.h **** inline void w_scause(uint64 scause)
  71:src/../h/kern_reg_util.h **** {
  72:src/../h/kern_reg_util.h ****     __asm__ volatile ("csrw scause, %[scause]" : : [scause] "r"(scause));
  73:src/../h/kern_reg_util.h **** }
  74:src/../h/kern_reg_util.h **** 
  75:src/../h/kern_reg_util.h **** inline uint64 r_sepc()
  76:src/../h/kern_reg_util.h **** {
  77:src/../h/kern_reg_util.h ****     uint64 volatile sepc;
  78:src/../h/kern_reg_util.h ****     __asm__ volatile ("csrr %[sepc], sepc" : [sepc] "=r"(sepc));
  79:src/../h/kern_reg_util.h ****     return sepc;
  80:src/../h/kern_reg_util.h **** }
  81:src/../h/kern_reg_util.h **** 
  82:src/../h/kern_reg_util.h **** inline void w_sepc(uint64 sepc)
  83:src/../h/kern_reg_util.h **** {
  84:src/../h/kern_reg_util.h ****     __asm__ volatile ("csrw sepc, %[sepc]" : : [sepc] "r"(sepc));
  85:src/../h/kern_reg_util.h **** }
  86:src/../h/kern_reg_util.h **** 
  87:src/../h/kern_reg_util.h **** inline uint64 r_stvec()
  88:src/../h/kern_reg_util.h **** {
  89:src/../h/kern_reg_util.h ****     uint64 volatile stvec;
  90:src/../h/kern_reg_util.h ****     __asm__ volatile ("csrr %[stvec], stvec" : [stvec] "=r"(stvec));
  91:src/../h/kern_reg_util.h ****     return stvec;
  92:src/../h/kern_reg_util.h **** }
  93:src/../h/kern_reg_util.h **** 
  94:src/../h/kern_reg_util.h **** inline void w_stvec(uint64 stvec)
  95:src/../h/kern_reg_util.h **** {
  96:src/../h/kern_reg_util.h ****     __asm__ volatile ("csrw stvec, %[stvec]" : : [stvec] "r"(stvec));
  68              		.loc 2 96 5
  69              	#APP
  70              	# 96 "src/../h/kern_reg_util.h" 1
  97              	}
  71              		csrw stvec, a5
  72              	# 0 "" 2
  73              	.LVL2:
  74              	#NO_APP
  75              	.LBE83:
  76              	.LBE82:
  39:src/kern_interrupts.c ****     ms_sstatus(SSTATUS_SIE);
  77              		.loc 1 39 5
  78              	.LBB84:
  79              	.LBB85:
  98:src/../h/kern_reg_util.h **** 
  99:src/../h/kern_reg_util.h **** inline uint64 r_stval()
 100:src/../h/kern_reg_util.h **** {
 101:src/../h/kern_reg_util.h ****     uint64 volatile stval;
 102:src/../h/kern_reg_util.h ****     __asm__ volatile ("csrr %[stval], stval" : [stval] "=r"(stval));
 103:src/../h/kern_reg_util.h ****     return stval;
 104:src/../h/kern_reg_util.h **** }
 105:src/../h/kern_reg_util.h **** 
 106:src/../h/kern_reg_util.h **** inline void w_stval(uint64 stval)
 107:src/../h/kern_reg_util.h **** {
 108:src/../h/kern_reg_util.h ****     __asm__ volatile ("csrw stval, %[stval]" : : [stval] "r"(stval));
 109:src/../h/kern_reg_util.h **** }
 110:src/../h/kern_reg_util.h **** 
 111:src/../h/kern_reg_util.h **** inline void ms_sip(uint64 mask)
GAS LISTING /tmp/ccMjnBPO.s 			page 5


 112:src/../h/kern_reg_util.h **** {
 113:src/../h/kern_reg_util.h ****     __asm__ volatile ("csrs sip, %[mask]" : : [mask] "r"(mask));
 114:src/../h/kern_reg_util.h **** }
 115:src/../h/kern_reg_util.h **** 
 116:src/../h/kern_reg_util.h **** inline void mc_sip(uint64 mask)
 117:src/../h/kern_reg_util.h **** {
 118:src/../h/kern_reg_util.h ****     __asm__ volatile ("csrc sip, %[mask]" : : [mask] "r"(mask));
 119:src/../h/kern_reg_util.h **** }
 120:src/../h/kern_reg_util.h **** 
 121:src/../h/kern_reg_util.h **** inline uint64 r_sip()
 122:src/../h/kern_reg_util.h **** {
 123:src/../h/kern_reg_util.h ****     uint64 volatile sip;
 124:src/../h/kern_reg_util.h ****     __asm__ volatile ("csrr %[sip], sip" : [sip] "=r"(sip));
 125:src/../h/kern_reg_util.h ****     return sip;
 126:src/../h/kern_reg_util.h **** }
 127:src/../h/kern_reg_util.h **** 
 128:src/../h/kern_reg_util.h **** inline void w_sip(uint64 sip)
 129:src/../h/kern_reg_util.h **** {
 130:src/../h/kern_reg_util.h ****     __asm__ volatile ("csrw sip, %[sip]" : : [sip] "r"(sip));
 131:src/../h/kern_reg_util.h **** }
 132:src/../h/kern_reg_util.h **** 
 133:src/../h/kern_reg_util.h **** inline void ms_sstatus(uint64 mask)
 134:src/../h/kern_reg_util.h **** {
 135:src/../h/kern_reg_util.h ****     __asm__ volatile ("csrs sstatus, %[mask]" : : [mask] "r"(mask));
  80              		.loc 2 135 5
  81 0058 93072000 		li	a5,2
  82              	#APP
  83              	# 135 "src/../h/kern_reg_util.h" 1
 136              	}
  84              		csrs sstatus, a5
  85              	# 0 "" 2
  86              	.LVL3:
  87              	#NO_APP
  88              	.LBE85:
  89              	.LBE84:
  40:src/kern_interrupts.c **** }
  90              		.loc 1 40 1 is_stmt 0
  91 0060 03348100 		ld	s0,8(sp)
  92              		.cfi_restore 8
  93              		.cfi_def_cfa 2, 16
  94 0064 13010101 		addi	sp,sp,16
  95              		.cfi_def_cfa_offset 0
  96 0068 67800000 		jr	ra
  97              		.cfi_endproc
  98              	.LFE23:
 100              		.align	2
 101              		.globl	handleSupervisorTrap
 103              	handleSupervisorTrap:
 104              	.LFB24:
  41:src/kern_interrupts.c **** 
  42:src/kern_interrupts.c **** 
  43:src/kern_interrupts.c **** int time=0;
  44:src/kern_interrupts.c **** 
  45:src/kern_interrupts.c **** void handleSupervisorTrap()
  46:src/kern_interrupts.c **** {
 105              		.loc 1 46 1 is_stmt 1
 106              		.cfi_startproc
GAS LISTING /tmp/ccMjnBPO.s 			page 6


 107 006c 130101F3 		addi	sp,sp,-208
 108              		.cfi_def_cfa_offset 208
 109 0070 2334110C 		sd	ra,200(sp)
 110 0074 2330810C 		sd	s0,192(sp)
 111 0078 233C910A 		sd	s1,184(sp)
 112 007c 2338210B 		sd	s2,176(sp)
 113              		.cfi_offset 1, -8
 114              		.cfi_offset 8, -16
 115              		.cfi_offset 9, -24
 116              		.cfi_offset 18, -32
 117 0080 1304010D 		addi	s0,sp,208
 118              		.cfi_def_cfa 8, 0
  47:src/kern_interrupts.c ****     uint64  a0,a1,a2,a3,a4;
 119              		.loc 1 47 5
  48:src/kern_interrupts.c ****     __asm__ volatile ("mv %[a0], a0" : [a0] "=r"(a0));
 120              		.loc 1 48 5
 121              	#APP
 122              	# 48 "src/kern_interrupts.c" 1
  49              	    __asm__ volatile ("mv %[a1], a1" : [a1] "=r"(a1));
 123              		mv a5, a0
 124              	# 0 "" 2
 125              	.LVL4:
 126              		.loc 1 49 5
 127              	# 49 "src/kern_interrupts.c" 1
  50              	    __asm__ volatile ("mv %[a2], a2" : [a2] "=r"(a2));
 128              		mv s1, a1
 129              	# 0 "" 2
 130              	.LVL5:
 131              		.loc 1 50 5
 132              	# 50 "src/kern_interrupts.c" 1
  51              	    __asm__ volatile ("mv %[a3], a3" : [a3] "=r"(a3));
 133              		mv s2, a2
 134              	# 0 "" 2
 135              	.LVL6:
 136              		.loc 1 51 5
 137              	# 51 "src/kern_interrupts.c" 1
  52              	    __asm__ volatile ("mv %[a4], a4" : [a4] "=r"(a4));
 138              		mv a2, a3
 139              	# 0 "" 2
 140              	.LVL7:
 141              		.loc 1 52 5
 142              	# 52 "src/kern_interrupts.c" 1
  53              	    uint64  scause = r_scause();
 143              		mv a3, a4
 144              	# 0 "" 2
 145              	.LVL8:
 146              		.loc 1 53 5
 147              	#NO_APP
 148              	.LBB86:
 149              	.LBB87:
  65:src/../h/kern_reg_util.h ****     __asm__ volatile ("csrr %[scause], scause" : [scause] "=r"(scause));
 150              		.loc 2 65 5
  66:src/../h/kern_reg_util.h ****     return scause;
 151              		.loc 2 66 5
 152              	#APP
 153              	# 66 "src/../h/kern_reg_util.h" 1
 154              		csrr a4, scause
GAS LISTING /tmp/ccMjnBPO.s 			page 7


 155              	# 0 "" 2
 156              	#NO_APP
 157 009c 2330E4F8 		sd	a4,-128(s0)
  67:src/../h/kern_reg_util.h **** }
 158              		.loc 2 67 5
  67:src/../h/kern_reg_util.h **** }
 159              		.loc 2 67 12 is_stmt 0
 160 00a0 033704F8 		ld	a4,-128(s0)
 161              	.LVL9:
 162              	.LBE87:
 163              	.LBE86:
  54:src/kern_interrupts.c ****     if (scause == INTR_USER_ECALL || scause == INTR_KERNEL_ECALL)
 164              		.loc 1 54 5 is_stmt 1
 165              		.loc 1 54 35 is_stmt 0
 166 00a4 130587FF 		addi	a0,a4,-8
 167              		.loc 1 54 8
 168 00a8 93051000 		li	a1,1
 169 00ac 63FEA502 		bleu	a0,a1,.L26
  55:src/kern_interrupts.c ****     {
  56:src/kern_interrupts.c ****         uint64   retval;
  57:src/kern_interrupts.c ****         uint64   syscall_num = a0;
  58:src/kern_interrupts.c ****         uint64   sepc = r_sepc() + 4;
  59:src/kern_interrupts.c ****         w_sepc(sepc);
  60:src/kern_interrupts.c ****         switch (syscall_num) {
  61:src/kern_interrupts.c ****             case MEM_ALLOC:{
  62:src/kern_interrupts.c ****                 uint64 size = a1;
  63:src/kern_interrupts.c ****                 retval=(uint64)kern_mem_alloc(size);
  64:src/kern_interrupts.c ****                 w_a0(retval);
  65:src/kern_interrupts.c ****                 break;
  66:src/kern_interrupts.c ****             }
  67:src/kern_interrupts.c **** 
  68:src/kern_interrupts.c ****             case MEM_FREE:{
  69:src/kern_interrupts.c ****                 uint64 addr = a1;
  70:src/kern_interrupts.c ****                 retval=(uint64) kern_mem_free((void*)addr);
  71:src/kern_interrupts.c ****                 w_a0(retval);
  72:src/kern_interrupts.c ****                 break;
  73:src/kern_interrupts.c ****             }
  74:src/kern_interrupts.c **** 
  75:src/kern_interrupts.c ****             case THREAD_CREATE:{
  76:src/kern_interrupts.c ****                 uint64 handle = a1;
  77:src/kern_interrupts.c ****                 uint64 start_routine = a2;
  78:src/kern_interrupts.c ****                 uint64 arg = a3;
  79:src/kern_interrupts.c ****                 uint64 stack = a4;
  80:src/kern_interrupts.c ****                 retval=(uint64) kern_thread_create((thread_t*)handle,
  81:src/kern_interrupts.c ****                                                           (void(*)(void*))start_routine,
  82:src/kern_interrupts.c ****                                                           (void*)arg,
  83:src/kern_interrupts.c ****                                                           (void*)stack);
  84:src/kern_interrupts.c ****                 (*(thread_t*)handle)->endTime=SYSTEM_TIME+DEFAULT_TIME_SLICE;
  85:src/kern_interrupts.c ****                 w_a0(retval);
  86:src/kern_interrupts.c ****                 break;
  87:src/kern_interrupts.c ****             }
  88:src/kern_interrupts.c **** 
  89:src/kern_interrupts.c ****             case THREAD_DISPATCH:{
  90:src/kern_interrupts.c ****                 uint64 volatile sstatus = r_sstatus();
  91:src/kern_interrupts.c ****                 uint64 volatile v_sepc = r_sepc();
  92:src/kern_interrupts.c ****                 kern_thread_dispatch();
  93:src/kern_interrupts.c ****                 w_sstatus(sstatus);
GAS LISTING /tmp/ccMjnBPO.s 			page 8


  94:src/kern_interrupts.c ****                 w_sepc(v_sepc);
  95:src/kern_interrupts.c ****                 running->endTime=time+running->timeslice;
  96:src/kern_interrupts.c ****                 break;
  97:src/kern_interrupts.c ****             }
  98:src/kern_interrupts.c **** 
  99:src/kern_interrupts.c ****             case THREAD_JOIN:{
 100:src/kern_interrupts.c ****                 thread_t handle = (thread_t) a1;
 101:src/kern_interrupts.c ****                 uint64 volatile sstatus = r_sstatus();
 102:src/kern_interrupts.c ****                 uint64 volatile v_sepc = r_sepc();
 103:src/kern_interrupts.c ****                 kern_thread_join(handle);
 104:src/kern_interrupts.c ****                 w_sstatus(sstatus);
 105:src/kern_interrupts.c ****                 w_sepc(v_sepc);
 106:src/kern_interrupts.c ****                 running->endTime=time+running->timeslice;
 107:src/kern_interrupts.c ****                 break;
 108:src/kern_interrupts.c ****             }
 109:src/kern_interrupts.c **** 
 110:src/kern_interrupts.c ****             case THREAD_EXIT:{
 111:src/kern_interrupts.c ****                 kern_thread_end_running();
 112:src/kern_interrupts.c ****             }
 113:src/kern_interrupts.c **** 
 114:src/kern_interrupts.c ****             case SEM_OPEN: {
 115:src/kern_interrupts.c ****                 sem_t* handle =(sem_t*) a1;
 116:src/kern_interrupts.c ****                 uint64 init = a2;
 117:src/kern_interrupts.c ****                 retval = kern_sem_open(handle,init);
 118:src/kern_interrupts.c ****                 w_a0(retval);
 119:src/kern_interrupts.c ****                 break;
 120:src/kern_interrupts.c ****             }
 121:src/kern_interrupts.c **** 
 122:src/kern_interrupts.c ****             case SEM_CLOSE: {
 123:src/kern_interrupts.c ****                 sem_t handle =(sem_t) a1;
 124:src/kern_interrupts.c ****                 retval = kern_sem_close(handle);
 125:src/kern_interrupts.c ****                 w_a0(retval);
 126:src/kern_interrupts.c ****                 break;
 127:src/kern_interrupts.c ****             }
 128:src/kern_interrupts.c **** 
 129:src/kern_interrupts.c ****             case SEM_SIGNAL: {
 130:src/kern_interrupts.c ****                 sem_t handle =(sem_t) a1;
 131:src/kern_interrupts.c ****                 kern_sem_signal(handle);
 132:src/kern_interrupts.c ****                 retval=0;
 133:src/kern_interrupts.c ****                 w_a0(retval);
 134:src/kern_interrupts.c ****                 break;
 135:src/kern_interrupts.c ****             }
 136:src/kern_interrupts.c **** 
 137:src/kern_interrupts.c ****             case SEM_WAIT: {
 138:src/kern_interrupts.c ****                 sem_t handle =(sem_t) a1;
 139:src/kern_interrupts.c ****                 int res = kern_sem_wait(handle);
 140:src/kern_interrupts.c ****                 if(res==1) retval=0;
 141:src/kern_interrupts.c ****                 else {
 142:src/kern_interrupts.c ****                     uint64 volatile sstatus = r_sstatus();
 143:src/kern_interrupts.c ****                     uint64 volatile v_sepc = r_sepc();
 144:src/kern_interrupts.c ****                     kern_thread_dispatch();
 145:src/kern_interrupts.c ****                     w_sstatus(sstatus);
 146:src/kern_interrupts.c ****                     w_sepc(v_sepc);
 147:src/kern_interrupts.c ****                     running->endTime=time+running->timeslice;
 148:src/kern_interrupts.c ****                     if(running->mailbox==0) retval = 0;
 149:src/kern_interrupts.c ****                     else retval=-1;
 150:src/kern_interrupts.c ****                 }
GAS LISTING /tmp/ccMjnBPO.s 			page 9


 151:src/kern_interrupts.c ****                 w_a0(retval);
 152:src/kern_interrupts.c ****                 break;
 153:src/kern_interrupts.c ****             }
 154:src/kern_interrupts.c **** 
 155:src/kern_interrupts.c ****             case TIME_SLEEP : {
 156:src/kern_interrupts.c ****                 uint64 period = a1;
 157:src/kern_interrupts.c ****                 running->status=SLEEPING;
 158:src/kern_interrupts.c ****                 running->endTime=SYSTEM_TIME+period;
 159:src/kern_interrupts.c ****                 uint64 volatile sstatus = r_sstatus();
 160:src/kern_interrupts.c ****                 uint64 volatile v_sepc = r_sepc();
 161:src/kern_interrupts.c ****                 kern_thread_dispatch();
 162:src/kern_interrupts.c ****                 w_sstatus(sstatus);
 163:src/kern_interrupts.c ****                 w_sepc(v_sepc);
 164:src/kern_interrupts.c ****                 running->endTime=time+running->timeslice;
 165:src/kern_interrupts.c ****             }
 166:src/kern_interrupts.c **** 
 167:src/kern_interrupts.c **** 
 168:src/kern_interrupts.c ****         }
 169:src/kern_interrupts.c ****     }
 170:src/kern_interrupts.c ****     else if (scause == INTR_TIMER)
 170              		.loc 1 170 10 is_stmt 1
 171              		.loc 1 170 13 is_stmt 0
 172 00b0 9307F0FF 		li	a5,-1
 173              	.LVL10:
 174 00b4 9397F703 		slli	a5,a5,63
 175 00b8 93871700 		addi	a5,a5,1
 176 00bc 630AF72A 		beq	a4,a5,.L27
 171:src/kern_interrupts.c ****     {
 172:src/kern_interrupts.c ****         SYSTEM_TIME++;
 173:src/kern_interrupts.c ****         mc_sip(SIP_SSIP);
 174:src/kern_interrupts.c **** 
 175:src/kern_interrupts.c **** 
 176:src/kern_interrupts.c ****         kern_thread_wakeup(SYSTEM_TIME);
 177:src/kern_interrupts.c **** 
 178:src/kern_interrupts.c ****         if(SYSTEM_TIME>=running->endTime){
 179:src/kern_interrupts.c ****             //__putc('(');
 180:src/kern_interrupts.c ****             //__putc('0'+running->id);
 181:src/kern_interrupts.c ****             //__putc('-');
 182:src/kern_interrupts.c ****             //__putc('>');
 183:src/kern_interrupts.c ****             uint64 volatile sstatus = r_sstatus();
 184:src/kern_interrupts.c ****             uint64 volatile v_sepc = r_sepc();
 185:src/kern_interrupts.c ****             kern_thread_dispatch();
 186:src/kern_interrupts.c ****             w_sstatus(sstatus);
 187:src/kern_interrupts.c ****             w_sepc(v_sepc);
 188:src/kern_interrupts.c ****             running->endTime=SYSTEM_TIME+running->timeslice;
 189:src/kern_interrupts.c ****             //__putc('0'+running->id);
 190:src/kern_interrupts.c ****             //__putc(')');
 191:src/kern_interrupts.c ****         }
 192:src/kern_interrupts.c **** 
 193:src/kern_interrupts.c ****     }
 194:src/kern_interrupts.c ****     else if (scause == INTR_CONSOLE)
 177              		.loc 1 194 10 is_stmt 1
 178              		.loc 1 194 13 is_stmt 0
 179 00c0 9307F0FF 		li	a5,-1
 180 00c4 9397F703 		slli	a5,a5,63
 181 00c8 93879700 		addi	a5,a5,9
 182 00cc 630AF732 		beq	a4,a5,.L28
GAS LISTING /tmp/ccMjnBPO.s 			page 10


 183              	.LVL11:
 184              	.L5:
 195:src/kern_interrupts.c ****     {
 196:src/kern_interrupts.c ****         // interrupt: yes; cause code: supervisor external interrupt (PLIC; could be keyboard)
 197:src/kern_interrupts.c ****         int i = plic_claim();
 198:src/kern_interrupts.c ****         if(i==10){
 199:src/kern_interrupts.c ****             plic_complete(i);
 200:src/kern_interrupts.c ****             i--;
 201:src/kern_interrupts.c ****         }
 202:src/kern_interrupts.c ****         else {
 203:src/kern_interrupts.c ****             i++;
 204:src/kern_interrupts.c ****         }
 205:src/kern_interrupts.c ****         console_handler();
 206:src/kern_interrupts.c ****     }
 207:src/kern_interrupts.c ****     else if(scause == INTR_ILLEGAL_INSTRUCTION)
 208:src/kern_interrupts.c ****     {
 209:src/kern_interrupts.c ****         // unexpected trap cause
 210:src/kern_interrupts.c ****     }
 211:src/kern_interrupts.c ****     else if(scause == INTR_ILLEGAL_ADDR_RD)
 212:src/kern_interrupts.c ****     {
 213:src/kern_interrupts.c **** 
 214:src/kern_interrupts.c ****     }
 215:src/kern_interrupts.c ****     else if(scause==INTR_ILLEGAL_ADDR_WR){
 216:src/kern_interrupts.c **** 
 217:src/kern_interrupts.c ****     }
 218:src/kern_interrupts.c **** 
 219:src/kern_interrupts.c **** }
 185              		.loc 1 219 1
 186 00d0 8330810C 		ld	ra,200(sp)
 187              		.cfi_remember_state
 188              		.cfi_restore 1
 189 00d4 0334010C 		ld	s0,192(sp)
 190              		.cfi_restore 8
 191              		.cfi_def_cfa 2, 208
 192 00d8 8334810B 		ld	s1,184(sp)
 193              		.cfi_restore 9
 194 00dc 0339010B 		ld	s2,176(sp)
 195              		.cfi_restore 18
 196 00e0 1301010D 		addi	sp,sp,208
 197              		.cfi_def_cfa_offset 0
 198 00e4 67800000 		jr	ra
 199              	.LVL12:
 200              	.L26:
 201              		.cfi_restore_state
 202              	.LBB88:
  56:src/kern_interrupts.c ****         uint64   syscall_num = a0;
 203              		.loc 1 56 9 is_stmt 1
  57:src/kern_interrupts.c ****         uint64   sepc = r_sepc() + 4;
 204              		.loc 1 57 9
  58:src/kern_interrupts.c ****         w_sepc(sepc);
 205              		.loc 1 58 9
 206              	.LBB89:
 207              	.LBB90:
  77:src/../h/kern_reg_util.h ****     __asm__ volatile ("csrr %[sepc], sepc" : [sepc] "=r"(sepc));
 208              		.loc 2 77 5
  78:src/../h/kern_reg_util.h ****     return sepc;
 209              		.loc 2 78 5
GAS LISTING /tmp/ccMjnBPO.s 			page 11


 210              	#APP
 211              	# 78 "src/../h/kern_reg_util.h" 1
 212              		csrr a4, sepc
 213              	# 0 "" 2
 214              	.LVL13:
 215              	#NO_APP
 216 00ec 2334E4F8 		sd	a4,-120(s0)
  79:src/../h/kern_reg_util.h **** }
 217              		.loc 2 79 5
  79:src/../h/kern_reg_util.h **** }
 218              		.loc 2 79 12 is_stmt 0
 219 00f0 033784F8 		ld	a4,-120(s0)
 220              	.LBE90:
 221              	.LBE89:
  58:src/kern_interrupts.c ****         w_sepc(sepc);
 222              		.loc 1 58 18
 223 00f4 13074700 		addi	a4,a4,4
 224              	.LVL14:
  59:src/kern_interrupts.c ****         switch (syscall_num) {
 225              		.loc 1 59 9 is_stmt 1
 226              	.LBB91:
 227              	.LBB92:
  84:src/../h/kern_reg_util.h **** }
 228              		.loc 2 84 5
 229              	#APP
 230              	# 84 "src/../h/kern_reg_util.h" 1
 231              		csrw sepc, a4
 232              	# 0 "" 2
 233              	.LVL15:
 234              	#NO_APP
 235              	.LBE92:
 236              	.LBE91:
  60:src/kern_interrupts.c ****             case MEM_ALLOC:{
 237              		.loc 1 60 9
 238 00fc 13071003 		li	a4,49
 239              	.LVL16:
 240 0100 E368F7FC 		bgtu	a5,a4,.L5
 241 0104 93972700 		slli	a5,a5,2
 242              	.LVL17:
 243 0108 17070000 		lla	a4,.L9
 243      13070700 
 244 0110 B387E700 		add	a5,a5,a4
 245 0114 83A70700 		lw	a5,0(a5)
 246 0118 B387E700 		add	a5,a5,a4
 247 011c 67800700 		jr	a5
 248              		.section	.rodata
 249              		.align	2
 250              		.align	2
 251              	.L9:
 252 0000 00000000 		.word	.L5-.L9
 253 0004 00000000 		.word	.L19-.L9
 254 0008 00000000 		.word	.L18-.L9
 255 000c 00000000 		.word	.L5-.L9
 256 0010 00000000 		.word	.L5-.L9
 257 0014 00000000 		.word	.L5-.L9
 258 0018 00000000 		.word	.L5-.L9
 259 001c 00000000 		.word	.L5-.L9
GAS LISTING /tmp/ccMjnBPO.s 			page 12


 260 0020 00000000 		.word	.L5-.L9
 261 0024 00000000 		.word	.L5-.L9
 262 0028 00000000 		.word	.L5-.L9
 263 002c 00000000 		.word	.L5-.L9
 264 0030 00000000 		.word	.L5-.L9
 265 0034 00000000 		.word	.L5-.L9
 266 0038 00000000 		.word	.L5-.L9
 267 003c 00000000 		.word	.L5-.L9
 268 0040 00000000 		.word	.L5-.L9
 269 0044 00000000 		.word	.L17-.L9
 270 0048 00000000 		.word	.L16-.L9
 271 004c 00000000 		.word	.L15-.L9
 272 0050 00000000 		.word	.L14-.L9
 273 0054 00000000 		.word	.L5-.L9
 274 0058 00000000 		.word	.L5-.L9
 275 005c 00000000 		.word	.L5-.L9
 276 0060 00000000 		.word	.L5-.L9
 277 0064 00000000 		.word	.L5-.L9
 278 0068 00000000 		.word	.L5-.L9
 279 006c 00000000 		.word	.L5-.L9
 280 0070 00000000 		.word	.L5-.L9
 281 0074 00000000 		.word	.L5-.L9
 282 0078 00000000 		.word	.L5-.L9
 283 007c 00000000 		.word	.L5-.L9
 284 0080 00000000 		.word	.L5-.L9
 285 0084 00000000 		.word	.L13-.L9
 286 0088 00000000 		.word	.L12-.L9
 287 008c 00000000 		.word	.L11-.L9
 288 0090 00000000 		.word	.L10-.L9
 289 0094 00000000 		.word	.L5-.L9
 290 0098 00000000 		.word	.L5-.L9
 291 009c 00000000 		.word	.L5-.L9
 292 00a0 00000000 		.word	.L5-.L9
 293 00a4 00000000 		.word	.L5-.L9
 294 00a8 00000000 		.word	.L5-.L9
 295 00ac 00000000 		.word	.L5-.L9
 296 00b0 00000000 		.word	.L5-.L9
 297 00b4 00000000 		.word	.L5-.L9
 298 00b8 00000000 		.word	.L5-.L9
 299 00bc 00000000 		.word	.L5-.L9
 300 00c0 00000000 		.word	.L5-.L9
 301 00c4 00000000 		.word	.L8-.L9
 302              		.text
 303              	.L19:
 304              	.LBB93:
  62:src/kern_interrupts.c ****                 retval=(uint64)kern_mem_alloc(size);
 305              		.loc 1 62 17
 306              	.LVL18:
  63:src/kern_interrupts.c ****                 w_a0(retval);
 307              		.loc 1 63 17
  63:src/kern_interrupts.c ****                 w_a0(retval);
 308              		.loc 1 63 32 is_stmt 0
 309 0120 1B850400 		sext.w	a0,s1
 310              	.LVL19:
 311 0124 97000000 		call	kern_mem_alloc
 311      E7800000 
 312              	.LVL20:
GAS LISTING /tmp/ccMjnBPO.s 			page 13


  64:src/kern_interrupts.c ****                 break;
 313              		.loc 1 64 17 is_stmt 1
 314              	.LBB94:
 315              	.LBB95:
  32:src/../h/kern_reg_util.h **** }
 316              		.loc 2 32 5
 317              	#APP
 318              	# 32 "src/../h/kern_reg_util.h" 1
  33:src/../h/kern_reg_util.h **** 
 319              		mv a0, a0
 320              	# 0 "" 2
 321              		.loc 2 33 1 is_stmt 0
 322              	#NO_APP
 323 0130 6FF01FFA 		j	.L5
 324              	.LVL21:
 325              	.L18:
 326              	.LBE95:
 327              	.LBE94:
 328              	.LBE93:
 329              	.LBB96:
  69:src/kern_interrupts.c ****                 retval=(uint64) kern_mem_free((void*)addr);
 330              		.loc 1 69 17 is_stmt 1
  70:src/kern_interrupts.c ****                 w_a0(retval);
 331              		.loc 1 70 17
  70:src/kern_interrupts.c ****                 w_a0(retval);
 332              		.loc 1 70 33 is_stmt 0
 333 0134 13850400 		mv	a0,s1
 334              	.LVL22:
 335 0138 97000000 		call	kern_mem_free
 335      E7800000 
 336              	.LVL23:
  71:src/kern_interrupts.c ****                 break;
 337              		.loc 1 71 17 is_stmt 1
 338              	.LBB97:
 339              	.LBB98:
  32:src/../h/kern_reg_util.h **** }
 340              		.loc 2 32 5
 341              	#APP
 342              	# 32 "src/../h/kern_reg_util.h" 1
  33:src/../h/kern_reg_util.h **** 
 343              		mv a0, a0
 344              	# 0 "" 2
 345              		.loc 2 33 1 is_stmt 0
 346              	#NO_APP
 347 0144 6FF0DFF8 		j	.L5
 348              	.LVL24:
 349              	.L17:
 350              	.LBE98:
 351              	.LBE97:
 352              	.LBE96:
 353              	.LBB99:
  76:src/kern_interrupts.c ****                 uint64 start_routine = a2;
 354              		.loc 1 76 17 is_stmt 1
  77:src/kern_interrupts.c ****                 uint64 arg = a3;
 355              		.loc 1 77 17
  78:src/kern_interrupts.c ****                 uint64 stack = a4;
 356              		.loc 1 78 17
GAS LISTING /tmp/ccMjnBPO.s 			page 14


  79:src/kern_interrupts.c ****                 retval=(uint64) kern_thread_create((thread_t*)handle,
 357              		.loc 1 79 17
  80:src/kern_interrupts.c ****                                                           (void(*)(void*))start_routine,
 358              		.loc 1 80 17
  80:src/kern_interrupts.c ****                                                           (void(*)(void*))start_routine,
 359              		.loc 1 80 33 is_stmt 0
 360 0148 93050900 		mv	a1,s2
 361 014c 13850400 		mv	a0,s1
 362              	.LVL25:
 363 0150 97000000 		call	kern_thread_create
 363      E7800000 
 364              	.LVL26:
  84:src/kern_interrupts.c ****                 w_a0(retval);
 365              		.loc 1 84 17 is_stmt 1
  84:src/kern_interrupts.c ****                 w_a0(retval);
 366              		.loc 1 84 18 is_stmt 0
 367 0158 03B70400 		ld	a4,0(s1)
  84:src/kern_interrupts.c ****                 w_a0(retval);
 368              		.loc 1 84 58
 369 015c 97070000 		ld	a5,SYSTEM_TIME
 369      83B70700 
 370 0164 93872700 		addi	a5,a5,2
  84:src/kern_interrupts.c ****                 w_a0(retval);
 371              		.loc 1 84 46
 372 0168 233CF702 		sd	a5,56(a4)
  85:src/kern_interrupts.c ****                 break;
 373              		.loc 1 85 17 is_stmt 1
 374              	.LVL27:
 375              	.LBB100:
 376              	.LBB101:
  32:src/../h/kern_reg_util.h **** }
 377              		.loc 2 32 5
 378              	#APP
 379              	# 32 "src/../h/kern_reg_util.h" 1
  33:src/../h/kern_reg_util.h **** 
 380              		mv a0, a0
 381              	# 0 "" 2
 382              		.loc 2 33 1 is_stmt 0
 383              	#NO_APP
 384 0170 6FF01FF6 		j	.L5
 385              	.LVL28:
 386              	.L15:
 387              	.LBE101:
 388              	.LBE100:
 389              	.LBE99:
 390              	.LBB102:
  90:src/kern_interrupts.c ****                 uint64 volatile v_sepc = r_sepc();
 391              		.loc 1 90 17 is_stmt 1
 392              	.LBB103:
 393              	.LBB104:
 137:src/../h/kern_reg_util.h **** 
 138:src/../h/kern_reg_util.h **** inline void mc_sstatus(uint64 mask)
 139:src/../h/kern_reg_util.h **** {
 140:src/../h/kern_reg_util.h ****     __asm__ volatile ("csrc sstatus, %[mask]" : : [mask] "r"(mask));
 141:src/../h/kern_reg_util.h **** }
 142:src/../h/kern_reg_util.h **** 
 143:src/../h/kern_reg_util.h **** inline uint64 r_sstatus()
GAS LISTING /tmp/ccMjnBPO.s 			page 15


 144:src/../h/kern_reg_util.h **** {
 145:src/../h/kern_reg_util.h ****     uint64 volatile sstatus;
 394              		.loc 2 145 5
 146:src/../h/kern_reg_util.h ****     __asm__ volatile ("csrr %[sstatus], sstatus" : [sstatus] "=r"(sstatus));
 395              		.loc 2 146 5
 396              	#APP
 397              	# 146 "src/../h/kern_reg_util.h" 1
 147              	    return sstatus;
 398              		csrr a5, sstatus
 399              	# 0 "" 2
 400              	#NO_APP
 401 0178 233CF4F8 		sd	a5,-104(s0)
 402              		.loc 2 147 5
 403              		.loc 2 147 12 is_stmt 0
 404 017c 833784F9 		ld	a5,-104(s0)
 405              	.LBE104:
 406              	.LBE103:
  90:src/kern_interrupts.c ****                 uint64 volatile v_sepc = r_sepc();
 407              		.loc 1 90 33
 408 0180 2338F4F2 		sd	a5,-208(s0)
  91:src/kern_interrupts.c ****                 kern_thread_dispatch();
 409              		.loc 1 91 17 is_stmt 1
 410              	.LBB105:
 411              	.LBB106:
  77:src/../h/kern_reg_util.h ****     __asm__ volatile ("csrr %[sepc], sepc" : [sepc] "=r"(sepc));
 412              		.loc 2 77 5
  78:src/../h/kern_reg_util.h ****     return sepc;
 413              		.loc 2 78 5
 414              	#APP
 415              	# 78 "src/../h/kern_reg_util.h" 1
 416              		csrr a5, sepc
 417              	# 0 "" 2
 418              	#NO_APP
 419 0188 2338F4F8 		sd	a5,-112(s0)
  79:src/../h/kern_reg_util.h **** }
 420              		.loc 2 79 5
  79:src/../h/kern_reg_util.h **** }
 421              		.loc 2 79 12 is_stmt 0
 422 018c 833704F9 		ld	a5,-112(s0)
 423              	.LBE106:
 424              	.LBE105:
  91:src/kern_interrupts.c ****                 kern_thread_dispatch();
 425              		.loc 1 91 33
 426 0190 233CF4F2 		sd	a5,-200(s0)
  92:src/kern_interrupts.c ****                 w_sstatus(sstatus);
 427              		.loc 1 92 17 is_stmt 1
 428 0194 97000000 		call	kern_thread_dispatch
 428      E7800000 
 429              	.LVL29:
  93:src/kern_interrupts.c ****                 w_sepc(v_sepc);
 430              		.loc 1 93 17
 431 019c 833704F3 		ld	a5,-208(s0)
 432              	.LVL30:
 433              	.LBB107:
 434              	.LBB108:
 148:src/../h/kern_reg_util.h **** }
 149:src/../h/kern_reg_util.h **** 
GAS LISTING /tmp/ccMjnBPO.s 			page 16


 150:src/../h/kern_reg_util.h **** inline void w_sstatus(uint64 sstatus)
 151:src/../h/kern_reg_util.h **** {
 152:src/../h/kern_reg_util.h ****     __asm__ volatile ("csrw sstatus, %[sstatus]" : : [sstatus] "r"(sstatus));
 435              		.loc 2 152 5
 436              	#APP
 437              	# 152 "src/../h/kern_reg_util.h" 1
 153              	}
 438              		csrw sstatus, a5
 439              	# 0 "" 2
 440              	.LVL31:
 441              	#NO_APP
 442              	.LBE108:
 443              	.LBE107:
  94:src/kern_interrupts.c ****                 running->endTime=time+running->timeslice;
 444              		.loc 1 94 17
 445 01a4 833784F3 		ld	a5,-200(s0)
 446              	.LVL32:
 447              	.LBB109:
 448              	.LBB110:
  84:src/../h/kern_reg_util.h **** }
 449              		.loc 2 84 5
 450              	#APP
 451              	# 84 "src/../h/kern_reg_util.h" 1
 452              		csrw sepc, a5
 453              	# 0 "" 2
 454              	.LVL33:
 455              	#NO_APP
 456              	.LBE110:
 457              	.LBE109:
  95:src/kern_interrupts.c ****                 break;
 458              		.loc 1 95 17
  95:src/kern_interrupts.c ****                 break;
 459              		.loc 1 95 46 is_stmt 0
 460 01ac 17070000 		ld	a4,running
 460      03370700 
 461 01b4 83360703 		ld	a3,48(a4)
  95:src/kern_interrupts.c ****                 break;
 462              		.loc 1 95 38
 463 01b8 97070000 		lw	a5,time
 463      83A70700 
 464 01c0 B387D700 		add	a5,a5,a3
  95:src/kern_interrupts.c ****                 break;
 465              		.loc 1 95 33
 466 01c4 233CF702 		sd	a5,56(a4)
  96:src/kern_interrupts.c ****             }
 467              		.loc 1 96 17 is_stmt 1
 468 01c8 6FF09FF0 		j	.L5
 469              	.LVL34:
 470              	.L14:
 471              	.LBE102:
 472              	.LBB111:
 100:src/kern_interrupts.c ****                 uint64 volatile sstatus = r_sstatus();
 473              		.loc 1 100 17
 101:src/kern_interrupts.c ****                 uint64 volatile v_sepc = r_sepc();
 474              		.loc 1 101 17
 475              	.LBB112:
 476              	.LBB113:
GAS LISTING /tmp/ccMjnBPO.s 			page 17


 145:src/../h/kern_reg_util.h ****     __asm__ volatile ("csrr %[sstatus], sstatus" : [sstatus] "=r"(sstatus));
 477              		.loc 2 145 5
 146:src/../h/kern_reg_util.h ****     return sstatus;
 478              		.loc 2 146 5
 479              	#APP
 480              	# 146 "src/../h/kern_reg_util.h" 1
 481              		csrr a5, sstatus
 482              	# 0 "" 2
 483              	#NO_APP
 484 01d0 2334F4FA 		sd	a5,-88(s0)
 147:src/../h/kern_reg_util.h **** }
 485              		.loc 2 147 5
 147:src/../h/kern_reg_util.h **** }
 486              		.loc 2 147 12 is_stmt 0
 487 01d4 833784FA 		ld	a5,-88(s0)
 488              	.LBE113:
 489              	.LBE112:
 101:src/kern_interrupts.c ****                 uint64 volatile v_sepc = r_sepc();
 490              		.loc 1 101 33
 491 01d8 2330F4F4 		sd	a5,-192(s0)
 102:src/kern_interrupts.c ****                 kern_thread_join(handle);
 492              		.loc 1 102 17 is_stmt 1
 493              	.LBB114:
 494              	.LBB115:
  77:src/../h/kern_reg_util.h ****     __asm__ volatile ("csrr %[sepc], sepc" : [sepc] "=r"(sepc));
 495              		.loc 2 77 5
  78:src/../h/kern_reg_util.h ****     return sepc;
 496              		.loc 2 78 5
 497              	#APP
 498              	# 78 "src/../h/kern_reg_util.h" 1
 499              		csrr a5, sepc
 500              	# 0 "" 2
 501              	#NO_APP
 502 01e0 2330F4FA 		sd	a5,-96(s0)
  79:src/../h/kern_reg_util.h **** }
 503              		.loc 2 79 5
  79:src/../h/kern_reg_util.h **** }
 504              		.loc 2 79 12 is_stmt 0
 505 01e4 833704FA 		ld	a5,-96(s0)
 506              	.LBE115:
 507              	.LBE114:
 102:src/kern_interrupts.c ****                 kern_thread_join(handle);
 508              		.loc 1 102 33
 509 01e8 2334F4F4 		sd	a5,-184(s0)
 103:src/kern_interrupts.c ****                 w_sstatus(sstatus);
 510              		.loc 1 103 17 is_stmt 1
 511 01ec 13850400 		mv	a0,s1
 512              	.LVL35:
 513 01f0 97000000 		call	kern_thread_join
 513      E7800000 
 514              	.LVL36:
 104:src/kern_interrupts.c ****                 w_sepc(v_sepc);
 515              		.loc 1 104 17
 516 01f8 833704F4 		ld	a5,-192(s0)
 517              	.LVL37:
 518              	.LBB116:
 519              	.LBB117:
GAS LISTING /tmp/ccMjnBPO.s 			page 18


 152:src/../h/kern_reg_util.h **** }
 520              		.loc 2 152 5
 521              	#APP
 522              	# 152 "src/../h/kern_reg_util.h" 1
 523              		csrw sstatus, a5
 524              	# 0 "" 2
 525              	.LVL38:
 526              	#NO_APP
 527              	.LBE117:
 528              	.LBE116:
 105:src/kern_interrupts.c ****                 running->endTime=time+running->timeslice;
 529              		.loc 1 105 17
 530 0200 833784F4 		ld	a5,-184(s0)
 531              	.LVL39:
 532              	.LBB118:
 533              	.LBB119:
  84:src/../h/kern_reg_util.h **** }
 534              		.loc 2 84 5
 535              	#APP
 536              	# 84 "src/../h/kern_reg_util.h" 1
 537              		csrw sepc, a5
 538              	# 0 "" 2
 539              	.LVL40:
 540              	#NO_APP
 541              	.LBE119:
 542              	.LBE118:
 106:src/kern_interrupts.c ****                 break;
 543              		.loc 1 106 17
 106:src/kern_interrupts.c ****                 break;
 544              		.loc 1 106 46 is_stmt 0
 545 0208 17070000 		ld	a4,running
 545      03370700 
 546 0210 83360703 		ld	a3,48(a4)
 106:src/kern_interrupts.c ****                 break;
 547              		.loc 1 106 38
 548 0214 97070000 		lw	a5,time
 548      83A70700 
 549 021c B387D700 		add	a5,a5,a3
 106:src/kern_interrupts.c ****                 break;
 550              		.loc 1 106 33
 551 0220 233CF702 		sd	a5,56(a4)
 107:src/kern_interrupts.c ****             }
 552              		.loc 1 107 17 is_stmt 1
 553 0224 6FF0DFEA 		j	.L5
 554              	.LVL41:
 555              	.L16:
 556              	.LBE111:
 111:src/kern_interrupts.c ****             }
 557              		.loc 1 111 17
 558 0228 97000000 		call	kern_thread_end_running
 558      E7800000 
 559              	.LVL42:
 560              	.L13:
 561              	.LBB120:
 115:src/kern_interrupts.c ****                 uint64 init = a2;
 562              		.loc 1 115 17
 116:src/kern_interrupts.c ****                 retval = kern_sem_open(handle,init);
GAS LISTING /tmp/ccMjnBPO.s 			page 19


 563              		.loc 1 116 17
 117:src/kern_interrupts.c ****                 w_a0(retval);
 564              		.loc 1 117 17
 117:src/kern_interrupts.c ****                 w_a0(retval);
 565              		.loc 1 117 26 is_stmt 0
 566 0230 9B050900 		sext.w	a1,s2
 567 0234 13850400 		mv	a0,s1
 568 0238 97000000 		call	kern_sem_open
 568      E7800000 
 569              	.LVL43:
 118:src/kern_interrupts.c ****                 break;
 570              		.loc 1 118 17 is_stmt 1
 571              	.LBB121:
 572              	.LBB122:
  32:src/../h/kern_reg_util.h **** }
 573              		.loc 2 32 5
 574              	#APP
 575              	# 32 "src/../h/kern_reg_util.h" 1
  33:src/../h/kern_reg_util.h **** 
 576              		mv a0, a0
 577              	# 0 "" 2
 578              		.loc 2 33 1 is_stmt 0
 579              	#NO_APP
 580 0244 6FF0DFE8 		j	.L5
 581              	.LVL44:
 582              	.L12:
 583              	.LBE122:
 584              	.LBE121:
 585              	.LBE120:
 586              	.LBB123:
 123:src/kern_interrupts.c ****                 retval = kern_sem_close(handle);
 587              		.loc 1 123 17 is_stmt 1
 124:src/kern_interrupts.c ****                 w_a0(retval);
 588              		.loc 1 124 17
 124:src/kern_interrupts.c ****                 w_a0(retval);
 589              		.loc 1 124 26 is_stmt 0
 590 0248 13850400 		mv	a0,s1
 591              	.LVL45:
 592 024c 97000000 		call	kern_sem_close
 592      E7800000 
 593              	.LVL46:
 125:src/kern_interrupts.c ****                 break;
 594              		.loc 1 125 17 is_stmt 1
 595              	.LBB124:
 596              	.LBB125:
  32:src/../h/kern_reg_util.h **** }
 597              		.loc 2 32 5
 598              	#APP
 599              	# 32 "src/../h/kern_reg_util.h" 1
  33:src/../h/kern_reg_util.h **** 
 600              		mv a0, a0
 601              	# 0 "" 2
 602              		.loc 2 33 1 is_stmt 0
 603              	#NO_APP
 604 0258 6FF09FE7 		j	.L5
 605              	.LVL47:
 606              	.L10:
GAS LISTING /tmp/ccMjnBPO.s 			page 20


 607              	.LBE125:
 608              	.LBE124:
 609              	.LBE123:
 610              	.LBB126:
 130:src/kern_interrupts.c ****                 kern_sem_signal(handle);
 611              		.loc 1 130 17 is_stmt 1
 131:src/kern_interrupts.c ****                 retval=0;
 612              		.loc 1 131 17
 613 025c 13850400 		mv	a0,s1
 614              	.LVL48:
 615 0260 97000000 		call	kern_sem_signal
 615      E7800000 
 616              	.LVL49:
 132:src/kern_interrupts.c ****                 w_a0(retval);
 617              		.loc 1 132 17
 133:src/kern_interrupts.c ****                 break;
 618              		.loc 1 133 17
 619              	.LBB127:
 620              	.LBB128:
  32:src/../h/kern_reg_util.h **** }
 621              		.loc 2 32 5
 622 0268 93070000 		li	a5,0
 623              	#APP
 624              	# 32 "src/../h/kern_reg_util.h" 1
  33:src/../h/kern_reg_util.h **** 
 625              		mv a0, a5
 626              	# 0 "" 2
 627              		.loc 2 33 1 is_stmt 0
 628              	#NO_APP
 629 0270 6FF01FE6 		j	.L5
 630              	.LVL50:
 631              	.L11:
 632              	.LBE128:
 633              	.LBE127:
 634              	.LBE126:
 635              	.LBB129:
 138:src/kern_interrupts.c ****                 int res = kern_sem_wait(handle);
 636              		.loc 1 138 17 is_stmt 1
 139:src/kern_interrupts.c ****                 if(res==1) retval=0;
 637              		.loc 1 139 17
 139:src/kern_interrupts.c ****                 if(res==1) retval=0;
 638              		.loc 1 139 27 is_stmt 0
 639 0274 13850400 		mv	a0,s1
 640              	.LVL51:
 641 0278 97000000 		call	kern_sem_wait
 641      E7800000 
 642              	.LVL52:
 140:src/kern_interrupts.c ****                 else {
 643              		.loc 1 140 17 is_stmt 1
 140:src/kern_interrupts.c ****                 else {
 644              		.loc 1 140 19 is_stmt 0
 645 0280 93071000 		li	a5,1
 646 0284 6318F500 		bne	a0,a5,.L29
 140:src/kern_interrupts.c ****                 else {
 647              		.loc 1 140 34
 648 0288 93070000 		li	a5,0
 649              	.LVL53:
GAS LISTING /tmp/ccMjnBPO.s 			page 21


 650              	.L20:
 151:src/kern_interrupts.c ****                 break;
 651              		.loc 1 151 17 is_stmt 1
 652              	.LBB130:
 653              	.LBB131:
  32:src/../h/kern_reg_util.h **** }
 654              		.loc 2 32 5
 655              	#APP
 656              	# 32 "src/../h/kern_reg_util.h" 1
  33:src/../h/kern_reg_util.h **** 
 657              		mv a0, a5
 658              	# 0 "" 2
 659              		.loc 2 33 1 is_stmt 0
 660              	#NO_APP
 661 0290 6FF01FE4 		j	.L5
 662              	.LVL54:
 663              	.L29:
 664              	.LBE131:
 665              	.LBE130:
 666              	.LBB132:
 142:src/kern_interrupts.c ****                     uint64 volatile v_sepc = r_sepc();
 667              		.loc 1 142 21 is_stmt 1
 668              	.LBB133:
 669              	.LBB134:
 145:src/../h/kern_reg_util.h ****     __asm__ volatile ("csrr %[sstatus], sstatus" : [sstatus] "=r"(sstatus));
 670              		.loc 2 145 5
 146:src/../h/kern_reg_util.h ****     return sstatus;
 671              		.loc 2 146 5
 672              	#APP
 673              	# 146 "src/../h/kern_reg_util.h" 1
 674              		csrr a5, sstatus
 675              	# 0 "" 2
 676              	#NO_APP
 677 0298 233CF4FA 		sd	a5,-72(s0)
 147:src/../h/kern_reg_util.h **** }
 678              		.loc 2 147 5
 147:src/../h/kern_reg_util.h **** }
 679              		.loc 2 147 12 is_stmt 0
 680 029c 833784FB 		ld	a5,-72(s0)
 681              	.LBE134:
 682              	.LBE133:
 142:src/kern_interrupts.c ****                     uint64 volatile v_sepc = r_sepc();
 683              		.loc 1 142 37
 684 02a0 2338F4F4 		sd	a5,-176(s0)
 143:src/kern_interrupts.c ****                     kern_thread_dispatch();
 685              		.loc 1 143 21 is_stmt 1
 686              	.LBB135:
 687              	.LBB136:
  77:src/../h/kern_reg_util.h ****     __asm__ volatile ("csrr %[sepc], sepc" : [sepc] "=r"(sepc));
 688              		.loc 2 77 5
  78:src/../h/kern_reg_util.h ****     return sepc;
 689              		.loc 2 78 5
 690              	#APP
 691              	# 78 "src/../h/kern_reg_util.h" 1
 692              		csrr a5, sepc
 693              	# 0 "" 2
 694              	#NO_APP
GAS LISTING /tmp/ccMjnBPO.s 			page 22


 695 02a8 2338F4FA 		sd	a5,-80(s0)
  79:src/../h/kern_reg_util.h **** }
 696              		.loc 2 79 5
  79:src/../h/kern_reg_util.h **** }
 697              		.loc 2 79 12 is_stmt 0
 698 02ac 833704FB 		ld	a5,-80(s0)
 699              	.LBE136:
 700              	.LBE135:
 143:src/kern_interrupts.c ****                     kern_thread_dispatch();
 701              		.loc 1 143 37
 702 02b0 233CF4F4 		sd	a5,-168(s0)
 144:src/kern_interrupts.c ****                     w_sstatus(sstatus);
 703              		.loc 1 144 21 is_stmt 1
 704 02b4 97000000 		call	kern_thread_dispatch
 704      E7800000 
 705              	.LVL55:
 145:src/kern_interrupts.c ****                     w_sepc(v_sepc);
 706              		.loc 1 145 21
 707 02bc 833704F5 		ld	a5,-176(s0)
 708              	.LVL56:
 709              	.LBB137:
 710              	.LBB138:
 152:src/../h/kern_reg_util.h **** }
 711              		.loc 2 152 5
 712              	#APP
 713              	# 152 "src/../h/kern_reg_util.h" 1
 714              		csrw sstatus, a5
 715              	# 0 "" 2
 716              	.LVL57:
 717              	#NO_APP
 718              	.LBE138:
 719              	.LBE137:
 146:src/kern_interrupts.c ****                     running->endTime=time+running->timeslice;
 720              		.loc 1 146 21
 721 02c4 833784F5 		ld	a5,-168(s0)
 722              	.LVL58:
 723              	.LBB139:
 724              	.LBB140:
  84:src/../h/kern_reg_util.h **** }
 725              		.loc 2 84 5
 726              	#APP
 727              	# 84 "src/../h/kern_reg_util.h" 1
 728              		csrw sepc, a5
 729              	# 0 "" 2
 730              	.LVL59:
 731              	#NO_APP
 732              	.LBE140:
 733              	.LBE139:
 147:src/kern_interrupts.c ****                     if(running->mailbox==0) retval = 0;
 734              		.loc 1 147 21
 147:src/kern_interrupts.c ****                     if(running->mailbox==0) retval = 0;
 735              		.loc 1 147 50 is_stmt 0
 736 02cc 97070000 		ld	a5,running
 736      83B70700 
 737 02d4 83B60703 		ld	a3,48(a5)
 147:src/kern_interrupts.c ****                     if(running->mailbox==0) retval = 0;
 738              		.loc 1 147 42
GAS LISTING /tmp/ccMjnBPO.s 			page 23


 739 02d8 17070000 		lw	a4,time
 739      03270700 
 740 02e0 3307D700 		add	a4,a4,a3
 147:src/kern_interrupts.c ****                     if(running->mailbox==0) retval = 0;
 741              		.loc 1 147 37
 742 02e4 23BCE702 		sd	a4,56(a5)
 148:src/kern_interrupts.c ****                     else retval=-1;
 743              		.loc 1 148 21 is_stmt 1
 148:src/kern_interrupts.c ****                     else retval=-1;
 744              		.loc 1 148 31 is_stmt 0
 745 02e8 83B78704 		ld	a5,72(a5)
 148:src/kern_interrupts.c ****                     else retval=-1;
 746              		.loc 1 148 23
 747 02ec E38007FA 		beqz	a5,.L20
 149:src/kern_interrupts.c ****                 }
 748              		.loc 1 149 32
 749 02f0 9307F0FF 		li	a5,-1
 750 02f4 6FF09FF9 		j	.L20
 751              	.LVL60:
 752              	.L8:
 753              	.LBE132:
 754              	.LBE129:
 755              	.LBB141:
 156:src/kern_interrupts.c ****                 running->status=SLEEPING;
 756              		.loc 1 156 17 is_stmt 1
 157:src/kern_interrupts.c ****                 running->endTime=SYSTEM_TIME+period;
 757              		.loc 1 157 17
 157:src/kern_interrupts.c ****                 running->endTime=SYSTEM_TIME+period;
 758              		.loc 1 157 24 is_stmt 0
 759 02f8 17090000 		lla	s2,running
 759      13090900 
 760              	.LVL61:
 761 0300 83370900 		ld	a5,0(s2)
 157:src/kern_interrupts.c ****                 running->endTime=SYSTEM_TIME+period;
 762              		.loc 1 157 32
 763 0304 13075000 		li	a4,5
 764 0308 23A8E704 		sw	a4,80(a5)
 158:src/kern_interrupts.c ****                 uint64 volatile sstatus = r_sstatus();
 765              		.loc 1 158 17 is_stmt 1
 158:src/kern_interrupts.c ****                 uint64 volatile sstatus = r_sstatus();
 766              		.loc 1 158 45 is_stmt 0
 767 030c 17070000 		ld	a4,SYSTEM_TIME
 767      03370700 
 768 0314 B384E400 		add	s1,s1,a4
 769              	.LVL62:
 158:src/kern_interrupts.c ****                 uint64 volatile sstatus = r_sstatus();
 770              		.loc 1 158 33
 771 0318 23BC9702 		sd	s1,56(a5)
 159:src/kern_interrupts.c ****                 uint64 volatile v_sepc = r_sepc();
 772              		.loc 1 159 17 is_stmt 1
 773              	.LBB142:
 774              	.LBB143:
 145:src/../h/kern_reg_util.h ****     __asm__ volatile ("csrr %[sstatus], sstatus" : [sstatus] "=r"(sstatus));
 775              		.loc 2 145 5
 146:src/../h/kern_reg_util.h ****     return sstatus;
 776              		.loc 2 146 5
 777              	#APP
GAS LISTING /tmp/ccMjnBPO.s 			page 24


 778              	# 146 "src/../h/kern_reg_util.h" 1
 779              		csrr a5, sstatus
 780              	# 0 "" 2
 781              	#NO_APP
 782 0320 2334F4FC 		sd	a5,-56(s0)
 147:src/../h/kern_reg_util.h **** }
 783              		.loc 2 147 5
 147:src/../h/kern_reg_util.h **** }
 784              		.loc 2 147 12 is_stmt 0
 785 0324 833784FC 		ld	a5,-56(s0)
 786              	.LBE143:
 787              	.LBE142:
 159:src/kern_interrupts.c ****                 uint64 volatile v_sepc = r_sepc();
 788              		.loc 1 159 33
 789 0328 2330F4F6 		sd	a5,-160(s0)
 160:src/kern_interrupts.c ****                 kern_thread_dispatch();
 790              		.loc 1 160 17 is_stmt 1
 791              	.LBB144:
 792              	.LBB145:
  77:src/../h/kern_reg_util.h ****     __asm__ volatile ("csrr %[sepc], sepc" : [sepc] "=r"(sepc));
 793              		.loc 2 77 5
  78:src/../h/kern_reg_util.h ****     return sepc;
 794              		.loc 2 78 5
 795              	#APP
 796              	# 78 "src/../h/kern_reg_util.h" 1
 797              		csrr a5, sepc
 798              	# 0 "" 2
 799              	#NO_APP
 800 0330 2330F4FC 		sd	a5,-64(s0)
  79:src/../h/kern_reg_util.h **** }
 801              		.loc 2 79 5
  79:src/../h/kern_reg_util.h **** }
 802              		.loc 2 79 12 is_stmt 0
 803 0334 833704FC 		ld	a5,-64(s0)
 804              	.LBE145:
 805              	.LBE144:
 160:src/kern_interrupts.c ****                 kern_thread_dispatch();
 806              		.loc 1 160 33
 807 0338 2334F4F6 		sd	a5,-152(s0)
 161:src/kern_interrupts.c ****                 w_sstatus(sstatus);
 808              		.loc 1 161 17 is_stmt 1
 809 033c 97000000 		call	kern_thread_dispatch
 809      E7800000 
 810              	.LVL63:
 162:src/kern_interrupts.c ****                 w_sepc(v_sepc);
 811              		.loc 1 162 17
 812 0344 833704F6 		ld	a5,-160(s0)
 813              	.LVL64:
 814              	.LBB146:
 815              	.LBB147:
 152:src/../h/kern_reg_util.h **** }
 816              		.loc 2 152 5
 817              	#APP
 818              	# 152 "src/../h/kern_reg_util.h" 1
 819              		csrw sstatus, a5
 820              	# 0 "" 2
 821              	.LVL65:
GAS LISTING /tmp/ccMjnBPO.s 			page 25


 822              	#NO_APP
 823              	.LBE147:
 824              	.LBE146:
 163:src/kern_interrupts.c ****                 running->endTime=time+running->timeslice;
 825              		.loc 1 163 17
 826 034c 833784F6 		ld	a5,-152(s0)
 827              	.LVL66:
 828              	.LBB148:
 829              	.LBB149:
  84:src/../h/kern_reg_util.h **** }
 830              		.loc 2 84 5
 831              	#APP
 832              	# 84 "src/../h/kern_reg_util.h" 1
 833              		csrw sepc, a5
 834              	# 0 "" 2
 835              	.LVL67:
 836              	#NO_APP
 837              	.LBE149:
 838              	.LBE148:
 164:src/kern_interrupts.c ****             }
 839              		.loc 1 164 17
 164:src/kern_interrupts.c ****             }
 840              		.loc 1 164 46 is_stmt 0
 841 0354 03370900 		ld	a4,0(s2)
 842 0358 83360703 		ld	a3,48(a4)
 164:src/kern_interrupts.c ****             }
 843              		.loc 1 164 38
 844 035c 97070000 		lw	a5,time
 844      83A70700 
 845 0364 B387D700 		add	a5,a5,a3
 164:src/kern_interrupts.c ****             }
 846              		.loc 1 164 33
 847 0368 233CF702 		sd	a5,56(a4)
 848 036c 6FF05FD6 		j	.L5
 849              	.LVL68:
 850              	.L27:
 851              	.LBE141:
 852              	.LBE88:
 172:src/kern_interrupts.c ****         mc_sip(SIP_SSIP);
 853              		.loc 1 172 9 is_stmt 1
 172:src/kern_interrupts.c ****         mc_sip(SIP_SSIP);
 854              		.loc 1 172 20 is_stmt 0
 855 0370 97040000 		lla	s1,SYSTEM_TIME
 855      93840400 
 856              	.LVL69:
 857 0378 03B50400 		ld	a0,0(s1)
 858 037c 13051500 		addi	a0,a0,1
 859 0380 23B0A400 		sd	a0,0(s1)
 173:src/kern_interrupts.c **** 
 860              		.loc 1 173 9 is_stmt 1
 861              	.LVL70:
 862              	.LBB150:
 863              	.LBB151:
 118:src/../h/kern_reg_util.h **** }
 864              		.loc 2 118 5
 865 0384 93072000 		li	a5,2
 866              	#APP
GAS LISTING /tmp/ccMjnBPO.s 			page 26


 867              	# 118 "src/../h/kern_reg_util.h" 1
 868              		csrc sip, a5
 869              	# 0 "" 2
 870              	.LVL71:
 871              	#NO_APP
 872              	.LBE151:
 873              	.LBE150:
 176:src/kern_interrupts.c **** 
 874              		.loc 1 176 9
 875 038c 97000000 		call	kern_thread_wakeup
 875      E7800000 
 876              	.LVL72:
 178:src/kern_interrupts.c ****             //__putc('(');
 877              		.loc 1 178 9
 178:src/kern_interrupts.c ****             //__putc('(');
 878              		.loc 1 178 32 is_stmt 0
 879 0394 97070000 		ld	a5,running
 879      83B70700 
 880 039c 03B78703 		ld	a4,56(a5)
 178:src/kern_interrupts.c ****             //__putc('(');
 881              		.loc 1 178 23
 882 03a0 83B70400 		ld	a5,0(s1)
 178:src/kern_interrupts.c ****             //__putc('(');
 883              		.loc 1 178 11
 884 03a4 E3E6E7D2 		bgtu	a4,a5,.L5
 885              	.LBB152:
 183:src/kern_interrupts.c ****             uint64 volatile v_sepc = r_sepc();
 886              		.loc 1 183 13 is_stmt 1
 887              	.LBB153:
 888              	.LBB154:
 145:src/../h/kern_reg_util.h ****     __asm__ volatile ("csrr %[sstatus], sstatus" : [sstatus] "=r"(sstatus));
 889              		.loc 2 145 5
 146:src/../h/kern_reg_util.h ****     return sstatus;
 890              		.loc 2 146 5
 891              	#APP
 892              	# 146 "src/../h/kern_reg_util.h" 1
 893              		csrr a5, sstatus
 894              	# 0 "" 2
 895              	#NO_APP
 896 03ac 233CF4FC 		sd	a5,-40(s0)
 147:src/../h/kern_reg_util.h **** }
 897              		.loc 2 147 5
 147:src/../h/kern_reg_util.h **** }
 898              		.loc 2 147 12 is_stmt 0
 899 03b0 833784FD 		ld	a5,-40(s0)
 900              	.LBE154:
 901              	.LBE153:
 183:src/kern_interrupts.c ****             uint64 volatile v_sepc = r_sepc();
 902              		.loc 1 183 29
 903 03b4 2338F4F6 		sd	a5,-144(s0)
 184:src/kern_interrupts.c ****             kern_thread_dispatch();
 904              		.loc 1 184 13 is_stmt 1
 905              	.LBB155:
 906              	.LBB156:
  77:src/../h/kern_reg_util.h ****     __asm__ volatile ("csrr %[sepc], sepc" : [sepc] "=r"(sepc));
 907              		.loc 2 77 5
  78:src/../h/kern_reg_util.h ****     return sepc;
GAS LISTING /tmp/ccMjnBPO.s 			page 27


 908              		.loc 2 78 5
 909              	#APP
 910              	# 78 "src/../h/kern_reg_util.h" 1
 911              		csrr a5, sepc
 912              	# 0 "" 2
 913              	#NO_APP
 914 03bc 2338F4FC 		sd	a5,-48(s0)
  79:src/../h/kern_reg_util.h **** }
 915              		.loc 2 79 5
  79:src/../h/kern_reg_util.h **** }
 916              		.loc 2 79 12 is_stmt 0
 917 03c0 833704FD 		ld	a5,-48(s0)
 918              	.LBE156:
 919              	.LBE155:
 184:src/kern_interrupts.c ****             kern_thread_dispatch();
 920              		.loc 1 184 29
 921 03c4 233CF4F6 		sd	a5,-136(s0)
 185:src/kern_interrupts.c ****             w_sstatus(sstatus);
 922              		.loc 1 185 13 is_stmt 1
 923 03c8 97000000 		call	kern_thread_dispatch
 923      E7800000 
 924              	.LVL73:
 186:src/kern_interrupts.c ****             w_sepc(v_sepc);
 925              		.loc 1 186 13
 926 03d0 833704F7 		ld	a5,-144(s0)
 927              	.LVL74:
 928              	.LBB157:
 929              	.LBB158:
 152:src/../h/kern_reg_util.h **** }
 930              		.loc 2 152 5
 931              	#APP
 932              	# 152 "src/../h/kern_reg_util.h" 1
 933              		csrw sstatus, a5
 934              	# 0 "" 2
 935              	.LVL75:
 936              	#NO_APP
 937              	.LBE158:
 938              	.LBE157:
 187:src/kern_interrupts.c ****             running->endTime=SYSTEM_TIME+running->timeslice;
 939              		.loc 1 187 13
 940 03d8 833784F7 		ld	a5,-136(s0)
 941              	.LVL76:
 942              	.LBB159:
 943              	.LBB160:
  84:src/../h/kern_reg_util.h **** }
 944              		.loc 2 84 5
 945              	#APP
 946              	# 84 "src/../h/kern_reg_util.h" 1
 947              		csrw sepc, a5
 948              	# 0 "" 2
 949              	.LVL77:
 950              	#NO_APP
 951              	.LBE160:
 952              	.LBE159:
 188:src/kern_interrupts.c ****             //__putc('0'+running->id);
 953              		.loc 1 188 13
 188:src/kern_interrupts.c ****             //__putc('0'+running->id);
GAS LISTING /tmp/ccMjnBPO.s 			page 28


 954              		.loc 1 188 49 is_stmt 0
 955 03e0 17070000 		ld	a4,running
 955      03370700 
 956 03e8 83370703 		ld	a5,48(a4)
 188:src/kern_interrupts.c ****             //__putc('0'+running->id);
 957              		.loc 1 188 41
 958 03ec 97060000 		ld	a3,SYSTEM_TIME
 958      83B60600 
 959 03f4 B387D700 		add	a5,a5,a3
 188:src/kern_interrupts.c ****             //__putc('0'+running->id);
 960              		.loc 1 188 29
 961 03f8 233CF702 		sd	a5,56(a4)
 962 03fc 6FF05FCD 		j	.L5
 963              	.LVL78:
 964              	.L28:
 965              	.LBE152:
 966              	.LBB161:
 197:src/kern_interrupts.c ****         if(i==10){
 967              		.loc 1 197 9 is_stmt 1
 197:src/kern_interrupts.c ****         if(i==10){
 968              		.loc 1 197 17 is_stmt 0
 969 0400 97000000 		call	plic_claim
 969      E7800000 
 970              	.LVL79:
 198:src/kern_interrupts.c ****             plic_complete(i);
 971              		.loc 1 198 9 is_stmt 1
 198:src/kern_interrupts.c ****             plic_complete(i);
 972              		.loc 1 198 11 is_stmt 0
 973 0408 9307A000 		li	a5,10
 974 040c 6308F500 		beq	a0,a5,.L30
 975              	.L22:
 205:src/kern_interrupts.c ****     }
 976              		.loc 1 205 9 is_stmt 1
 977 0410 97000000 		call	console_handler
 977      E7800000 
 978              	.LVL80:
 979              	.LBE161:
 217:src/kern_interrupts.c **** 
 980              		.loc 1 217 5
 981              		.loc 1 219 1 is_stmt 0
 982 0418 6FF09FCB 		j	.L5
 983              	.L30:
 984              	.LBB162:
 199:src/kern_interrupts.c ****             i--;
 985              		.loc 1 199 13 is_stmt 1
 986 041c 97000000 		call	plic_complete
 986      E7800000 
 987              	.LVL81:
 200:src/kern_interrupts.c ****         }
 988              		.loc 1 200 13
 989 0424 6FF0DFFE 		j	.L22
 990              	.LBE162:
 991              		.cfi_endproc
 992              	.LFE24:
 994              		.globl	time
 995              		.globl	SYSTEM_TIME
 996              		.section	.sbss,"aw",@nobits
GAS LISTING /tmp/ccMjnBPO.s 			page 29


 997              		.align	3
 1000              	time:
 1001 0000 00000000 		.zero	4
 1002 0004 00000000 		.zero	4
 1005              	SYSTEM_TIME:
 1006 0008 00000000 		.zero	8
 1006      00000000 
 1007              		.text
 1008              	.Letext0:
 1009              		.file 3 "src/../lib/hw.h"
 1010              		.file 4 "src/../h/kern_interrupts.h"
 1011              		.file 5 "src/../h/kern_threads.h"
 1012              		.file 6 "src/../h/syscall_c.h"
 1013              		.file 7 "src/../h/kern_semaphore.h"
 1014              		.file 8 "src/../h/kern_memory.h"
 1015              		.file 9 "src/../lib/console.h"
GAS LISTING /tmp/ccMjnBPO.s 			page 30

