GAS LISTING /tmp/ccEXcu4d.s 			page 1


   1              		.file	"kern_threads.cpp"
   2              		.option pic
   3              		.option norelax
   4              		.text
   5              	.Ltext0:
   6              		.align	2
   7              		.globl	_Z16kern_thread_ctorPv
   9              	_Z16kern_thread_ctorPv:
  10              	.LFB45:
  11              		.file 1 "src/kern_threads.cpp"
   1:src/kern_threads.cpp **** //
   2:src/kern_threads.cpp **** // Created by os on 5/22/23.
   3:src/kern_threads.cpp **** //
   4:src/kern_threads.cpp **** 
   5:src/kern_threads.cpp **** #include "../h/kern_threads.hpp"
   6:src/kern_threads.cpp **** #include "../h/kern_interrupts.hpp"
   7:src/kern_threads.cpp **** #include "../lib/hw.h"
   8:src/kern_threads.cpp **** #include "../h/kern_memory.hpp"
   9:src/kern_threads.cpp **** #include "../h/syscall_c.h"
  10:src/kern_threads.cpp **** #include "../h/kern_reg_util.h"
  11:src/kern_threads.cpp **** #include "../h/kern_slab.hpp"
  12:src/kern_threads.cpp **** 
  13:src/kern_threads.cpp **** #define MAX_THREADS 64
  14:src/kern_threads.cpp **** 
  15:src/kern_threads.cpp **** typedef struct thread_s* thread_t;
  16:src/kern_threads.cpp **** 
  17:src/kern_threads.cpp **** kmem_cache_t* threads_cache;
  18:src/kern_threads.cpp **** //struct thread_s kthreads[MAX_THREADS];
  19:src/kern_threads.cpp **** static int id;
  20:src/kern_threads.cpp **** struct thread_s* running;
  21:src/kern_threads.cpp **** struct {
  22:src/kern_threads.cpp ****     thread_t ready_head;
  23:src/kern_threads.cpp ****     thread_t ready_tail;
  24:src/kern_threads.cpp ****     thread_t joined_head;
  25:src/kern_threads.cpp ****     thread_t sleeping_head;
  26:src/kern_threads.cpp **** } scheduler;
  27:src/kern_threads.cpp **** 
  28:src/kern_threads.cpp **** void kern_thread_yield();
  29:src/kern_threads.cpp **** 
  30:src/kern_threads.cpp **** void kern_thread_ctor(void* addr){
  12              		.loc 1 30 34
  13              		.cfi_startproc
  14              	.LVL0:
  15 0000 130101FF 		addi	sp,sp,-16
  16              		.cfi_def_cfa_offset 16
  17 0004 23348100 		sd	s0,8(sp)
  18              		.cfi_offset 8, -8
  19 0008 13040101 		addi	s0,sp,16
  20              		.cfi_def_cfa 8, 0
  31:src/kern_threads.cpp ****     thread_t t = (thread_t)addr;
  21              		.loc 1 31 5
  22              	.LVL1:
  32:src/kern_threads.cpp ****     t->status=UNUSED;
  23              		.loc 1 32 5
  24              		.loc 1 32 14 is_stmt 0
  25 000c 23280504 		sw	zero,80(a0)
  33:src/kern_threads.cpp ****     t->stack_space=0;
GAS LISTING /tmp/ccEXcu4d.s 			page 2


  26              		.loc 1 33 5 is_stmt 1
  27              		.loc 1 33 19 is_stmt 0
  28 0010 23300504 		sd	zero,64(a0)
  34:src/kern_threads.cpp ****     t->arg=0;
  29              		.loc 1 34 5 is_stmt 1
  30              		.loc 1 34 11 is_stmt 0
  31 0014 23300502 		sd	zero,32(a0)
  35:src/kern_threads.cpp ****     t->joined_tid=-1;
  32              		.loc 1 35 5 is_stmt 1
  33              		.loc 1 35 18 is_stmt 0
  34 0018 9307F0FF 		li	a5,-1
  35 001c 2334F502 		sd	a5,40(a0)
  36:src/kern_threads.cpp ****     t->timeslice=DEFAULT_TIME_SLICE;
  36              		.loc 1 36 5 is_stmt 1
  37              		.loc 1 36 17 is_stmt 0
  38 0020 93072000 		li	a5,2
  39 0024 2338F502 		sd	a5,48(a0)
  37:src/kern_threads.cpp ****     t->body=0;
  40              		.loc 1 37 5 is_stmt 1
  41              		.loc 1 37 12 is_stmt 0
  42 0028 233C0500 		sd	zero,24(a0)
  38:src/kern_threads.cpp ****     t->stack_space = 0;
  43              		.loc 1 38 5 is_stmt 1
  39:src/kern_threads.cpp ****     t->sp =0;
  44              		.loc 1 39 5
  45              		.loc 1 39 11 is_stmt 0
  46 002c 23340500 		sd	zero,8(a0)
  40:src/kern_threads.cpp ****     t->ra=0;
  47              		.loc 1 40 5 is_stmt 1
  48              		.loc 1 40 10 is_stmt 0
  49 0030 23300500 		sd	zero,0(a0)
  41:src/kern_threads.cpp ****     t->sem_next=0;
  50              		.loc 1 41 5 is_stmt 1
  51              		.loc 1 41 16 is_stmt 0
  52 0034 233C0504 		sd	zero,88(a0)
  42:src/kern_threads.cpp ****     t->next_thread=0;
  53              		.loc 1 42 5 is_stmt 1
  54              		.loc 1 42 19 is_stmt 0
  55 0038 23300506 		sd	zero,96(a0)
  43:src/kern_threads.cpp ****     t->mailbox=0;
  56              		.loc 1 43 5 is_stmt 1
  57              		.loc 1 43 15 is_stmt 0
  58 003c 23340504 		sd	zero,72(a0)
  44:src/kern_threads.cpp **** }
  59              		.loc 1 44 1
  60 0040 03348100 		ld	s0,8(sp)
  61              		.cfi_restore 8
  62              		.cfi_def_cfa 2, 16
  63 0044 13010101 		addi	sp,sp,16
  64              		.cfi_def_cfa_offset 0
  65 0048 67800000 		jr	ra
  66              		.cfi_endproc
  67              	.LFE45:
  69              		.section	.rodata.str1.8,"aMS",@progbits,1
  70              		.align	3
  71              	.LC0:
  72 0000 74687265 		.string	"thread cache"
GAS LISTING /tmp/ccEXcu4d.s 			page 3


  72      61642063 
  72      61636865 
  72      00
  73              		.text
  74              		.align	2
  75              		.globl	_Z16kern_thread_initv
  77              	_Z16kern_thread_initv:
  78              	.LFB46:
  45:src/kern_threads.cpp **** void kern_thread_init()
  46:src/kern_threads.cpp **** {
  79              		.loc 1 46 1 is_stmt 1
  80              		.cfi_startproc
  81 004c 130101FE 		addi	sp,sp,-32
  82              		.cfi_def_cfa_offset 32
  83 0050 233C1100 		sd	ra,24(sp)
  84 0054 23388100 		sd	s0,16(sp)
  85 0058 23349100 		sd	s1,8(sp)
  86              		.cfi_offset 1, -8
  87              		.cfi_offset 8, -16
  88              		.cfi_offset 9, -24
  89 005c 13040102 		addi	s0,sp,32
  90              		.cfi_def_cfa 8, 0
  47:src/kern_threads.cpp ****     threads_cache=kmem_cache_create("thread cache", sizeof(thread_s),kern_thread_ctor,0);
  91              		.loc 1 47 5
  92              		.loc 1 47 36 is_stmt 0
  93 0060 93060000 		li	a3,0
  94 0064 17060000 		lla	a2,_Z16kern_thread_ctorPv
  94      13060600 
  95 006c 93058006 		li	a1,104
  96 0070 17050000 		lla	a0,.LC0
  96      13050500 
  97 0078 97000000 		call	_Z17kmem_cache_createPKcmPFvPvES3_@plt
  97      E7800000 
  98              	.LVL2:
  99              		.loc 1 47 18
 100 0080 97040000 		lla	s1,.LANCHOR0
 100      93840400 
 101 0088 23B0A400 		sd	a0,0(s1)
  48:src/kern_threads.cpp ****     id=0;
 102              		.loc 1 48 5 is_stmt 1
 103              		.loc 1 48 7 is_stmt 0
 104 008c 23A40400 		sw	zero,8(s1)
  49:src/kern_threads.cpp ****     /*
  50:src/kern_threads.cpp ****     for (int i=0;i<MAX_THREADS;i++){
  51:src/kern_threads.cpp ****         kthreads[i].status=UNUSED;
  52:src/kern_threads.cpp ****     }
  53:src/kern_threads.cpp ****     */
  54:src/kern_threads.cpp ****     //set main thread
  55:src/kern_threads.cpp ****     thread_t main_thread = (thread_t) kmem_cache_alloc(threads_cache);
 105              		.loc 1 55 5 is_stmt 1
 106              		.loc 1 55 55 is_stmt 0
 107 0090 97000000 		call	_Z16kmem_cache_allocP12kmem_cache_s@plt
 107      E7800000 
 108              	.LVL3:
  56:src/kern_threads.cpp ****     main_thread->status=RUNNING;
 109              		.loc 1 56 5 is_stmt 1
 110              		.loc 1 56 24 is_stmt 0
GAS LISTING /tmp/ccEXcu4d.s 			page 4


 111 0098 93071000 		li	a5,1
 112 009c 2328F504 		sw	a5,80(a0)
  57:src/kern_threads.cpp ****     main_thread->id=0;
 113              		.loc 1 57 5 is_stmt 1
 114              		.loc 1 57 20 is_stmt 0
 115 00a0 23380500 		sd	zero,16(a0)
  58:src/kern_threads.cpp ****     main_thread->timeslice=DEFAULT_TIME_SLICE+2;
 116              		.loc 1 58 5 is_stmt 1
 117              		.loc 1 58 27 is_stmt 0
 118 00a4 93074000 		li	a5,4
 119 00a8 2338F502 		sd	a5,48(a0)
  59:src/kern_threads.cpp ****     main_thread->endTime=0;
 120              		.loc 1 59 5 is_stmt 1
 121              		.loc 1 59 25 is_stmt 0
 122 00ac 233C0502 		sd	zero,56(a0)
  60:src/kern_threads.cpp ****     main_thread->next_thread=0;
 123              		.loc 1 60 5 is_stmt 1
 124              		.loc 1 60 29 is_stmt 0
 125 00b0 23300506 		sd	zero,96(a0)
  61:src/kern_threads.cpp ****     running=main_thread;
 126              		.loc 1 61 5 is_stmt 1
 127              		.loc 1 61 12 is_stmt 0
 128 00b4 23B8A400 		sd	a0,16(s1)
  62:src/kern_threads.cpp ****     scheduler.ready_head=0;
 129              		.loc 1 62 5 is_stmt 1
 130              		.loc 1 62 25 is_stmt 0
 131 00b8 23BC0400 		sd	zero,24(s1)
  63:src/kern_threads.cpp ****     scheduler.ready_tail=0;
 132              		.loc 1 63 5 is_stmt 1
 133              		.loc 1 63 25 is_stmt 0
 134 00bc 23B00402 		sd	zero,32(s1)
  64:src/kern_threads.cpp ****     scheduler.joined_head=0;
 135              		.loc 1 64 5 is_stmt 1
 136              		.loc 1 64 26 is_stmt 0
 137 00c0 23B40402 		sd	zero,40(s1)
  65:src/kern_threads.cpp ****     scheduler.sleeping_head=0;
 138              		.loc 1 65 5 is_stmt 1
 139              		.loc 1 65 28 is_stmt 0
 140 00c4 23B80402 		sd	zero,48(s1)
  66:src/kern_threads.cpp **** }
 141              		.loc 1 66 1
 142 00c8 83308101 		ld	ra,24(sp)
 143              		.cfi_restore 1
 144 00cc 03340101 		ld	s0,16(sp)
 145              		.cfi_restore 8
 146              		.cfi_def_cfa 2, 32
 147 00d0 83348100 		ld	s1,8(sp)
 148              		.cfi_restore 9
 149 00d4 13010102 		addi	sp,sp,32
 150              		.cfi_def_cfa_offset 0
 151 00d8 67800000 		jr	ra
 152              		.cfi_endproc
 153              	.LFE46:
 155              		.align	2
 156              		.globl	_Z18kern_scheduler_putP8thread_s
 158              	_Z18kern_scheduler_putP8thread_s:
 159              	.LFB47:
GAS LISTING /tmp/ccEXcu4d.s 			page 5


  67:src/kern_threads.cpp **** 
  68:src/kern_threads.cpp **** void kern_scheduler_put(thread_t t)
  69:src/kern_threads.cpp **** {
 160              		.loc 1 69 1 is_stmt 1
 161              		.cfi_startproc
 162              	.LVL4:
 163 00dc 130101FF 		addi	sp,sp,-16
 164              		.cfi_def_cfa_offset 16
 165 00e0 23348100 		sd	s0,8(sp)
 166              		.cfi_offset 8, -8
 167 00e4 13040101 		addi	s0,sp,16
 168              		.cfi_def_cfa 8, 0
  70:src/kern_threads.cpp ****     t->status=READY;
 169              		.loc 1 70 5
 170              		.loc 1 70 14 is_stmt 0
 171 00e8 93072000 		li	a5,2
 172 00ec 2328F504 		sw	a5,80(a0)
  71:src/kern_threads.cpp ****     if(scheduler.ready_tail==0){
 173              		.loc 1 71 5 is_stmt 1
 174              		.loc 1 71 18 is_stmt 0
 175 00f0 97070000 		ld	a5,.LANCHOR0+32
 175      83B70700 
 176              		.loc 1 71 5
 177 00f8 63800702 		beqz	a5,.L9
  72:src/kern_threads.cpp ****         scheduler.ready_tail=t;
  73:src/kern_threads.cpp ****         scheduler.ready_head=t;
  74:src/kern_threads.cpp ****     } else{
  75:src/kern_threads.cpp ****         scheduler.ready_tail->next_thread=t;
 178              		.loc 1 75 9 is_stmt 1
 179              		.loc 1 75 42 is_stmt 0
 180 00fc 23B0A706 		sd	a0,96(a5)
  76:src/kern_threads.cpp ****         scheduler.ready_tail=t;
 181              		.loc 1 76 9 is_stmt 1
 182              		.loc 1 76 29 is_stmt 0
 183 0100 97070000 		sd	a0,.LANCHOR0+32,a5
 183      23B0A700 
 184              	.L7:
  77:src/kern_threads.cpp ****     }
  78:src/kern_threads.cpp ****     t->next_thread=0;
 185              		.loc 1 78 5 is_stmt 1
 186              		.loc 1 78 19 is_stmt 0
 187 0108 23300506 		sd	zero,96(a0)
  79:src/kern_threads.cpp **** }
 188              		.loc 1 79 1
 189 010c 03348100 		ld	s0,8(sp)
 190              		.cfi_remember_state
 191              		.cfi_restore 8
 192              		.cfi_def_cfa 2, 16
 193 0110 13010101 		addi	sp,sp,16
 194              		.cfi_def_cfa_offset 0
 195 0114 67800000 		jr	ra
 196              	.L9:
 197              		.cfi_restore_state
  72:src/kern_threads.cpp ****         scheduler.ready_head=t;
 198              		.loc 1 72 9 is_stmt 1
  72:src/kern_threads.cpp ****         scheduler.ready_head=t;
 199              		.loc 1 72 29 is_stmt 0
GAS LISTING /tmp/ccEXcu4d.s 			page 6


 200 0118 97070000 		lla	a5,.LANCHOR0
 200      93870700 
 201 0120 23B0A702 		sd	a0,32(a5)
  73:src/kern_threads.cpp ****     } else{
 202              		.loc 1 73 9 is_stmt 1
  73:src/kern_threads.cpp ****     } else{
 203              		.loc 1 73 29 is_stmt 0
 204 0124 23BCA700 		sd	a0,24(a5)
 205 0128 6FF01FFE 		j	.L7
 206              		.cfi_endproc
 207              	.LFE47:
 209              		.align	2
 210              		.globl	_Z18kern_scheduler_getv
 212              	_Z18kern_scheduler_getv:
 213              	.LFB48:
  80:src/kern_threads.cpp **** 
  81:src/kern_threads.cpp **** thread_t kern_scheduler_get()
  82:src/kern_threads.cpp **** {
 214              		.loc 1 82 1 is_stmt 1
 215              		.cfi_startproc
 216 012c 130101FF 		addi	sp,sp,-16
 217              		.cfi_def_cfa_offset 16
 218 0130 23348100 		sd	s0,8(sp)
 219              		.cfi_offset 8, -8
 220 0134 13040101 		addi	s0,sp,16
 221              		.cfi_def_cfa 8, 0
  83:src/kern_threads.cpp ****     if(scheduler.ready_head==0) return 0;
 222              		.loc 1 83 5
 223              		.loc 1 83 18 is_stmt 0
 224 0138 17050000 		ld	a0,.LANCHOR0+24
 224      03350500 
 225              		.loc 1 83 5
 226 0140 63000502 		beqz	a0,.L10
  84:src/kern_threads.cpp ****     thread_t t = scheduler.ready_head;
 227              		.loc 1 84 5 is_stmt 1
 228              	.LVL5:
  85:src/kern_threads.cpp ****     scheduler.ready_head=scheduler.ready_head->next_thread;
 229              		.loc 1 85 5
 230              		.loc 1 85 48 is_stmt 0
 231 0144 03370506 		ld	a4,96(a0)
 232              		.loc 1 85 25
 233 0148 97070000 		lla	a5,.LANCHOR0
 233      93870700 
 234 0150 23BCE700 		sd	a4,24(a5)
  86:src/kern_threads.cpp ****     if(scheduler.ready_tail==t) scheduler.ready_tail=0;
 235              		.loc 1 86 5 is_stmt 1
 236              		.loc 1 86 18 is_stmt 0
 237 0154 83B70702 		ld	a5,32(a5)
 238              		.loc 1 86 5
 239 0158 630AF500 		beq	a0,a5,.L14
 240              	.L12:
  87:src/kern_threads.cpp ****     t->next_thread=0;
 241              		.loc 1 87 5 is_stmt 1
 242              		.loc 1 87 19 is_stmt 0
 243 015c 23300506 		sd	zero,96(a0)
  88:src/kern_threads.cpp ****     return t;
 244              		.loc 1 88 5 is_stmt 1
GAS LISTING /tmp/ccEXcu4d.s 			page 7


 245              	.LVL6:
 246              	.L10:
  89:src/kern_threads.cpp **** }
 247              		.loc 1 89 1 is_stmt 0
 248 0160 03348100 		ld	s0,8(sp)
 249              		.cfi_remember_state
 250              		.cfi_restore 8
 251              		.cfi_def_cfa 2, 16
 252 0164 13010101 		addi	sp,sp,16
 253              		.cfi_def_cfa_offset 0
 254 0168 67800000 		jr	ra
 255              	.LVL7:
 256              	.L14:
 257              		.cfi_restore_state
  86:src/kern_threads.cpp ****     t->next_thread=0;
 258              		.loc 1 86 33 is_stmt 1 discriminator 1
  86:src/kern_threads.cpp ****     t->next_thread=0;
 259              		.loc 1 86 53 is_stmt 0 discriminator 1
 260 016c 97070000 		sd	zero,.LANCHOR0+32,a5
 260      23B00700 
 261 0174 6FF09FFE 		j	.L12
 262              		.cfi_endproc
 263              	.LFE48:
 265              		.align	2
 266              		.globl	_Z10popSppSpiev
 268              	_Z10popSppSpiev:
 269              	.LFB50:
  90:src/kern_threads.cpp **** 
  91:src/kern_threads.cpp **** void kern_thread_dispatch()
  92:src/kern_threads.cpp **** {
  93:src/kern_threads.cpp ****     kern_scheduler_put(running);
  94:src/kern_threads.cpp ****     uint64 volatile sstatus = r_sstatus();
  95:src/kern_threads.cpp ****     uint64 volatile v_sepc = r_sepc();
  96:src/kern_threads.cpp ****     kern_thread_yield();
  97:src/kern_threads.cpp ****     w_sstatus(sstatus);
  98:src/kern_threads.cpp ****     w_sepc(v_sepc);
  99:src/kern_threads.cpp **** }
 100:src/kern_threads.cpp **** 
 101:src/kern_threads.cpp **** //samo izlazi iz kernela i vraca se odakle je pozvana
 102:src/kern_threads.cpp **** void popSppSpie()
 103:src/kern_threads.cpp **** {
 270              		.loc 1 103 1 is_stmt 1
 271              		.cfi_startproc
 272 0178 130101FF 		addi	sp,sp,-16
 273              		.cfi_def_cfa_offset 16
 274 017c 23348100 		sd	s0,8(sp)
 275              		.cfi_offset 8, -8
 276 0180 13040101 		addi	s0,sp,16
 277              		.cfi_def_cfa 8, 0
 104:src/kern_threads.cpp ****     __asm__ volatile("csrw sepc, ra"); //ovde dodaj izlazak iz privilegovanog moda
 278              		.loc 1 104 5
 279              		.loc 1 104 38 is_stmt 0
 280              	#APP
 281              	# 104 "src/kern_threads.cpp" 1
 105              	    __asm__ volatile("csrc sstatus, %[mask]" : : [mask] "r"(1 << 8));
 282              		csrw sepc, ra
 283              	# 0 "" 2
GAS LISTING /tmp/ccEXcu4d.s 			page 8


 284              		.loc 1 105 5 is_stmt 1
 285              		.loc 1 105 69 is_stmt 0
 286              	#NO_APP
 287 0188 93070010 		li	a5,256
 288              	#APP
 289              	# 105 "src/kern_threads.cpp" 1
 106              	    __asm__ volatile("sret");
 290              		csrc sstatus, a5
 291              	# 0 "" 2
 292              		.loc 1 106 5 is_stmt 1
 293              		.loc 1 106 29 is_stmt 0
 294              	# 106 "src/kern_threads.cpp" 1
 107              	}
 295              		sret
 296              	# 0 "" 2
 297              		.loc 1 107 1
 298              	#NO_APP
 299 0194 03348100 		ld	s0,8(sp)
 300              		.cfi_restore 8
 301              		.cfi_def_cfa 2, 16
 302 0198 13010101 		addi	sp,sp,16
 303              		.cfi_def_cfa_offset 0
 304 019c 67800000 		jr	ra
 305              		.cfi_endproc
 306              	.LFE50:
 308              		.align	2
 309              		.globl	_Z19kern_thread_wrapperv
 311              	_Z19kern_thread_wrapperv:
 312              	.LFB54:
 108:src/kern_threads.cpp **** 
 109:src/kern_threads.cpp **** #ifdef __cplusplus
 110:src/kern_threads.cpp **** extern "C" {
 111:src/kern_threads.cpp **** #endif
 112:src/kern_threads.cpp **** void contextSwitch(thread_t oldT, thread_t newT);
 113:src/kern_threads.cpp **** #ifdef __cplusplus
 114:src/kern_threads.cpp **** }
 115:src/kern_threads.cpp **** #endif
 116:src/kern_threads.cpp **** 
 117:src/kern_threads.cpp **** void kern_thread_yield()
 118:src/kern_threads.cpp **** {
 119:src/kern_threads.cpp ****     thread_t old = running;
 120:src/kern_threads.cpp ****     running=kern_scheduler_get();
 121:src/kern_threads.cpp ****     if(old!=running){
 122:src/kern_threads.cpp ****         running->status=RUNNING;
 123:src/kern_threads.cpp ****         if(old->status==RUNNING) old->status=READY;
 124:src/kern_threads.cpp ****         contextSwitch(old,running);
 125:src/kern_threads.cpp ****     }
 126:src/kern_threads.cpp ****     else {
 127:src/kern_threads.cpp ****         old->status=RUNNING;
 128:src/kern_threads.cpp ****     }
 129:src/kern_threads.cpp **** }
 130:src/kern_threads.cpp **** 
 131:src/kern_threads.cpp **** void kern_thread_resume_joined(uint64 joined_tid)
 132:src/kern_threads.cpp **** {
 133:src/kern_threads.cpp ****     thread_t curr = scheduler.joined_head;
 134:src/kern_threads.cpp ****     thread_t prev = 0;
 135:src/kern_threads.cpp ****     thread_t next = 0;
GAS LISTING /tmp/ccEXcu4d.s 			page 9


 136:src/kern_threads.cpp ****     while (curr!=0){
 137:src/kern_threads.cpp ****         next=curr->next_thread;
 138:src/kern_threads.cpp ****         if(curr->joined_tid<=joined_tid){
 139:src/kern_threads.cpp ****             if(prev!=0){
 140:src/kern_threads.cpp ****                 prev->next_thread=curr->next_thread;
 141:src/kern_threads.cpp ****             } else{
 142:src/kern_threads.cpp ****                 scheduler.joined_head=curr->next_thread;
 143:src/kern_threads.cpp ****             }
 144:src/kern_threads.cpp ****             kern_scheduler_put(curr);
 145:src/kern_threads.cpp ****         } else{
 146:src/kern_threads.cpp ****             prev=curr;
 147:src/kern_threads.cpp ****         }
 148:src/kern_threads.cpp ****         curr=next;
 149:src/kern_threads.cpp ****     }
 150:src/kern_threads.cpp **** }
 151:src/kern_threads.cpp **** 
 152:src/kern_threads.cpp **** void kern_thread_end_running()
 153:src/kern_threads.cpp **** {
 154:src/kern_threads.cpp ****     thread_t old = running;
 155:src/kern_threads.cpp ****     old->status=UNUSED;
 156:src/kern_threads.cpp ****     kern_thread_resume_joined(old->id);
 157:src/kern_threads.cpp ****     running=kern_scheduler_get();
 158:src/kern_threads.cpp ****     if(old->stack_space!=0) kern_mem_free((void*)old->stack_space);
 159:src/kern_threads.cpp ****     if(old!=running){
 160:src/kern_threads.cpp ****         contextSwitch(old,running);
 161:src/kern_threads.cpp ****     }
 162:src/kern_threads.cpp **** }
 163:src/kern_threads.cpp **** 
 164:src/kern_threads.cpp **** void kern_thread_wrapper()
 165:src/kern_threads.cpp **** {
 313              		.loc 1 165 1 is_stmt 1
 314              		.cfi_startproc
 315 01a0 130101FF 		addi	sp,sp,-16
 316              		.cfi_def_cfa_offset 16
 317 01a4 23341100 		sd	ra,8(sp)
 318 01a8 23308100 		sd	s0,0(sp)
 319              		.cfi_offset 1, -8
 320              		.cfi_offset 8, -16
 321 01ac 13040101 		addi	s0,sp,16
 322              		.cfi_def_cfa 8, 0
 166:src/kern_threads.cpp ****     popSppSpie();
 323              		.loc 1 166 5
 324              		.loc 1 166 15 is_stmt 0
 325 01b0 97000000 		call	_Z10popSppSpiev
 325      E7800000 
 326              	.LVL8:
 167:src/kern_threads.cpp ****     running->body(running->arg);
 327              		.loc 1 167 5 is_stmt 1
 328              		.loc 1 167 14 is_stmt 0
 329 01b8 97070000 		ld	a5,.LANCHOR0+16
 329      83B70700 
 330 01c0 03B78701 		ld	a4,24(a5)
 331              		.loc 1 167 18
 332 01c4 03B50702 		ld	a0,32(a5)
 333 01c8 E7000700 		jalr	a4
 334              	.LVL9:
 168:src/kern_threads.cpp ****     /*
GAS LISTING /tmp/ccEXcu4d.s 			page 10


 169:src/kern_threads.cpp ****     running->status=UNUSED;
 170:src/kern_threads.cpp ****     running->sem_next=0;
 171:src/kern_threads.cpp ****     running->joined_tid=-1;
 172:src/kern_threads.cpp ****     for(int i=0;i<MAX_THREADS;i++){
 173:src/kern_threads.cpp ****         if(kthreads[i].status==JOINED && kthreads[i].joined_tid==running->id) kthreads[i].status=RE
 174:src/kern_threads.cpp ****     }
 175:src/kern_threads.cpp **** */
 176:src/kern_threads.cpp ****     thread_exit();
 335              		.loc 1 176 5 is_stmt 1
 336              		.loc 1 176 16 is_stmt 0
 337 01cc 97000000 		call	_Z11thread_exitv@plt
 337      E7800000 
 338              	.LVL10:
 177:src/kern_threads.cpp **** }
 339              		.loc 1 177 1
 340 01d4 83308100 		ld	ra,8(sp)
 341              		.cfi_restore 1
 342 01d8 03340100 		ld	s0,0(sp)
 343              		.cfi_restore 8
 344              		.cfi_def_cfa 2, 16
 345 01dc 13010101 		addi	sp,sp,16
 346              		.cfi_def_cfa_offset 0
 347 01e0 67800000 		jr	ra
 348              		.cfi_endproc
 349              	.LFE54:
 351              		.align	2
 352              		.globl	_Z17kern_thread_yieldv
 354              	_Z17kern_thread_yieldv:
 355              	.LFB51:
 118:src/kern_threads.cpp ****     thread_t old = running;
 356              		.loc 1 118 1 is_stmt 1
 357              		.cfi_startproc
 358 01e4 130101FE 		addi	sp,sp,-32
 359              		.cfi_def_cfa_offset 32
 360 01e8 233C1100 		sd	ra,24(sp)
 361 01ec 23388100 		sd	s0,16(sp)
 362 01f0 23349100 		sd	s1,8(sp)
 363 01f4 23302101 		sd	s2,0(sp)
 364              		.cfi_offset 1, -8
 365              		.cfi_offset 8, -16
 366              		.cfi_offset 9, -24
 367              		.cfi_offset 18, -32
 368 01f8 13040102 		addi	s0,sp,32
 369              		.cfi_def_cfa 8, 0
 119:src/kern_threads.cpp ****     running=kern_scheduler_get();
 370              		.loc 1 119 5
 119:src/kern_threads.cpp ****     running=kern_scheduler_get();
 371              		.loc 1 119 14 is_stmt 0
 372 01fc 17090000 		lla	s2,.LANCHOR0
 372      13090900 
 373 0204 83340901 		ld	s1,16(s2)
 374              	.LVL11:
 120:src/kern_threads.cpp ****     if(old!=running){
 375              		.loc 1 120 5 is_stmt 1
 120:src/kern_threads.cpp ****     if(old!=running){
 376              		.loc 1 120 31 is_stmt 0
 377 0208 97000000 		call	_Z18kern_scheduler_getv
GAS LISTING /tmp/ccEXcu4d.s 			page 11


 377      E7800000 
 378              	.LVL12:
 120:src/kern_threads.cpp ****     if(old!=running){
 379              		.loc 1 120 12
 380 0210 2338A900 		sd	a0,16(s2)
 121:src/kern_threads.cpp ****         running->status=RUNNING;
 381              		.loc 1 121 5 is_stmt 1
 382 0214 63069504 		beq	a0,s1,.L20
 383 0218 93050500 		mv	a1,a0
 122:src/kern_threads.cpp ****         if(old->status==RUNNING) old->status=READY;
 384              		.loc 1 122 9
 122:src/kern_threads.cpp ****         if(old->status==RUNNING) old->status=READY;
 385              		.loc 1 122 24 is_stmt 0
 386 021c 93071000 		li	a5,1
 387 0220 2328F504 		sw	a5,80(a0)
 123:src/kern_threads.cpp ****         contextSwitch(old,running);
 388              		.loc 1 123 9 is_stmt 1
 123:src/kern_threads.cpp ****         contextSwitch(old,running);
 389              		.loc 1 123 17 is_stmt 0
 390 0224 03A70405 		lw	a4,80(s1)
 123:src/kern_threads.cpp ****         contextSwitch(old,running);
 391              		.loc 1 123 9
 392 0228 93071000 		li	a5,1
 393 022c 6304F702 		beq	a4,a5,.L24
 394              	.L21:
 124:src/kern_threads.cpp ****     }
 395              		.loc 1 124 9 is_stmt 1
 124:src/kern_threads.cpp ****     }
 396              		.loc 1 124 22 is_stmt 0
 397 0230 13850400 		mv	a0,s1
 398 0234 97000000 		call	contextSwitch@plt
 398      E7800000 
 399              	.LVL13:
 400              	.L19:
 129:src/kern_threads.cpp **** 
 401              		.loc 1 129 1
 402 023c 83308101 		ld	ra,24(sp)
 403              		.cfi_remember_state
 404              		.cfi_restore 1
 405 0240 03340101 		ld	s0,16(sp)
 406              		.cfi_restore 8
 407              		.cfi_def_cfa 2, 32
 408 0244 83348100 		ld	s1,8(sp)
 409              		.cfi_restore 9
 410              	.LVL14:
 411 0248 03390100 		ld	s2,0(sp)
 412              		.cfi_restore 18
 413 024c 13010102 		addi	sp,sp,32
 414              		.cfi_def_cfa_offset 0
 415 0250 67800000 		jr	ra
 416              	.LVL15:
 417              	.L24:
 418              		.cfi_restore_state
 123:src/kern_threads.cpp ****         contextSwitch(old,running);
 419              		.loc 1 123 34 is_stmt 1 discriminator 1
 123:src/kern_threads.cpp ****         contextSwitch(old,running);
 420              		.loc 1 123 45 is_stmt 0 discriminator 1
GAS LISTING /tmp/ccEXcu4d.s 			page 12


 421 0254 93072000 		li	a5,2
 422 0258 23A8F404 		sw	a5,80(s1)
 423 025c 6FF05FFD 		j	.L21
 424              	.L20:
 127:src/kern_threads.cpp ****     }
 425              		.loc 1 127 9 is_stmt 1
 127:src/kern_threads.cpp ****     }
 426              		.loc 1 127 20 is_stmt 0
 427 0260 93071000 		li	a5,1
 428 0264 23A8F404 		sw	a5,80(s1)
 129:src/kern_threads.cpp **** 
 429              		.loc 1 129 1
 430 0268 6FF05FFD 		j	.L19
 431              		.cfi_endproc
 432              	.LFE51:
 434              		.align	2
 435              		.globl	_Z20kern_thread_dispatchv
 437              	_Z20kern_thread_dispatchv:
 438              	.LFB49:
  92:src/kern_threads.cpp ****     kern_scheduler_put(running);
 439              		.loc 1 92 1 is_stmt 1
 440              		.cfi_startproc
 441 026c 130101FD 		addi	sp,sp,-48
 442              		.cfi_def_cfa_offset 48
 443 0270 23341102 		sd	ra,40(sp)
 444 0274 23308102 		sd	s0,32(sp)
 445              		.cfi_offset 1, -8
 446              		.cfi_offset 8, -16
 447 0278 13040103 		addi	s0,sp,48
 448              		.cfi_def_cfa 8, 0
  93:src/kern_threads.cpp ****     uint64 volatile sstatus = r_sstatus();
 449              		.loc 1 93 5
  93:src/kern_threads.cpp ****     uint64 volatile sstatus = r_sstatus();
 450              		.loc 1 93 23 is_stmt 0
 451 027c 17050000 		ld	a0,.LANCHOR0+16
 451      03350500 
 452 0284 97000000 		call	_Z18kern_scheduler_putP8thread_s
 452      E7800000 
 453              	.LVL16:
  94:src/kern_threads.cpp ****     uint64 volatile v_sepc = r_sepc();
 454              		.loc 1 94 5 is_stmt 1
 455              	.LBB26:
 456              	.LBB27:
 457              		.file 2 "src/../h/kern_reg_util.h"
   1:src/../h/kern_reg_util.h **** //
   2:src/../h/kern_reg_util.h **** // Created by os on 5/23/23.
   3:src/../h/kern_reg_util.h **** //
   4:src/../h/kern_reg_util.h **** 
   5:src/../h/kern_reg_util.h **** #ifndef OS1_KERN_REG_UTIL_H
   6:src/../h/kern_reg_util.h **** #define OS1_KERN_REG_UTIL_H
   7:src/../h/kern_reg_util.h **** 
   8:src/../h/kern_reg_util.h **** #include "../lib/hw.h"
   9:src/../h/kern_reg_util.h **** 
  10:src/../h/kern_reg_util.h **** enum BitMaskSstatus
  11:src/../h/kern_reg_util.h **** {
  12:src/../h/kern_reg_util.h ****     SSTATUS_SIE = (1 << 1),
  13:src/../h/kern_reg_util.h ****     SSTATUS_SPIE = (1 << 5),
GAS LISTING /tmp/ccEXcu4d.s 			page 13


  14:src/../h/kern_reg_util.h ****     SSTATUS_SPP = (1 << 8),
  15:src/../h/kern_reg_util.h **** };
  16:src/../h/kern_reg_util.h **** 
  17:src/../h/kern_reg_util.h **** enum BitMaskSip
  18:src/../h/kern_reg_util.h **** {
  19:src/../h/kern_reg_util.h ****     SIP_SSIP = (1 << 1),
  20:src/../h/kern_reg_util.h ****     SIP_STIP = (1 << 5),
  21:src/../h/kern_reg_util.h ****     SIP_SEIP = (1 << 9),
  22:src/../h/kern_reg_util.h **** };
  23:src/../h/kern_reg_util.h **** 
  24:src/../h/kern_reg_util.h **** inline uint64 r_a0()
  25:src/../h/kern_reg_util.h **** {
  26:src/../h/kern_reg_util.h ****     uint64 volatile a0;
  27:src/../h/kern_reg_util.h ****     __asm__ volatile ("mv %[a0], a0" : [a0] "=r"(a0));
  28:src/../h/kern_reg_util.h ****     return a0;
  29:src/../h/kern_reg_util.h **** }
  30:src/../h/kern_reg_util.h **** inline void w_a0(uint64 value)
  31:src/../h/kern_reg_util.h **** {
  32:src/../h/kern_reg_util.h ****     __asm__ volatile ("mv a0, %[value]" :: [value] "r"(value));
  33:src/../h/kern_reg_util.h **** }
  34:src/../h/kern_reg_util.h **** 
  35:src/../h/kern_reg_util.h **** inline uint64 r_a1()
  36:src/../h/kern_reg_util.h **** {
  37:src/../h/kern_reg_util.h ****     uint64 volatile a1;
  38:src/../h/kern_reg_util.h ****     __asm__ volatile ("mv %[a1], a1" : [a1] "=r"(a1));
  39:src/../h/kern_reg_util.h ****     return a1;
  40:src/../h/kern_reg_util.h **** }
  41:src/../h/kern_reg_util.h **** 
  42:src/../h/kern_reg_util.h **** inline uint64 r_a2()
  43:src/../h/kern_reg_util.h **** {
  44:src/../h/kern_reg_util.h ****     uint64 volatile a2;
  45:src/../h/kern_reg_util.h ****     __asm__ volatile ("mv %[a2], a2" : [a2] "=r"(a2));
  46:src/../h/kern_reg_util.h ****     return a2;
  47:src/../h/kern_reg_util.h **** }
  48:src/../h/kern_reg_util.h **** 
  49:src/../h/kern_reg_util.h **** inline uint64 r_a3()
  50:src/../h/kern_reg_util.h **** {
  51:src/../h/kern_reg_util.h ****     uint64 volatile a3;
  52:src/../h/kern_reg_util.h ****     __asm__ volatile ("mv %[a3], a3" : [a3] "=r"(a3));
  53:src/../h/kern_reg_util.h ****     return a3;
  54:src/../h/kern_reg_util.h **** }
  55:src/../h/kern_reg_util.h **** 
  56:src/../h/kern_reg_util.h **** inline uint64 r_a4()
  57:src/../h/kern_reg_util.h **** {
  58:src/../h/kern_reg_util.h ****     uint64 volatile a4;
  59:src/../h/kern_reg_util.h ****     __asm__ volatile ("mv %[a4], a4" : [a4] "=r"(a4));
  60:src/../h/kern_reg_util.h ****     return a4;
  61:src/../h/kern_reg_util.h **** }
  62:src/../h/kern_reg_util.h **** 
  63:src/../h/kern_reg_util.h **** inline uint64 r_scause()
  64:src/../h/kern_reg_util.h **** {
  65:src/../h/kern_reg_util.h ****     uint64 volatile scause;
  66:src/../h/kern_reg_util.h ****     __asm__ volatile ("csrr %[scause], scause" : [scause] "=r"(scause));
  67:src/../h/kern_reg_util.h ****     return scause;
  68:src/../h/kern_reg_util.h **** }
  69:src/../h/kern_reg_util.h **** 
  70:src/../h/kern_reg_util.h **** inline void w_scause(uint64 scause)
GAS LISTING /tmp/ccEXcu4d.s 			page 14


  71:src/../h/kern_reg_util.h **** {
  72:src/../h/kern_reg_util.h ****     __asm__ volatile ("csrw scause, %[scause]" : : [scause] "r"(scause));
  73:src/../h/kern_reg_util.h **** }
  74:src/../h/kern_reg_util.h **** 
  75:src/../h/kern_reg_util.h **** inline uint64 r_sepc()
  76:src/../h/kern_reg_util.h **** {
  77:src/../h/kern_reg_util.h ****     uint64 volatile sepc;
  78:src/../h/kern_reg_util.h ****     __asm__ volatile ("csrr %[sepc], sepc" : [sepc] "=r"(sepc));
  79:src/../h/kern_reg_util.h ****     return sepc;
  80:src/../h/kern_reg_util.h **** }
  81:src/../h/kern_reg_util.h **** 
  82:src/../h/kern_reg_util.h **** inline void w_sepc(uint64 sepc)
  83:src/../h/kern_reg_util.h **** {
  84:src/../h/kern_reg_util.h ****     __asm__ volatile ("csrw sepc, %[sepc]" : : [sepc] "r"(sepc));
  85:src/../h/kern_reg_util.h **** }
  86:src/../h/kern_reg_util.h **** 
  87:src/../h/kern_reg_util.h **** inline uint64 r_stvec()
  88:src/../h/kern_reg_util.h **** {
  89:src/../h/kern_reg_util.h ****     uint64 volatile stvec;
  90:src/../h/kern_reg_util.h ****     __asm__ volatile ("csrr %[stvec], stvec" : [stvec] "=r"(stvec));
  91:src/../h/kern_reg_util.h ****     return stvec;
  92:src/../h/kern_reg_util.h **** }
  93:src/../h/kern_reg_util.h **** 
  94:src/../h/kern_reg_util.h **** inline void w_stvec(uint64 stvec)
  95:src/../h/kern_reg_util.h **** {
  96:src/../h/kern_reg_util.h ****     __asm__ volatile ("csrw stvec, %[stvec]" : : [stvec] "r"(stvec));
  97:src/../h/kern_reg_util.h **** }
  98:src/../h/kern_reg_util.h **** 
  99:src/../h/kern_reg_util.h **** inline uint64 r_stval()
 100:src/../h/kern_reg_util.h **** {
 101:src/../h/kern_reg_util.h ****     uint64 volatile stval;
 102:src/../h/kern_reg_util.h ****     __asm__ volatile ("csrr %[stval], stval" : [stval] "=r"(stval));
 103:src/../h/kern_reg_util.h ****     return stval;
 104:src/../h/kern_reg_util.h **** }
 105:src/../h/kern_reg_util.h **** 
 106:src/../h/kern_reg_util.h **** inline void w_stval(uint64 stval)
 107:src/../h/kern_reg_util.h **** {
 108:src/../h/kern_reg_util.h ****     __asm__ volatile ("csrw stval, %[stval]" : : [stval] "r"(stval));
 109:src/../h/kern_reg_util.h **** }
 110:src/../h/kern_reg_util.h **** 
 111:src/../h/kern_reg_util.h **** inline void ms_sip(uint64 mask)
 112:src/../h/kern_reg_util.h **** {
 113:src/../h/kern_reg_util.h ****     __asm__ volatile ("csrs sip, %[mask]" : : [mask] "r"(mask));
 114:src/../h/kern_reg_util.h **** }
 115:src/../h/kern_reg_util.h **** 
 116:src/../h/kern_reg_util.h **** inline void mc_sip(uint64 mask)
 117:src/../h/kern_reg_util.h **** {
 118:src/../h/kern_reg_util.h ****     __asm__ volatile ("csrc sip, %[mask]" : : [mask] "r"(mask));
 119:src/../h/kern_reg_util.h **** }
 120:src/../h/kern_reg_util.h **** 
 121:src/../h/kern_reg_util.h **** inline uint64 r_sip()
 122:src/../h/kern_reg_util.h **** {
 123:src/../h/kern_reg_util.h ****     uint64 volatile sip;
 124:src/../h/kern_reg_util.h ****     __asm__ volatile ("csrr %[sip], sip" : [sip] "=r"(sip));
 125:src/../h/kern_reg_util.h ****     return sip;
 126:src/../h/kern_reg_util.h **** }
 127:src/../h/kern_reg_util.h **** 
GAS LISTING /tmp/ccEXcu4d.s 			page 15


 128:src/../h/kern_reg_util.h **** inline void w_sip(uint64 sip)
 129:src/../h/kern_reg_util.h **** {
 130:src/../h/kern_reg_util.h ****     __asm__ volatile ("csrw sip, %[sip]" : : [sip] "r"(sip));
 131:src/../h/kern_reg_util.h **** }
 132:src/../h/kern_reg_util.h **** 
 133:src/../h/kern_reg_util.h **** inline void ms_sstatus(uint64 mask)
 134:src/../h/kern_reg_util.h **** {
 135:src/../h/kern_reg_util.h ****     __asm__ volatile ("csrs sstatus, %[mask]" : : [mask] "r"(mask));
 136:src/../h/kern_reg_util.h **** }
 137:src/../h/kern_reg_util.h **** 
 138:src/../h/kern_reg_util.h **** inline void mc_sstatus(uint64 mask)
 139:src/../h/kern_reg_util.h **** {
 140:src/../h/kern_reg_util.h ****     __asm__ volatile ("csrc sstatus, %[mask]" : : [mask] "r"(mask));
 141:src/../h/kern_reg_util.h **** }
 142:src/../h/kern_reg_util.h **** 
 143:src/../h/kern_reg_util.h **** inline uint64 r_sstatus()
 144:src/../h/kern_reg_util.h **** {
 145:src/../h/kern_reg_util.h ****     uint64 volatile sstatus;
 458              		.loc 2 145 5
 146:src/../h/kern_reg_util.h ****     __asm__ volatile ("csrr %[sstatus], sstatus" : [sstatus] "=r"(sstatus));
 459              		.loc 2 146 5
 460              		.loc 2 146 76 is_stmt 0
 461              	#APP
 462              	# 146 "src/../h/kern_reg_util.h" 1
 147              	    return sstatus;
 463              		csrr a5, sstatus
 464              	# 0 "" 2
 465              	#NO_APP
 466 0290 233CF4FC 		sd	a5,-40(s0)
 467              		.loc 2 147 5 is_stmt 1
 468              		.loc 2 147 12 is_stmt 0
 469 0294 833784FD 		ld	a5,-40(s0)
 470              	.LBE27:
 471              	.LBE26:
  94:src/kern_threads.cpp ****     uint64 volatile v_sepc = r_sepc();
 472              		.loc 1 94 41
 473 0298 2334F4FE 		sd	a5,-24(s0)
  95:src/kern_threads.cpp ****     kern_thread_yield();
 474              		.loc 1 95 5 is_stmt 1
 475              	.LBB28:
 476              	.LBB29:
  77:src/../h/kern_reg_util.h ****     __asm__ volatile ("csrr %[sepc], sepc" : [sepc] "=r"(sepc));
 477              		.loc 2 77 5
  78:src/../h/kern_reg_util.h ****     return sepc;
 478              		.loc 2 78 5
  78:src/../h/kern_reg_util.h ****     return sepc;
 479              		.loc 2 78 64 is_stmt 0
 480              	#APP
 481              	# 78 "src/../h/kern_reg_util.h" 1
 482              		csrr a5, sepc
 483              	# 0 "" 2
 484              	#NO_APP
 485 02a0 2338F4FC 		sd	a5,-48(s0)
  79:src/../h/kern_reg_util.h **** }
 486              		.loc 2 79 5 is_stmt 1
  79:src/../h/kern_reg_util.h **** }
 487              		.loc 2 79 12 is_stmt 0
GAS LISTING /tmp/ccEXcu4d.s 			page 16


 488 02a4 833704FD 		ld	a5,-48(s0)
 489              	.LBE29:
 490              	.LBE28:
  95:src/kern_threads.cpp ****     kern_thread_yield();
 491              		.loc 1 95 37
 492 02a8 2330F4FE 		sd	a5,-32(s0)
  96:src/kern_threads.cpp ****     w_sstatus(sstatus);
 493              		.loc 1 96 5 is_stmt 1
  96:src/kern_threads.cpp ****     w_sstatus(sstatus);
 494              		.loc 1 96 22 is_stmt 0
 495 02ac 97000000 		call	_Z17kern_thread_yieldv
 495      E7800000 
 496              	.LVL17:
  97:src/kern_threads.cpp ****     w_sepc(v_sepc);
 497              		.loc 1 97 5 is_stmt 1
  97:src/kern_threads.cpp ****     w_sepc(v_sepc);
 498              		.loc 1 97 14 is_stmt 0
 499 02b4 833784FE 		ld	a5,-24(s0)
 500              	.LVL18:
 501              	.LBB30:
 502              	.LBB31:
 148:src/../h/kern_reg_util.h **** }
 149:src/../h/kern_reg_util.h **** 
 150:src/../h/kern_reg_util.h **** inline void w_sstatus(uint64 sstatus)
 151:src/../h/kern_reg_util.h **** {
 152:src/../h/kern_reg_util.h ****     __asm__ volatile ("csrw sstatus, %[sstatus]" : : [sstatus] "r"(sstatus));
 503              		.loc 2 152 5 is_stmt 1
 504              		.loc 2 152 77 is_stmt 0
 505              	#APP
 506              	# 152 "src/../h/kern_reg_util.h" 1
 153              	}
 507              		csrw sstatus, a5
 508              	# 0 "" 2
 509              	.LVL19:
 510              	#NO_APP
 511              	.LBE31:
 512              	.LBE30:
  98:src/kern_threads.cpp **** }
 513              		.loc 1 98 5 is_stmt 1
  98:src/kern_threads.cpp **** }
 514              		.loc 1 98 11 is_stmt 0
 515 02bc 833704FE 		ld	a5,-32(s0)
 516              	.LVL20:
 517              	.LBB32:
 518              	.LBB33:
  84:src/../h/kern_reg_util.h **** }
 519              		.loc 2 84 5 is_stmt 1
  84:src/../h/kern_reg_util.h **** }
 520              		.loc 2 84 65 is_stmt 0
 521              	#APP
 522              	# 84 "src/../h/kern_reg_util.h" 1
 523              		csrw sepc, a5
 524              	# 0 "" 2
 525              	.LVL21:
 526              	#NO_APP
 527              	.LBE33:
 528              	.LBE32:
GAS LISTING /tmp/ccEXcu4d.s 			page 17


  99:src/kern_threads.cpp **** 
 529              		.loc 1 99 1
 530 02c4 83308102 		ld	ra,40(sp)
 531              		.cfi_restore 1
 532 02c8 03340102 		ld	s0,32(sp)
 533              		.cfi_restore 8
 534              		.cfi_def_cfa 2, 48
 535 02cc 13010103 		addi	sp,sp,48
 536              		.cfi_def_cfa_offset 0
 537 02d0 67800000 		jr	ra
 538              		.cfi_endproc
 539              	.LFE49:
 541              		.align	2
 542              		.globl	_Z25kern_thread_resume_joinedm
 544              	_Z25kern_thread_resume_joinedm:
 545              	.LFB52:
 132:src/kern_threads.cpp ****     thread_t curr = scheduler.joined_head;
 546              		.loc 1 132 1 is_stmt 1
 547              		.cfi_startproc
 548              	.LVL22:
 549 02d4 130101FD 		addi	sp,sp,-48
 550              		.cfi_def_cfa_offset 48
 551 02d8 23341102 		sd	ra,40(sp)
 552 02dc 23308102 		sd	s0,32(sp)
 553 02e0 233C9100 		sd	s1,24(sp)
 554 02e4 23382101 		sd	s2,16(sp)
 555 02e8 23343101 		sd	s3,8(sp)
 556              		.cfi_offset 1, -8
 557              		.cfi_offset 8, -16
 558              		.cfi_offset 9, -24
 559              		.cfi_offset 18, -32
 560              		.cfi_offset 19, -40
 561 02ec 13040103 		addi	s0,sp,48
 562              		.cfi_def_cfa 8, 0
 563 02f0 93090500 		mv	s3,a0
 133:src/kern_threads.cpp ****     thread_t prev = 0;
 564              		.loc 1 133 5
 133:src/kern_threads.cpp ****     thread_t prev = 0;
 565              		.loc 1 133 14 is_stmt 0
 566 02f4 17050000 		ld	a0,.LANCHOR0+40
 566      03350500 
 567              	.LVL23:
 134:src/kern_threads.cpp ****     thread_t next = 0;
 568              		.loc 1 134 5 is_stmt 1
 135:src/kern_threads.cpp ****     while (curr!=0){
 569              		.loc 1 135 5
 134:src/kern_threads.cpp ****     thread_t next = 0;
 570              		.loc 1 134 14 is_stmt 0
 571 02fc 13090000 		li	s2,0
 572 0300 6F00C000 		j	.L28
 573              	.LVL24:
 574              	.L33:
 146:src/kern_threads.cpp ****         }
 575              		.loc 1 146 17
 576 0304 13090500 		mv	s2,a0
 577              	.LVL25:
 578              	.L30:
GAS LISTING /tmp/ccEXcu4d.s 			page 18


 579 0308 13850400 		mv	a0,s1
 580              	.LVL26:
 581              	.L28:
 136:src/kern_threads.cpp ****         next=curr->next_thread;
 582              		.loc 1 136 5 is_stmt 1
 136:src/kern_threads.cpp ****         next=curr->next_thread;
 583              		.loc 1 136 16
 584 030c 63080502 		beqz	a0,.L27
 137:src/kern_threads.cpp ****         if(curr->joined_tid<=joined_tid){
 585              		.loc 1 137 9
 137:src/kern_threads.cpp ****         if(curr->joined_tid<=joined_tid){
 586              		.loc 1 137 13 is_stmt 0
 587 0310 83340506 		ld	s1,96(a0)
 588              	.LVL27:
 138:src/kern_threads.cpp ****             if(prev!=0){
 589              		.loc 1 138 9 is_stmt 1
 138:src/kern_threads.cpp ****             if(prev!=0){
 590              		.loc 1 138 18 is_stmt 0
 591 0314 83378502 		ld	a5,40(a0)
 138:src/kern_threads.cpp ****             if(prev!=0){
 592              		.loc 1 138 9
 593 0318 E3E6F9FE 		bgtu	a5,s3,.L33
 139:src/kern_threads.cpp ****                 prev->next_thread=curr->next_thread;
 594              		.loc 1 139 13 is_stmt 1
 595 031c 630A0900 		beqz	s2,.L31
 140:src/kern_threads.cpp ****             } else{
 596              		.loc 1 140 17
 140:src/kern_threads.cpp ****             } else{
 597              		.loc 1 140 34 is_stmt 0
 598 0320 23309906 		sd	s1,96(s2)
 599              	.L32:
 144:src/kern_threads.cpp ****         } else{
 600              		.loc 1 144 13 is_stmt 1
 144:src/kern_threads.cpp ****         } else{
 601              		.loc 1 144 31 is_stmt 0
 602 0324 97000000 		call	_Z18kern_scheduler_putP8thread_s
 602      E7800000 
 603              	.LVL28:
 604 032c 6FF0DFFD 		j	.L30
 605              	.LVL29:
 606              	.L31:
 142:src/kern_threads.cpp ****             }
 607              		.loc 1 142 17 is_stmt 1
 142:src/kern_threads.cpp ****             }
 608              		.loc 1 142 38 is_stmt 0
 609 0330 97070000 		sd	s1,.LANCHOR0+40,a5
 609      23B09700 
 610 0338 6FF0DFFE 		j	.L32
 611              	.LVL30:
 612              	.L27:
 150:src/kern_threads.cpp **** 
 613              		.loc 1 150 1
 614 033c 83308102 		ld	ra,40(sp)
 615              		.cfi_restore 1
 616 0340 03340102 		ld	s0,32(sp)
 617              		.cfi_restore 8
 618              		.cfi_def_cfa 2, 48
GAS LISTING /tmp/ccEXcu4d.s 			page 19


 619 0344 83348101 		ld	s1,24(sp)
 620              		.cfi_restore 9
 621 0348 03390101 		ld	s2,16(sp)
 622              		.cfi_restore 18
 623              	.LVL31:
 624 034c 83398100 		ld	s3,8(sp)
 625              		.cfi_restore 19
 626              	.LVL32:
 627 0350 13010103 		addi	sp,sp,48
 628              		.cfi_def_cfa_offset 0
 629 0354 67800000 		jr	ra
 630              		.cfi_endproc
 631              	.LFE52:
 633              		.align	2
 634              		.globl	_Z23kern_thread_end_runningv
 636              	_Z23kern_thread_end_runningv:
 637              	.LFB53:
 153:src/kern_threads.cpp ****     thread_t old = running;
 638              		.loc 1 153 1 is_stmt 1
 639              		.cfi_startproc
 640 0358 130101FE 		addi	sp,sp,-32
 641              		.cfi_def_cfa_offset 32
 642 035c 233C1100 		sd	ra,24(sp)
 643 0360 23388100 		sd	s0,16(sp)
 644 0364 23349100 		sd	s1,8(sp)
 645 0368 23302101 		sd	s2,0(sp)
 646              		.cfi_offset 1, -8
 647              		.cfi_offset 8, -16
 648              		.cfi_offset 9, -24
 649              		.cfi_offset 18, -32
 650 036c 13040102 		addi	s0,sp,32
 651              		.cfi_def_cfa 8, 0
 154:src/kern_threads.cpp ****     old->status=UNUSED;
 652              		.loc 1 154 5
 154:src/kern_threads.cpp ****     old->status=UNUSED;
 653              		.loc 1 154 14 is_stmt 0
 654 0370 17090000 		lla	s2,.LANCHOR0
 654      13090900 
 655 0378 83340901 		ld	s1,16(s2)
 656              	.LVL33:
 155:src/kern_threads.cpp ****     kern_thread_resume_joined(old->id);
 657              		.loc 1 155 5 is_stmt 1
 155:src/kern_threads.cpp ****     kern_thread_resume_joined(old->id);
 658              		.loc 1 155 16 is_stmt 0
 659 037c 23A80404 		sw	zero,80(s1)
 156:src/kern_threads.cpp ****     running=kern_scheduler_get();
 660              		.loc 1 156 5 is_stmt 1
 156:src/kern_threads.cpp ****     running=kern_scheduler_get();
 661              		.loc 1 156 30 is_stmt 0
 662 0380 03B50401 		ld	a0,16(s1)
 663 0384 97000000 		call	_Z25kern_thread_resume_joinedm
 663      E7800000 
 664              	.LVL34:
 157:src/kern_threads.cpp ****     if(old->stack_space!=0) kern_mem_free((void*)old->stack_space);
 665              		.loc 1 157 5 is_stmt 1
 157:src/kern_threads.cpp ****     if(old->stack_space!=0) kern_mem_free((void*)old->stack_space);
 666              		.loc 1 157 31 is_stmt 0
GAS LISTING /tmp/ccEXcu4d.s 			page 20


 667 038c 97000000 		call	_Z18kern_scheduler_getv
 667      E7800000 
 668              	.LVL35:
 157:src/kern_threads.cpp ****     if(old->stack_space!=0) kern_mem_free((void*)old->stack_space);
 669              		.loc 1 157 12
 670 0394 2338A900 		sd	a0,16(s2)
 158:src/kern_threads.cpp ****     if(old!=running){
 671              		.loc 1 158 5 is_stmt 1
 158:src/kern_threads.cpp ****     if(old!=running){
 672              		.loc 1 158 13 is_stmt 0
 673 0398 03B50404 		ld	a0,64(s1)
 158:src/kern_threads.cpp ****     if(old!=running){
 674              		.loc 1 158 5
 675 039c 631A0502 		bnez	a0,.L39
 676              	.L36:
 159:src/kern_threads.cpp ****         contextSwitch(old,running);
 677              		.loc 1 159 5 is_stmt 1
 159:src/kern_threads.cpp ****         contextSwitch(old,running);
 678              		.loc 1 159 11 is_stmt 0
 679 03a0 97050000 		ld	a1,.LANCHOR0+16
 679      83B50500 
 159:src/kern_threads.cpp ****         contextSwitch(old,running);
 680              		.loc 1 159 5
 681 03a8 63889500 		beq	a1,s1,.L35
 160:src/kern_threads.cpp ****     }
 682              		.loc 1 160 9 is_stmt 1
 160:src/kern_threads.cpp ****     }
 683              		.loc 1 160 22 is_stmt 0
 684 03ac 13850400 		mv	a0,s1
 685 03b0 97000000 		call	contextSwitch@plt
 685      E7800000 
 686              	.LVL36:
 687              	.L35:
 162:src/kern_threads.cpp **** 
 688              		.loc 1 162 1
 689 03b8 83308101 		ld	ra,24(sp)
 690              		.cfi_remember_state
 691              		.cfi_restore 1
 692 03bc 03340101 		ld	s0,16(sp)
 693              		.cfi_restore 8
 694              		.cfi_def_cfa 2, 32
 695 03c0 83348100 		ld	s1,8(sp)
 696              		.cfi_restore 9
 697              	.LVL37:
 698 03c4 03390100 		ld	s2,0(sp)
 699              		.cfi_restore 18
 700 03c8 13010102 		addi	sp,sp,32
 701              		.cfi_def_cfa_offset 0
 702 03cc 67800000 		jr	ra
 703              	.LVL38:
 704              	.L39:
 705              		.cfi_restore_state
 158:src/kern_threads.cpp ****     if(old!=running){
 706              		.loc 1 158 29 is_stmt 1 discriminator 1
 158:src/kern_threads.cpp ****     if(old!=running){
 707              		.loc 1 158 42 is_stmt 0 discriminator 1
 708 03d0 97000000 		call	_Z13kern_mem_freePv@plt
GAS LISTING /tmp/ccEXcu4d.s 			page 21


 708      E7800000 
 709              	.LVL39:
 710 03d8 6FF09FFC 		j	.L36
 711              		.cfi_endproc
 712              	.LFE53:
 714              		.align	2
 715              		.globl	_Z18kern_thread_createPP8thread_sPFvPvES2_S2_
 717              	_Z18kern_thread_createPP8thread_sPFvPvES2_S2_:
 718              	.LFB55:
 178:src/kern_threads.cpp **** 
 179:src/kern_threads.cpp **** int kern_thread_create(thread_t* handle, void(*start_routine)(void*), void* arg, void* stack_space)
 180:src/kern_threads.cpp **** {
 719              		.loc 1 180 1 is_stmt 1
 720              		.cfi_startproc
 721              	.LVL40:
 722 03dc 130101FD 		addi	sp,sp,-48
 723              		.cfi_def_cfa_offset 48
 724 03e0 23341102 		sd	ra,40(sp)
 725 03e4 23308102 		sd	s0,32(sp)
 726 03e8 233C9100 		sd	s1,24(sp)
 727 03ec 23382101 		sd	s2,16(sp)
 728 03f0 23343101 		sd	s3,8(sp)
 729 03f4 23304101 		sd	s4,0(sp)
 730              		.cfi_offset 1, -8
 731              		.cfi_offset 8, -16
 732              		.cfi_offset 9, -24
 733              		.cfi_offset 18, -32
 734              		.cfi_offset 19, -40
 735              		.cfi_offset 20, -48
 736 03f8 13040103 		addi	s0,sp,48
 737              		.cfi_def_cfa 8, 0
 738 03fc 13090500 		mv	s2,a0
 739 0400 138A0500 		mv	s4,a1
 740 0404 93090600 		mv	s3,a2
 741 0408 93840600 		mv	s1,a3
 181:src/kern_threads.cpp ****     *handle=0;
 742              		.loc 1 181 5
 743              		.loc 1 181 12 is_stmt 0
 744 040c 23300500 		sd	zero,0(a0)
 182:src/kern_threads.cpp ****     thread_t t= (thread_t)kmem_cache_alloc(threads_cache);
 745              		.loc 1 182 5 is_stmt 1
 746              		.loc 1 182 43 is_stmt 0
 747 0410 17050000 		ld	a0,.LANCHOR0
 747      03350500 
 748              	.LVL41:
 749 0418 97000000 		call	_Z16kmem_cache_allocP12kmem_cache_s@plt
 749      E7800000 
 750              	.LVL42:
 183:src/kern_threads.cpp ****     if(t==0) return -1;
 751              		.loc 1 183 5 is_stmt 1
 752 0420 630C0508 		beqz	a0,.L42
 184:src/kern_threads.cpp ****     *handle=t;
 753              		.loc 1 184 5
 754              		.loc 1 184 12 is_stmt 0
 755 0424 2330A900 		sd	a0,0(s2)
 185:src/kern_threads.cpp **** 
 186:src/kern_threads.cpp ****     t->id=++id;
GAS LISTING /tmp/ccEXcu4d.s 			page 22


 756              		.loc 1 186 5 is_stmt 1
 757              		.loc 1 186 11 is_stmt 0
 758 0428 17070000 		lla	a4,.LANCHOR0
 758      13070700 
 759 0430 83278700 		lw	a5,8(a4)
 760 0434 9B871700 		addiw	a5,a5,1
 761 0438 9B860700 		sext.w	a3,a5
 762              		.loc 1 186 10
 763 043c 2324F700 		sw	a5,8(a4)
 764 0440 2338D500 		sd	a3,16(a0)
 187:src/kern_threads.cpp ****     t->status=READY;
 765              		.loc 1 187 5 is_stmt 1
 766              		.loc 1 187 14 is_stmt 0
 767 0444 93072000 		li	a5,2
 768 0448 2328F504 		sw	a5,80(a0)
 188:src/kern_threads.cpp ****     t->arg=arg;
 769              		.loc 1 188 5 is_stmt 1
 770              		.loc 1 188 11 is_stmt 0
 771 044c 23303503 		sd	s3,32(a0)
 189:src/kern_threads.cpp ****     t->joined_tid=-1;
 772              		.loc 1 189 5 is_stmt 1
 773              		.loc 1 189 18 is_stmt 0
 774 0450 9307F0FF 		li	a5,-1
 775 0454 2334F502 		sd	a5,40(a0)
 190:src/kern_threads.cpp ****     t->timeslice=DEFAULT_TIME_SLICE;
 776              		.loc 1 190 5 is_stmt 1
 777              		.loc 1 190 17 is_stmt 0
 778 0458 93072000 		li	a5,2
 779 045c 2338F502 		sd	a5,48(a0)
 191:src/kern_threads.cpp ****     t->body=start_routine;
 780              		.loc 1 191 5 is_stmt 1
 781              		.loc 1 191 12 is_stmt 0
 782 0460 233C4501 		sd	s4,24(a0)
 192:src/kern_threads.cpp ****     t->stack_space = ((uint64)stack_space);
 783              		.loc 1 192 5 is_stmt 1
 784              		.loc 1 192 20 is_stmt 0
 785 0464 23309504 		sd	s1,64(a0)
 193:src/kern_threads.cpp ****     t->sp = t->stack_space+(DEFAULT_STACK_SIZE);
 786              		.loc 1 193 5 is_stmt 1
 787              		.loc 1 193 27 is_stmt 0
 788 0468 B7160000 		li	a3,4096
 789 046c B384D400 		add	s1,s1,a3
 790              	.LVL43:
 791              		.loc 1 193 11
 792 0470 23349500 		sd	s1,8(a0)
 194:src/kern_threads.cpp ****     t->ra=(uint64) &kern_thread_wrapper;
 793              		.loc 1 194 5 is_stmt 1
 794              		.loc 1 194 10 is_stmt 0
 795 0474 97070000 		lla	a5,_Z19kern_thread_wrapperv
 795      93870700 
 796 047c 2330F500 		sd	a5,0(a0)
 195:src/kern_threads.cpp ****     t->sem_next=0;
 797              		.loc 1 195 5 is_stmt 1
 798              		.loc 1 195 16 is_stmt 0
 799 0480 233C0504 		sd	zero,88(a0)
 196:src/kern_threads.cpp ****     t->next_thread=0;
 800              		.loc 1 196 5 is_stmt 1
GAS LISTING /tmp/ccEXcu4d.s 			page 23


 801              		.loc 1 196 19 is_stmt 0
 802 0484 23300506 		sd	zero,96(a0)
 197:src/kern_threads.cpp ****     t->mailbox=0;
 803              		.loc 1 197 5 is_stmt 1
 804              		.loc 1 197 15 is_stmt 0
 805 0488 23340504 		sd	zero,72(a0)
 198:src/kern_threads.cpp ****     kern_scheduler_put(t);
 806              		.loc 1 198 5 is_stmt 1
 807              		.loc 1 198 23 is_stmt 0
 808 048c 97000000 		call	_Z18kern_scheduler_putP8thread_s
 808      E7800000 
 809              	.LVL44:
 199:src/kern_threads.cpp **** 
 200:src/kern_threads.cpp ****     return 0;
 810              		.loc 1 200 5 is_stmt 1
 811              		.loc 1 200 12 is_stmt 0
 812 0494 13050000 		li	a0,0
 813              	.LVL45:
 814              	.L41:
 201:src/kern_threads.cpp **** }
 815              		.loc 1 201 1
 816 0498 83308102 		ld	ra,40(sp)
 817              		.cfi_remember_state
 818              		.cfi_restore 1
 819 049c 03340102 		ld	s0,32(sp)
 820              		.cfi_restore 8
 821              		.cfi_def_cfa 2, 48
 822 04a0 83348101 		ld	s1,24(sp)
 823              		.cfi_restore 9
 824 04a4 03390101 		ld	s2,16(sp)
 825              		.cfi_restore 18
 826              	.LVL46:
 827 04a8 83398100 		ld	s3,8(sp)
 828              		.cfi_restore 19
 829              	.LVL47:
 830 04ac 033A0100 		ld	s4,0(sp)
 831              		.cfi_restore 20
 832              	.LVL48:
 833 04b0 13010103 		addi	sp,sp,48
 834              		.cfi_def_cfa_offset 0
 835 04b4 67800000 		jr	ra
 836              	.LVL49:
 837              	.L42:
 838              		.cfi_restore_state
 183:src/kern_threads.cpp ****     *handle=t;
 839              		.loc 1 183 22
 840 04b8 1305F0FF 		li	a0,-1
 841              	.LVL50:
 842 04bc 6FF0DFFD 		j	.L41
 843              		.cfi_endproc
 844              	.LFE55:
 846              		.align	2
 847              		.globl	_Z16kern_thread_joinP8thread_s
 849              	_Z16kern_thread_joinP8thread_s:
 850              	.LFB56:
 202:src/kern_threads.cpp **** 
 203:src/kern_threads.cpp **** void kern_thread_join(thread_t handle)
GAS LISTING /tmp/ccEXcu4d.s 			page 24


 204:src/kern_threads.cpp **** {
 851              		.loc 1 204 1 is_stmt 1
 852              		.cfi_startproc
 853              	.LVL51:
 205:src/kern_threads.cpp ****     if(handle->status==UNUSED) return;
 854              		.loc 1 205 5
 855              		.loc 1 205 16 is_stmt 0
 856 04c0 83270505 		lw	a5,80(a0)
 857              		.loc 1 205 5
 858 04c4 63940700 		bnez	a5,.L50
 859 04c8 67800000 		ret
 860              	.L50:
 204:src/kern_threads.cpp ****     if(handle->status==UNUSED) return;
 861              		.loc 1 204 1
 862 04cc 130101FD 		addi	sp,sp,-48
 863              		.cfi_def_cfa_offset 48
 864 04d0 23341102 		sd	ra,40(sp)
 865 04d4 23308102 		sd	s0,32(sp)
 866              		.cfi_offset 1, -8
 867              		.cfi_offset 8, -16
 868 04d8 13040103 		addi	s0,sp,48
 869              		.cfi_def_cfa 8, 0
 206:src/kern_threads.cpp ****     running->joined_tid=handle->id;
 870              		.loc 1 206 5 is_stmt 1
 871              		.loc 1 206 14 is_stmt 0
 872 04dc 17070000 		lla	a4,.LANCHOR0
 872      13070700 
 873 04e4 83370701 		ld	a5,16(a4)
 874              		.loc 1 206 33
 875 04e8 83360501 		ld	a3,16(a0)
 876              		.loc 1 206 24
 877 04ec 23B4D702 		sd	a3,40(a5)
 207:src/kern_threads.cpp ****     running->status=JOINED;
 878              		.loc 1 207 5 is_stmt 1
 879              		.loc 1 207 20 is_stmt 0
 880 04f0 93064000 		li	a3,4
 881 04f4 23A8D704 		sw	a3,80(a5)
 208:src/kern_threads.cpp ****     running->next_thread=scheduler.joined_head;
 882              		.loc 1 208 5 is_stmt 1
 883              		.loc 1 208 36 is_stmt 0
 884 04f8 83368702 		ld	a3,40(a4)
 885              		.loc 1 208 25
 886 04fc 23B0D706 		sd	a3,96(a5)
 209:src/kern_threads.cpp ****     scheduler.joined_head=running;
 887              		.loc 1 209 5 is_stmt 1
 888              		.loc 1 209 26 is_stmt 0
 889 0500 2334F702 		sd	a5,40(a4)
 210:src/kern_threads.cpp ****     uint64 volatile sstatus = r_sstatus();
 890              		.loc 1 210 5 is_stmt 1
 891              	.LBB34:
 892              	.LBB35:
 145:src/../h/kern_reg_util.h ****     __asm__ volatile ("csrr %[sstatus], sstatus" : [sstatus] "=r"(sstatus));
 893              		.loc 2 145 5
 146:src/../h/kern_reg_util.h ****     return sstatus;
 894              		.loc 2 146 5
 146:src/../h/kern_reg_util.h ****     return sstatus;
 895              		.loc 2 146 76 is_stmt 0
GAS LISTING /tmp/ccEXcu4d.s 			page 25


 896              	#APP
 897              	# 146 "src/../h/kern_reg_util.h" 1
 898              		csrr a5, sstatus
 899              	# 0 "" 2
 900              	#NO_APP
 901 0508 233CF4FC 		sd	a5,-40(s0)
 147:src/../h/kern_reg_util.h **** }
 902              		.loc 2 147 5 is_stmt 1
 147:src/../h/kern_reg_util.h **** }
 903              		.loc 2 147 12 is_stmt 0
 904 050c 833784FD 		ld	a5,-40(s0)
 905              	.LBE35:
 906              	.LBE34:
 907              		.loc 1 210 41
 908 0510 2334F4FE 		sd	a5,-24(s0)
 211:src/kern_threads.cpp ****     uint64 volatile v_sepc = r_sepc();
 909              		.loc 1 211 5 is_stmt 1
 910              	.LBB36:
 911              	.LBB37:
  77:src/../h/kern_reg_util.h ****     __asm__ volatile ("csrr %[sepc], sepc" : [sepc] "=r"(sepc));
 912              		.loc 2 77 5
  78:src/../h/kern_reg_util.h ****     return sepc;
 913              		.loc 2 78 5
  78:src/../h/kern_reg_util.h ****     return sepc;
 914              		.loc 2 78 64 is_stmt 0
 915              	#APP
 916              	# 78 "src/../h/kern_reg_util.h" 1
 917              		csrr a5, sepc
 918              	# 0 "" 2
 919              	#NO_APP
 920 0518 2338F4FC 		sd	a5,-48(s0)
  79:src/../h/kern_reg_util.h **** }
 921              		.loc 2 79 5 is_stmt 1
  79:src/../h/kern_reg_util.h **** }
 922              		.loc 2 79 12 is_stmt 0
 923 051c 833704FD 		ld	a5,-48(s0)
 924              	.LBE37:
 925              	.LBE36:
 926              		.loc 1 211 37
 927 0520 2330F4FE 		sd	a5,-32(s0)
 212:src/kern_threads.cpp ****     kern_thread_yield();
 928              		.loc 1 212 5 is_stmt 1
 929              		.loc 1 212 22 is_stmt 0
 930 0524 97000000 		call	_Z17kern_thread_yieldv
 930      E7800000 
 931              	.LVL52:
 213:src/kern_threads.cpp ****     w_sstatus(sstatus);
 932              		.loc 1 213 5 is_stmt 1
 933              		.loc 1 213 14 is_stmt 0
 934 052c 833784FE 		ld	a5,-24(s0)
 935              	.LVL53:
 936              	.LBB38:
 937              	.LBB39:
 152:src/../h/kern_reg_util.h **** }
 938              		.loc 2 152 5 is_stmt 1
 152:src/../h/kern_reg_util.h **** }
 939              		.loc 2 152 77 is_stmt 0
GAS LISTING /tmp/ccEXcu4d.s 			page 26


 940              	#APP
 941              	# 152 "src/../h/kern_reg_util.h" 1
 942              		csrw sstatus, a5
 943              	# 0 "" 2
 944              	.LVL54:
 945              	#NO_APP
 946              	.LBE39:
 947              	.LBE38:
 214:src/kern_threads.cpp ****     w_sepc(v_sepc);
 948              		.loc 1 214 5 is_stmt 1
 949              		.loc 1 214 11 is_stmt 0
 950 0534 833704FE 		ld	a5,-32(s0)
 951              	.LVL55:
 952              	.LBB40:
 953              	.LBB41:
  84:src/../h/kern_reg_util.h **** }
 954              		.loc 2 84 5 is_stmt 1
  84:src/../h/kern_reg_util.h **** }
 955              		.loc 2 84 65 is_stmt 0
 956              	#APP
 957              	# 84 "src/../h/kern_reg_util.h" 1
 958              		csrw sepc, a5
 959              	# 0 "" 2
 960              	.LVL56:
 961              	#NO_APP
 962              	.LBE41:
 963              	.LBE40:
 215:src/kern_threads.cpp **** }
 964              		.loc 1 215 1
 965 053c 83308102 		ld	ra,40(sp)
 966              		.cfi_restore 1
 967 0540 03340102 		ld	s0,32(sp)
 968              		.cfi_restore 8
 969              		.cfi_def_cfa 2, 48
 970 0544 13010103 		addi	sp,sp,48
 971              		.cfi_def_cfa_offset 0
 972 0548 67800000 		jr	ra
 973              		.cfi_endproc
 974              	.LFE56:
 976              		.align	2
 977              		.globl	_Z18kern_thread_wakeupm
 979              	_Z18kern_thread_wakeupm:
 980              	.LFB57:
 216:src/kern_threads.cpp **** 
 217:src/kern_threads.cpp **** void kern_thread_wakeup(uint64 system_time)
 218:src/kern_threads.cpp **** {
 981              		.loc 1 218 1 is_stmt 1
 982              		.cfi_startproc
 983              	.LVL57:
 984 054c 130101FD 		addi	sp,sp,-48
 985              		.cfi_def_cfa_offset 48
 986 0550 23341102 		sd	ra,40(sp)
 987 0554 23308102 		sd	s0,32(sp)
 988 0558 233C9100 		sd	s1,24(sp)
 989 055c 23382101 		sd	s2,16(sp)
 990 0560 23343101 		sd	s3,8(sp)
 991              		.cfi_offset 1, -8
GAS LISTING /tmp/ccEXcu4d.s 			page 27


 992              		.cfi_offset 8, -16
 993              		.cfi_offset 9, -24
 994              		.cfi_offset 18, -32
 995              		.cfi_offset 19, -40
 996 0564 13040103 		addi	s0,sp,48
 997              		.cfi_def_cfa 8, 0
 998 0568 93090500 		mv	s3,a0
 219:src/kern_threads.cpp ****     thread_t curr = scheduler.sleeping_head;
 999              		.loc 1 219 5
 1000              		.loc 1 219 14 is_stmt 0
 1001 056c 17050000 		ld	a0,.LANCHOR0+48
 1001      03350500 
 1002              	.LVL58:
 220:src/kern_threads.cpp ****     thread_t prev = 0;
 1003              		.loc 1 220 5 is_stmt 1
 221:src/kern_threads.cpp ****     thread_t next = 0;
 1004              		.loc 1 221 5
 220:src/kern_threads.cpp ****     thread_t prev = 0;
 1005              		.loc 1 220 14 is_stmt 0
 1006 0574 13090000 		li	s2,0
 1007 0578 6F00C000 		j	.L52
 1008              	.LVL59:
 1009              	.L57:
 222:src/kern_threads.cpp ****     while (curr!=0){
 223:src/kern_threads.cpp ****         next=curr->next_thread;
 224:src/kern_threads.cpp ****         if(curr->endTime<=system_time){
 225:src/kern_threads.cpp ****             if(prev!=0){
 226:src/kern_threads.cpp ****                 prev->next_thread=curr->next_thread;
 227:src/kern_threads.cpp ****             } else{
 228:src/kern_threads.cpp ****                 scheduler.sleeping_head=curr->next_thread;
 229:src/kern_threads.cpp ****             }
 230:src/kern_threads.cpp ****             kern_scheduler_put(curr);
 231:src/kern_threads.cpp ****         } else{
 232:src/kern_threads.cpp ****             prev=curr;
 1010              		.loc 1 232 17
 1011 057c 13090500 		mv	s2,a0
 1012              	.LVL60:
 1013              	.L54:
 1014 0580 13850400 		mv	a0,s1
 1015              	.LVL61:
 1016              	.L52:
 222:src/kern_threads.cpp ****     while (curr!=0){
 1017              		.loc 1 222 5 is_stmt 1
 222:src/kern_threads.cpp ****     while (curr!=0){
 1018              		.loc 1 222 16
 1019 0584 63080502 		beqz	a0,.L51
 223:src/kern_threads.cpp ****         if(curr->endTime<=system_time){
 1020              		.loc 1 223 9
 223:src/kern_threads.cpp ****         if(curr->endTime<=system_time){
 1021              		.loc 1 223 13 is_stmt 0
 1022 0588 83340506 		ld	s1,96(a0)
 1023              	.LVL62:
 224:src/kern_threads.cpp ****             if(prev!=0){
 1024              		.loc 1 224 9 is_stmt 1
 224:src/kern_threads.cpp ****             if(prev!=0){
 1025              		.loc 1 224 18 is_stmt 0
 1026 058c 83378503 		ld	a5,56(a0)
GAS LISTING /tmp/ccEXcu4d.s 			page 28


 224:src/kern_threads.cpp ****             if(prev!=0){
 1027              		.loc 1 224 9
 1028 0590 E3E6F9FE 		bgtu	a5,s3,.L57
 225:src/kern_threads.cpp ****                 prev->next_thread=curr->next_thread;
 1029              		.loc 1 225 13 is_stmt 1
 1030 0594 630A0900 		beqz	s2,.L55
 226:src/kern_threads.cpp ****             } else{
 1031              		.loc 1 226 17
 226:src/kern_threads.cpp ****             } else{
 1032              		.loc 1 226 34 is_stmt 0
 1033 0598 23309906 		sd	s1,96(s2)
 1034              	.L56:
 230:src/kern_threads.cpp ****         } else{
 1035              		.loc 1 230 13 is_stmt 1
 230:src/kern_threads.cpp ****         } else{
 1036              		.loc 1 230 31 is_stmt 0
 1037 059c 97000000 		call	_Z18kern_scheduler_putP8thread_s
 1037      E7800000 
 1038              	.LVL63:
 1039 05a4 6FF0DFFD 		j	.L54
 1040              	.LVL64:
 1041              	.L55:
 228:src/kern_threads.cpp ****             }
 1042              		.loc 1 228 17 is_stmt 1
 228:src/kern_threads.cpp ****             }
 1043              		.loc 1 228 40 is_stmt 0
 1044 05a8 97070000 		sd	s1,.LANCHOR0+48,a5
 1044      23B09700 
 1045 05b0 6FF0DFFE 		j	.L56
 1046              	.LVL65:
 1047              	.L51:
 233:src/kern_threads.cpp ****         }
 234:src/kern_threads.cpp ****         curr=next;
 235:src/kern_threads.cpp ****     }
 236:src/kern_threads.cpp **** 
 237:src/kern_threads.cpp **** }
 1048              		.loc 1 237 1
 1049 05b4 83308102 		ld	ra,40(sp)
 1050              		.cfi_restore 1
 1051 05b8 03340102 		ld	s0,32(sp)
 1052              		.cfi_restore 8
 1053              		.cfi_def_cfa 2, 48
 1054 05bc 83348101 		ld	s1,24(sp)
 1055              		.cfi_restore 9
 1056 05c0 03390101 		ld	s2,16(sp)
 1057              		.cfi_restore 18
 1058              	.LVL66:
 1059 05c4 83398100 		ld	s3,8(sp)
 1060              		.cfi_restore 19
 1061              	.LVL67:
 1062 05c8 13010103 		addi	sp,sp,48
 1063              		.cfi_def_cfa_offset 0
 1064 05cc 67800000 		jr	ra
 1065              		.cfi_endproc
 1066              	.LFE57:
 1068              		.align	2
 1069              		.globl	_Z17kern_thread_sleepm
GAS LISTING /tmp/ccEXcu4d.s 			page 29


 1071              	_Z17kern_thread_sleepm:
 1072              	.LFB58:
 238:src/kern_threads.cpp **** 
 239:src/kern_threads.cpp **** void kern_thread_sleep(uint64 wakeTime)
 240:src/kern_threads.cpp **** {
 1073              		.loc 1 240 1 is_stmt 1
 1074              		.cfi_startproc
 1075              	.LVL68:
 1076 05d0 130101FD 		addi	sp,sp,-48
 1077              		.cfi_def_cfa_offset 48
 1078 05d4 23341102 		sd	ra,40(sp)
 1079 05d8 23308102 		sd	s0,32(sp)
 1080              		.cfi_offset 1, -8
 1081              		.cfi_offset 8, -16
 1082 05dc 13040103 		addi	s0,sp,48
 1083              		.cfi_def_cfa 8, 0
 241:src/kern_threads.cpp ****     running->status=SLEEPING;
 1084              		.loc 1 241 5
 1085              		.loc 1 241 14 is_stmt 0
 1086 05e0 17070000 		lla	a4,.LANCHOR0
 1086      13070700 
 1087 05e8 83370701 		ld	a5,16(a4)
 1088              		.loc 1 241 20
 1089 05ec 93065000 		li	a3,5
 1090 05f0 23A8D704 		sw	a3,80(a5)
 242:src/kern_threads.cpp ****     running->endTime=wakeTime;
 1091              		.loc 1 242 5 is_stmt 1
 1092              		.loc 1 242 21 is_stmt 0
 1093 05f4 23BCA702 		sd	a0,56(a5)
 243:src/kern_threads.cpp ****     running->next_thread=scheduler.sleeping_head;
 1094              		.loc 1 243 5 is_stmt 1
 1095              		.loc 1 243 36 is_stmt 0
 1096 05f8 83360703 		ld	a3,48(a4)
 1097              		.loc 1 243 25
 1098 05fc 23B0D706 		sd	a3,96(a5)
 244:src/kern_threads.cpp ****     scheduler.sleeping_head=running;
 1099              		.loc 1 244 5 is_stmt 1
 1100              		.loc 1 244 28 is_stmt 0
 1101 0600 2338F702 		sd	a5,48(a4)
 245:src/kern_threads.cpp ****     uint64 volatile sstatus = r_sstatus();
 1102              		.loc 1 245 5 is_stmt 1
 1103              	.LBB42:
 1104              	.LBB43:
 145:src/../h/kern_reg_util.h ****     __asm__ volatile ("csrr %[sstatus], sstatus" : [sstatus] "=r"(sstatus));
 1105              		.loc 2 145 5
 146:src/../h/kern_reg_util.h ****     return sstatus;
 1106              		.loc 2 146 5
 146:src/../h/kern_reg_util.h ****     return sstatus;
 1107              		.loc 2 146 76 is_stmt 0
 1108              	#APP
 1109              	# 146 "src/../h/kern_reg_util.h" 1
 1110              		csrr a5, sstatus
 1111              	# 0 "" 2
 1112              	#NO_APP
 1113 0608 233CF4FC 		sd	a5,-40(s0)
 147:src/../h/kern_reg_util.h **** }
 1114              		.loc 2 147 5 is_stmt 1
GAS LISTING /tmp/ccEXcu4d.s 			page 30


 147:src/../h/kern_reg_util.h **** }
 1115              		.loc 2 147 12 is_stmt 0
 1116 060c 833784FD 		ld	a5,-40(s0)
 1117              	.LBE43:
 1118              	.LBE42:
 1119              		.loc 1 245 41
 1120 0610 2334F4FE 		sd	a5,-24(s0)
 246:src/kern_threads.cpp ****     uint64 volatile v_sepc = r_sepc();
 1121              		.loc 1 246 5 is_stmt 1
 1122              	.LBB44:
 1123              	.LBB45:
  77:src/../h/kern_reg_util.h ****     __asm__ volatile ("csrr %[sepc], sepc" : [sepc] "=r"(sepc));
 1124              		.loc 2 77 5
  78:src/../h/kern_reg_util.h ****     return sepc;
 1125              		.loc 2 78 5
  78:src/../h/kern_reg_util.h ****     return sepc;
 1126              		.loc 2 78 64 is_stmt 0
 1127              	#APP
 1128              	# 78 "src/../h/kern_reg_util.h" 1
 1129              		csrr a5, sepc
 1130              	# 0 "" 2
 1131              	#NO_APP
 1132 0618 2338F4FC 		sd	a5,-48(s0)
  79:src/../h/kern_reg_util.h **** }
 1133              		.loc 2 79 5 is_stmt 1
  79:src/../h/kern_reg_util.h **** }
 1134              		.loc 2 79 12 is_stmt 0
 1135 061c 833704FD 		ld	a5,-48(s0)
 1136              	.LBE45:
 1137              	.LBE44:
 1138              		.loc 1 246 37
 1139 0620 2330F4FE 		sd	a5,-32(s0)
 247:src/kern_threads.cpp ****     kern_thread_yield();
 1140              		.loc 1 247 5 is_stmt 1
 1141              		.loc 1 247 22 is_stmt 0
 1142 0624 97000000 		call	_Z17kern_thread_yieldv
 1142      E7800000 
 1143              	.LVL69:
 248:src/kern_threads.cpp ****     w_sstatus(sstatus);
 1144              		.loc 1 248 5 is_stmt 1
 1145              		.loc 1 248 14 is_stmt 0
 1146 062c 833784FE 		ld	a5,-24(s0)
 1147              	.LVL70:
 1148              	.LBB46:
 1149              	.LBB47:
 152:src/../h/kern_reg_util.h **** }
 1150              		.loc 2 152 5 is_stmt 1
 152:src/../h/kern_reg_util.h **** }
 1151              		.loc 2 152 77 is_stmt 0
 1152              	#APP
 1153              	# 152 "src/../h/kern_reg_util.h" 1
 1154              		csrw sstatus, a5
 1155              	# 0 "" 2
 1156              	.LVL71:
 1157              	#NO_APP
 1158              	.LBE47:
 1159              	.LBE46:
GAS LISTING /tmp/ccEXcu4d.s 			page 31


 249:src/kern_threads.cpp ****     w_sepc(v_sepc);
 1160              		.loc 1 249 5 is_stmt 1
 1161              		.loc 1 249 11 is_stmt 0
 1162 0634 833704FE 		ld	a5,-32(s0)
 1163              	.LVL72:
 1164              	.LBB48:
 1165              	.LBB49:
  84:src/../h/kern_reg_util.h **** }
 1166              		.loc 2 84 5 is_stmt 1
  84:src/../h/kern_reg_util.h **** }
 1167              		.loc 2 84 65 is_stmt 0
 1168              	#APP
 1169              	# 84 "src/../h/kern_reg_util.h" 1
 1170              		csrw sepc, a5
 1171              	# 0 "" 2
 1172              	.LVL73:
 1173              	#NO_APP
 1174              	.LBE49:
 1175              	.LBE48:
 250:src/kern_threads.cpp **** }
 1176              		.loc 1 250 1
 1177 063c 83308102 		ld	ra,40(sp)
 1178              		.cfi_restore 1
 1179 0640 03340102 		ld	s0,32(sp)
 1180              		.cfi_restore 8
 1181              		.cfi_def_cfa 2, 48
 1182 0644 13010103 		addi	sp,sp,48
 1183              		.cfi_def_cfa_offset 0
 1184 0648 67800000 		jr	ra
 1185              		.cfi_endproc
 1186              	.LFE58:
 1188              		.globl	running
 1189              		.globl	threads_cache
 1190              		.bss
 1191              		.align	3
 1192              		.set	.LANCHOR0,. + 0
 1195              	threads_cache:
 1196 0000 00000000 		.zero	8
 1196      00000000 
 1199              	_ZL2id:
 1200 0008 00000000 		.zero	4
 1201 000c 00000000 		.zero	4
 1204              	running:
 1205 0010 00000000 		.zero	8
 1205      00000000 
 1208              	scheduler:
 1209 0018 00000000 		.zero	32
 1209      00000000 
 1209      00000000 
 1209      00000000 
 1209      00000000 
 1210              		.text
 1211              	.Letext0:
 1212              		.file 3 "src/../h/../lib/hw.h"
 1213              		.file 4 "src/../h/kern_threads.hpp"
 1214              		.file 5 "/usr/riscv64-linux-gnu/include/c++/9/bits/std_abs.h"
 1215              		.file 6 "/usr/riscv64-linux-gnu/include/c++/9/cstdlib"
GAS LISTING /tmp/ccEXcu4d.s 			page 32


 1216              		.file 7 "/usr/riscv64-linux-gnu/include/c++/9/riscv64-linux-gnu/bits/c++config.h"
 1217              		.file 8 "/usr/riscv64-linux-gnu/include/stdlib.h"
 1218              		.file 9 "/usr/riscv64-linux-gnu/include/bits/stdlib-float.h"
 1219              		.file 10 "/usr/riscv64-linux-gnu/include/bits/stdlib-bsearch.h"
 1220              		.file 11 "/usr/riscv64-linux-gnu/include/bits/stdlib.h"
 1221              		.file 12 "/usr/riscv64-linux-gnu/include/c++/9/stdlib.h"
 1222              		.file 13 "src/../h/kern_slab.hpp"
 1223              		.file 14 "src/../h/syscall_c.h"
 1224              		.file 15 "src/../h/kern_memory.hpp"
 1225              		.file 16 "<built-in>"
GAS LISTING /tmp/ccEXcu4d.s 			page 33


DEFINED SYMBOLS
                            *ABS*:0000000000000000 kern_threads.cpp
     /tmp/ccEXcu4d.s:9      .text:0000000000000000 _Z16kern_thread_ctorPv
     /tmp/ccEXcu4d.s:13     .text:0000000000000000 .L0 
     /tmp/ccEXcu4d.s:15     .text:0000000000000000 .L0 
     /tmp/ccEXcu4d.s:16     .text:0000000000000004 .L0 
     /tmp/ccEXcu4d.s:18     .text:0000000000000008 .L0 
     /tmp/ccEXcu4d.s:20     .text:000000000000000c .L0 
     /tmp/ccEXcu4d.s:23     .text:000000000000000c .L0 
     /tmp/ccEXcu4d.s:24     .text:000000000000000c .L0 
     /tmp/ccEXcu4d.s:25     .text:000000000000000c .L0 
     /tmp/ccEXcu4d.s:27     .text:0000000000000010 .L0 
     /tmp/ccEXcu4d.s:28     .text:0000000000000010 .L0 
     /tmp/ccEXcu4d.s:30     .text:0000000000000014 .L0 
     /tmp/ccEXcu4d.s:31     .text:0000000000000014 .L0 
     /tmp/ccEXcu4d.s:33     .text:0000000000000018 .L0 
     /tmp/ccEXcu4d.s:34     .text:0000000000000018 .L0 
     /tmp/ccEXcu4d.s:37     .text:0000000000000020 .L0 
     /tmp/ccEXcu4d.s:38     .text:0000000000000020 .L0 
     /tmp/ccEXcu4d.s:41     .text:0000000000000028 .L0 
     /tmp/ccEXcu4d.s:42     .text:0000000000000028 .L0 
     /tmp/ccEXcu4d.s:44     .text:000000000000002c .L0 
     /tmp/ccEXcu4d.s:45     .text:000000000000002c .L0 
     /tmp/ccEXcu4d.s:46     .text:000000000000002c .L0 
     /tmp/ccEXcu4d.s:48     .text:0000000000000030 .L0 
     /tmp/ccEXcu4d.s:49     .text:0000000000000030 .L0 
     /tmp/ccEXcu4d.s:51     .text:0000000000000034 .L0 
     /tmp/ccEXcu4d.s:52     .text:0000000000000034 .L0 
     /tmp/ccEXcu4d.s:54     .text:0000000000000038 .L0 
     /tmp/ccEXcu4d.s:55     .text:0000000000000038 .L0 
     /tmp/ccEXcu4d.s:57     .text:000000000000003c .L0 
     /tmp/ccEXcu4d.s:58     .text:000000000000003c .L0 
     /tmp/ccEXcu4d.s:60     .text:0000000000000040 .L0 
     /tmp/ccEXcu4d.s:61     .text:0000000000000044 .L0 
     /tmp/ccEXcu4d.s:62     .text:0000000000000044 .L0 
     /tmp/ccEXcu4d.s:64     .text:0000000000000048 .L0 
     /tmp/ccEXcu4d.s:66     .text:000000000000004c .L0 
     /tmp/ccEXcu4d.s:77     .text:000000000000004c _Z16kern_thread_initv
     /tmp/ccEXcu4d.s:80     .text:000000000000004c .L0 
     /tmp/ccEXcu4d.s:81     .text:000000000000004c .L0 
     /tmp/ccEXcu4d.s:82     .text:0000000000000050 .L0 
     /tmp/ccEXcu4d.s:86     .text:000000000000005c .L0 
     /tmp/ccEXcu4d.s:87     .text:000000000000005c .L0 
     /tmp/ccEXcu4d.s:88     .text:000000000000005c .L0 
     /tmp/ccEXcu4d.s:90     .text:0000000000000060 .L0 
     /tmp/ccEXcu4d.s:92     .text:0000000000000060 .L0 
     /tmp/ccEXcu4d.s:93     .text:0000000000000060 .L0 
     /tmp/ccEXcu4d.s:100    .text:0000000000000080 .L0 
     /tmp/ccEXcu4d.s:103    .text:000000000000008c .L0 
     /tmp/ccEXcu4d.s:104    .text:000000000000008c .L0 
     /tmp/ccEXcu4d.s:106    .text:0000000000000090 .L0 
     /tmp/ccEXcu4d.s:107    .text:0000000000000090 .L0 
     /tmp/ccEXcu4d.s:110    .text:0000000000000098 .L0 
     /tmp/ccEXcu4d.s:111    .text:0000000000000098 .L0 
     /tmp/ccEXcu4d.s:114    .text:00000000000000a0 .L0 
     /tmp/ccEXcu4d.s:115    .text:00000000000000a0 .L0 
     /tmp/ccEXcu4d.s:117    .text:00000000000000a4 .L0 
GAS LISTING /tmp/ccEXcu4d.s 			page 34


     /tmp/ccEXcu4d.s:118    .text:00000000000000a4 .L0 
     /tmp/ccEXcu4d.s:121    .text:00000000000000ac .L0 
     /tmp/ccEXcu4d.s:122    .text:00000000000000ac .L0 
     /tmp/ccEXcu4d.s:124    .text:00000000000000b0 .L0 
     /tmp/ccEXcu4d.s:125    .text:00000000000000b0 .L0 
     /tmp/ccEXcu4d.s:127    .text:00000000000000b4 .L0 
     /tmp/ccEXcu4d.s:128    .text:00000000000000b4 .L0 
     /tmp/ccEXcu4d.s:130    .text:00000000000000b8 .L0 
     /tmp/ccEXcu4d.s:131    .text:00000000000000b8 .L0 
     /tmp/ccEXcu4d.s:133    .text:00000000000000bc .L0 
     /tmp/ccEXcu4d.s:134    .text:00000000000000bc .L0 
     /tmp/ccEXcu4d.s:136    .text:00000000000000c0 .L0 
     /tmp/ccEXcu4d.s:137    .text:00000000000000c0 .L0 
     /tmp/ccEXcu4d.s:139    .text:00000000000000c4 .L0 
     /tmp/ccEXcu4d.s:140    .text:00000000000000c4 .L0 
     /tmp/ccEXcu4d.s:142    .text:00000000000000c8 .L0 
     /tmp/ccEXcu4d.s:143    .text:00000000000000cc .L0 
     /tmp/ccEXcu4d.s:145    .text:00000000000000d0 .L0 
     /tmp/ccEXcu4d.s:146    .text:00000000000000d0 .L0 
     /tmp/ccEXcu4d.s:148    .text:00000000000000d4 .L0 
     /tmp/ccEXcu4d.s:150    .text:00000000000000d8 .L0 
     /tmp/ccEXcu4d.s:152    .text:00000000000000dc .L0 
     /tmp/ccEXcu4d.s:158    .text:00000000000000dc _Z18kern_scheduler_putP8thread_s
     /tmp/ccEXcu4d.s:161    .text:00000000000000dc .L0 
     /tmp/ccEXcu4d.s:163    .text:00000000000000dc .L0 
     /tmp/ccEXcu4d.s:164    .text:00000000000000e0 .L0 
     /tmp/ccEXcu4d.s:166    .text:00000000000000e4 .L0 
     /tmp/ccEXcu4d.s:168    .text:00000000000000e8 .L0 
     /tmp/ccEXcu4d.s:170    .text:00000000000000e8 .L0 
     /tmp/ccEXcu4d.s:171    .text:00000000000000e8 .L0 
     /tmp/ccEXcu4d.s:174    .text:00000000000000f0 .L0 
     /tmp/ccEXcu4d.s:175    .text:00000000000000f0 .L0 
     /tmp/ccEXcu4d.s:177    .text:00000000000000f8 .L0 
     /tmp/ccEXcu4d.s:179    .text:00000000000000fc .L0 
     /tmp/ccEXcu4d.s:180    .text:00000000000000fc .L0 
     /tmp/ccEXcu4d.s:182    .text:0000000000000100 .L0 
     /tmp/ccEXcu4d.s:183    .text:0000000000000100 .L0 
     /tmp/ccEXcu4d.s:186    .text:0000000000000108 .L0 
     /tmp/ccEXcu4d.s:187    .text:0000000000000108 .L0 
     /tmp/ccEXcu4d.s:189    .text:000000000000010c .L0 
     /tmp/ccEXcu4d.s:190    .text:0000000000000110 .L0 
     /tmp/ccEXcu4d.s:191    .text:0000000000000110 .L0 
     /tmp/ccEXcu4d.s:192    .text:0000000000000110 .L0 
     /tmp/ccEXcu4d.s:194    .text:0000000000000114 .L0 
     /tmp/ccEXcu4d.s:197    .text:0000000000000118 .L0 
     /tmp/ccEXcu4d.s:199    .text:0000000000000118 .L0 
     /tmp/ccEXcu4d.s:200    .text:0000000000000118 .L0 
     /tmp/ccEXcu4d.s:203    .text:0000000000000124 .L0 
     /tmp/ccEXcu4d.s:204    .text:0000000000000124 .L0 
     /tmp/ccEXcu4d.s:206    .text:000000000000012c .L0 
     /tmp/ccEXcu4d.s:212    .text:000000000000012c _Z18kern_scheduler_getv
     /tmp/ccEXcu4d.s:215    .text:000000000000012c .L0 
     /tmp/ccEXcu4d.s:216    .text:000000000000012c .L0 
     /tmp/ccEXcu4d.s:217    .text:0000000000000130 .L0 
     /tmp/ccEXcu4d.s:219    .text:0000000000000134 .L0 
     /tmp/ccEXcu4d.s:221    .text:0000000000000138 .L0 
     /tmp/ccEXcu4d.s:223    .text:0000000000000138 .L0 
GAS LISTING /tmp/ccEXcu4d.s 			page 35


     /tmp/ccEXcu4d.s:224    .text:0000000000000138 .L0 
     /tmp/ccEXcu4d.s:226    .text:0000000000000140 .L0 
     /tmp/ccEXcu4d.s:229    .text:0000000000000144 .L0 
     /tmp/ccEXcu4d.s:230    .text:0000000000000144 .L0 
     /tmp/ccEXcu4d.s:231    .text:0000000000000144 .L0 
     /tmp/ccEXcu4d.s:233    .text:0000000000000148 .L0 
     /tmp/ccEXcu4d.s:236    .text:0000000000000154 .L0 
     /tmp/ccEXcu4d.s:237    .text:0000000000000154 .L0 
     /tmp/ccEXcu4d.s:239    .text:0000000000000158 .L0 
     /tmp/ccEXcu4d.s:242    .text:000000000000015c .L0 
     /tmp/ccEXcu4d.s:243    .text:000000000000015c .L0 
     /tmp/ccEXcu4d.s:247    .text:0000000000000160 .L0 
     /tmp/ccEXcu4d.s:248    .text:0000000000000160 .L0 
     /tmp/ccEXcu4d.s:249    .text:0000000000000164 .L0 
     /tmp/ccEXcu4d.s:250    .text:0000000000000164 .L0 
     /tmp/ccEXcu4d.s:251    .text:0000000000000164 .L0 
     /tmp/ccEXcu4d.s:253    .text:0000000000000168 .L0 
     /tmp/ccEXcu4d.s:257    .text:000000000000016c .L0 
     /tmp/ccEXcu4d.s:259    .text:000000000000016c .L0 
     /tmp/ccEXcu4d.s:260    .text:000000000000016c .L0 
     /tmp/ccEXcu4d.s:262    .text:0000000000000178 .L0 
     /tmp/ccEXcu4d.s:268    .text:0000000000000178 _Z10popSppSpiev
     /tmp/ccEXcu4d.s:271    .text:0000000000000178 .L0 
     /tmp/ccEXcu4d.s:272    .text:0000000000000178 .L0 
     /tmp/ccEXcu4d.s:273    .text:000000000000017c .L0 
     /tmp/ccEXcu4d.s:275    .text:0000000000000180 .L0 
     /tmp/ccEXcu4d.s:277    .text:0000000000000184 .L0 
     /tmp/ccEXcu4d.s:279    .text:0000000000000184 .L0 
src/kern_threads.cpp:104    .text:0000000000000184 .L0 
     /tmp/ccEXcu4d.s:285    .text:0000000000000188 .L0 
     /tmp/ccEXcu4d.s:287    .text:0000000000000188 .L0 
     /tmp/ccEXcu4d.s:293    .text:0000000000000190 .L0 
src/kern_threads.cpp:106    .text:0000000000000190 .L0 
     /tmp/ccEXcu4d.s:299    .text:0000000000000194 .L0 
     /tmp/ccEXcu4d.s:300    .text:0000000000000198 .L0 
     /tmp/ccEXcu4d.s:301    .text:0000000000000198 .L0 
     /tmp/ccEXcu4d.s:303    .text:000000000000019c .L0 
     /tmp/ccEXcu4d.s:305    .text:00000000000001a0 .L0 
     /tmp/ccEXcu4d.s:311    .text:00000000000001a0 _Z19kern_thread_wrapperv
     /tmp/ccEXcu4d.s:314    .text:00000000000001a0 .L0 
     /tmp/ccEXcu4d.s:315    .text:00000000000001a0 .L0 
     /tmp/ccEXcu4d.s:316    .text:00000000000001a4 .L0 
     /tmp/ccEXcu4d.s:319    .text:00000000000001ac .L0 
     /tmp/ccEXcu4d.s:320    .text:00000000000001ac .L0 
     /tmp/ccEXcu4d.s:322    .text:00000000000001b0 .L0 
     /tmp/ccEXcu4d.s:324    .text:00000000000001b0 .L0 
     /tmp/ccEXcu4d.s:325    .text:00000000000001b0 .L0 
     /tmp/ccEXcu4d.s:328    .text:00000000000001b8 .L0 
     /tmp/ccEXcu4d.s:329    .text:00000000000001b8 .L0 
     /tmp/ccEXcu4d.s:332    .text:00000000000001c4 .L0 
     /tmp/ccEXcu4d.s:336    .text:00000000000001cc .L0 
     /tmp/ccEXcu4d.s:337    .text:00000000000001cc .L0 
     /tmp/ccEXcu4d.s:340    .text:00000000000001d4 .L0 
     /tmp/ccEXcu4d.s:341    .text:00000000000001d8 .L0 
     /tmp/ccEXcu4d.s:343    .text:00000000000001dc .L0 
     /tmp/ccEXcu4d.s:344    .text:00000000000001dc .L0 
     /tmp/ccEXcu4d.s:346    .text:00000000000001e0 .L0 
GAS LISTING /tmp/ccEXcu4d.s 			page 36


     /tmp/ccEXcu4d.s:348    .text:00000000000001e4 .L0 
     /tmp/ccEXcu4d.s:354    .text:00000000000001e4 _Z17kern_thread_yieldv
     /tmp/ccEXcu4d.s:357    .text:00000000000001e4 .L0 
     /tmp/ccEXcu4d.s:358    .text:00000000000001e4 .L0 
     /tmp/ccEXcu4d.s:359    .text:00000000000001e8 .L0 
     /tmp/ccEXcu4d.s:364    .text:00000000000001f8 .L0 
     /tmp/ccEXcu4d.s:365    .text:00000000000001f8 .L0 
     /tmp/ccEXcu4d.s:366    .text:00000000000001f8 .L0 
     /tmp/ccEXcu4d.s:367    .text:00000000000001f8 .L0 
     /tmp/ccEXcu4d.s:369    .text:00000000000001fc .L0 
     /tmp/ccEXcu4d.s:371    .text:00000000000001fc .L0 
     /tmp/ccEXcu4d.s:372    .text:00000000000001fc .L0 
     /tmp/ccEXcu4d.s:376    .text:0000000000000208 .L0 
     /tmp/ccEXcu4d.s:377    .text:0000000000000208 .L0 
     /tmp/ccEXcu4d.s:380    .text:0000000000000210 .L0 
     /tmp/ccEXcu4d.s:382    .text:0000000000000214 .L0 
     /tmp/ccEXcu4d.s:385    .text:000000000000021c .L0 
     /tmp/ccEXcu4d.s:386    .text:000000000000021c .L0 
     /tmp/ccEXcu4d.s:389    .text:0000000000000224 .L0 
     /tmp/ccEXcu4d.s:390    .text:0000000000000224 .L0 
     /tmp/ccEXcu4d.s:392    .text:0000000000000228 .L0 
     /tmp/ccEXcu4d.s:396    .text:0000000000000230 .L0 
     /tmp/ccEXcu4d.s:397    .text:0000000000000230 .L0 
     /tmp/ccEXcu4d.s:402    .text:000000000000023c .L0 
     /tmp/ccEXcu4d.s:403    .text:0000000000000240 .L0 
     /tmp/ccEXcu4d.s:404    .text:0000000000000240 .L0 
     /tmp/ccEXcu4d.s:406    .text:0000000000000244 .L0 
     /tmp/ccEXcu4d.s:407    .text:0000000000000244 .L0 
     /tmp/ccEXcu4d.s:409    .text:0000000000000248 .L0 
     /tmp/ccEXcu4d.s:412    .text:000000000000024c .L0 
     /tmp/ccEXcu4d.s:414    .text:0000000000000250 .L0 
     /tmp/ccEXcu4d.s:418    .text:0000000000000254 .L0 
     /tmp/ccEXcu4d.s:420    .text:0000000000000254 .L0 
     /tmp/ccEXcu4d.s:421    .text:0000000000000254 .L0 
     /tmp/ccEXcu4d.s:426    .text:0000000000000260 .L0 
     /tmp/ccEXcu4d.s:427    .text:0000000000000260 .L0 
     /tmp/ccEXcu4d.s:430    .text:0000000000000268 .L0 
     /tmp/ccEXcu4d.s:431    .text:000000000000026c .L0 
     /tmp/ccEXcu4d.s:437    .text:000000000000026c _Z20kern_thread_dispatchv
     /tmp/ccEXcu4d.s:440    .text:000000000000026c .L0 
     /tmp/ccEXcu4d.s:441    .text:000000000000026c .L0 
     /tmp/ccEXcu4d.s:442    .text:0000000000000270 .L0 
     /tmp/ccEXcu4d.s:445    .text:0000000000000278 .L0 
     /tmp/ccEXcu4d.s:446    .text:0000000000000278 .L0 
     /tmp/ccEXcu4d.s:448    .text:000000000000027c .L0 
     /tmp/ccEXcu4d.s:450    .text:000000000000027c .L0 
     /tmp/ccEXcu4d.s:451    .text:000000000000027c .L0 
     /tmp/ccEXcu4d.s:458    .text:000000000000028c .L0 
     /tmp/ccEXcu4d.s:459    .text:000000000000028c .L0 
     /tmp/ccEXcu4d.s:460    .text:000000000000028c .L0 
src/../h/kern_reg_util.h:146    .text:000000000000028c .L0 
     /tmp/ccEXcu4d.s:468    .text:0000000000000294 .L0 
     /tmp/ccEXcu4d.s:469    .text:0000000000000294 .L0 
     /tmp/ccEXcu4d.s:473    .text:0000000000000298 .L0 
     /tmp/ccEXcu4d.s:477    .text:000000000000029c .L0 
     /tmp/ccEXcu4d.s:478    .text:000000000000029c .L0 
     /tmp/ccEXcu4d.s:479    .text:000000000000029c .L0 
GAS LISTING /tmp/ccEXcu4d.s 			page 37


src/../h/kern_reg_util.h:78     .text:000000000000029c .L0 
     /tmp/ccEXcu4d.s:487    .text:00000000000002a4 .L0 
     /tmp/ccEXcu4d.s:488    .text:00000000000002a4 .L0 
     /tmp/ccEXcu4d.s:492    .text:00000000000002a8 .L0 
     /tmp/ccEXcu4d.s:494    .text:00000000000002ac .L0 
     /tmp/ccEXcu4d.s:495    .text:00000000000002ac .L0 
     /tmp/ccEXcu4d.s:498    .text:00000000000002b4 .L0 
     /tmp/ccEXcu4d.s:499    .text:00000000000002b4 .L0 
     /tmp/ccEXcu4d.s:504    .text:00000000000002b8 .L0 
src/../h/kern_reg_util.h:152    .text:00000000000002b8 .L0 
     /tmp/ccEXcu4d.s:514    .text:00000000000002bc .L0 
     /tmp/ccEXcu4d.s:515    .text:00000000000002bc .L0 
     /tmp/ccEXcu4d.s:520    .text:00000000000002c0 .L0 
src/../h/kern_reg_util.h:84     .text:00000000000002c0 .L0 
     /tmp/ccEXcu4d.s:530    .text:00000000000002c4 .L0 
     /tmp/ccEXcu4d.s:531    .text:00000000000002c8 .L0 
     /tmp/ccEXcu4d.s:533    .text:00000000000002cc .L0 
     /tmp/ccEXcu4d.s:534    .text:00000000000002cc .L0 
     /tmp/ccEXcu4d.s:536    .text:00000000000002d0 .L0 
     /tmp/ccEXcu4d.s:538    .text:00000000000002d4 .L0 
     /tmp/ccEXcu4d.s:544    .text:00000000000002d4 _Z25kern_thread_resume_joinedm
     /tmp/ccEXcu4d.s:547    .text:00000000000002d4 .L0 
     /tmp/ccEXcu4d.s:549    .text:00000000000002d4 .L0 
     /tmp/ccEXcu4d.s:550    .text:00000000000002d8 .L0 
     /tmp/ccEXcu4d.s:556    .text:00000000000002ec .L0 
     /tmp/ccEXcu4d.s:557    .text:00000000000002ec .L0 
     /tmp/ccEXcu4d.s:558    .text:00000000000002ec .L0 
     /tmp/ccEXcu4d.s:559    .text:00000000000002ec .L0 
     /tmp/ccEXcu4d.s:560    .text:00000000000002ec .L0 
     /tmp/ccEXcu4d.s:562    .text:00000000000002f0 .L0 
     /tmp/ccEXcu4d.s:565    .text:00000000000002f4 .L0 
     /tmp/ccEXcu4d.s:566    .text:00000000000002f4 .L0 
     /tmp/ccEXcu4d.s:569    .text:00000000000002fc .L0 
     /tmp/ccEXcu4d.s:570    .text:00000000000002fc .L0 
     /tmp/ccEXcu4d.s:571    .text:00000000000002fc .L0 
     /tmp/ccEXcu4d.s:576    .text:0000000000000304 .L0 
     /tmp/ccEXcu4d.s:583    .text:000000000000030c .L0 
     /tmp/ccEXcu4d.s:584    .text:000000000000030c .L0 
     /tmp/ccEXcu4d.s:586    .text:0000000000000310 .L0 
     /tmp/ccEXcu4d.s:587    .text:0000000000000310 .L0 
     /tmp/ccEXcu4d.s:590    .text:0000000000000314 .L0 
     /tmp/ccEXcu4d.s:591    .text:0000000000000314 .L0 
     /tmp/ccEXcu4d.s:593    .text:0000000000000318 .L0 
     /tmp/ccEXcu4d.s:595    .text:000000000000031c .L0 
     /tmp/ccEXcu4d.s:597    .text:0000000000000320 .L0 
     /tmp/ccEXcu4d.s:598    .text:0000000000000320 .L0 
     /tmp/ccEXcu4d.s:601    .text:0000000000000324 .L0 
     /tmp/ccEXcu4d.s:602    .text:0000000000000324 .L0 
     /tmp/ccEXcu4d.s:608    .text:0000000000000330 .L0 
     /tmp/ccEXcu4d.s:609    .text:0000000000000330 .L0 
     /tmp/ccEXcu4d.s:614    .text:000000000000033c .L0 
     /tmp/ccEXcu4d.s:615    .text:0000000000000340 .L0 
     /tmp/ccEXcu4d.s:617    .text:0000000000000344 .L0 
     /tmp/ccEXcu4d.s:618    .text:0000000000000344 .L0 
     /tmp/ccEXcu4d.s:620    .text:0000000000000348 .L0 
     /tmp/ccEXcu4d.s:622    .text:000000000000034c .L0 
     /tmp/ccEXcu4d.s:625    .text:0000000000000350 .L0 
GAS LISTING /tmp/ccEXcu4d.s 			page 38


     /tmp/ccEXcu4d.s:628    .text:0000000000000354 .L0 
     /tmp/ccEXcu4d.s:630    .text:0000000000000358 .L0 
     /tmp/ccEXcu4d.s:636    .text:0000000000000358 _Z23kern_thread_end_runningv
     /tmp/ccEXcu4d.s:639    .text:0000000000000358 .L0 
     /tmp/ccEXcu4d.s:640    .text:0000000000000358 .L0 
     /tmp/ccEXcu4d.s:641    .text:000000000000035c .L0 
     /tmp/ccEXcu4d.s:646    .text:000000000000036c .L0 
     /tmp/ccEXcu4d.s:647    .text:000000000000036c .L0 
     /tmp/ccEXcu4d.s:648    .text:000000000000036c .L0 
     /tmp/ccEXcu4d.s:649    .text:000000000000036c .L0 
     /tmp/ccEXcu4d.s:651    .text:0000000000000370 .L0 
     /tmp/ccEXcu4d.s:653    .text:0000000000000370 .L0 
     /tmp/ccEXcu4d.s:654    .text:0000000000000370 .L0 
     /tmp/ccEXcu4d.s:658    .text:000000000000037c .L0 
     /tmp/ccEXcu4d.s:659    .text:000000000000037c .L0 
     /tmp/ccEXcu4d.s:661    .text:0000000000000380 .L0 
     /tmp/ccEXcu4d.s:662    .text:0000000000000380 .L0 
     /tmp/ccEXcu4d.s:666    .text:000000000000038c .L0 
     /tmp/ccEXcu4d.s:667    .text:000000000000038c .L0 
     /tmp/ccEXcu4d.s:670    .text:0000000000000394 .L0 
     /tmp/ccEXcu4d.s:672    .text:0000000000000398 .L0 
     /tmp/ccEXcu4d.s:673    .text:0000000000000398 .L0 
     /tmp/ccEXcu4d.s:675    .text:000000000000039c .L0 
     /tmp/ccEXcu4d.s:678    .text:00000000000003a0 .L0 
     /tmp/ccEXcu4d.s:679    .text:00000000000003a0 .L0 
     /tmp/ccEXcu4d.s:681    .text:00000000000003a8 .L0 
     /tmp/ccEXcu4d.s:683    .text:00000000000003ac .L0 
     /tmp/ccEXcu4d.s:684    .text:00000000000003ac .L0 
     /tmp/ccEXcu4d.s:689    .text:00000000000003b8 .L0 
     /tmp/ccEXcu4d.s:690    .text:00000000000003bc .L0 
     /tmp/ccEXcu4d.s:691    .text:00000000000003bc .L0 
     /tmp/ccEXcu4d.s:693    .text:00000000000003c0 .L0 
     /tmp/ccEXcu4d.s:694    .text:00000000000003c0 .L0 
     /tmp/ccEXcu4d.s:696    .text:00000000000003c4 .L0 
     /tmp/ccEXcu4d.s:699    .text:00000000000003c8 .L0 
     /tmp/ccEXcu4d.s:701    .text:00000000000003cc .L0 
     /tmp/ccEXcu4d.s:705    .text:00000000000003d0 .L0 
     /tmp/ccEXcu4d.s:707    .text:00000000000003d0 .L0 
     /tmp/ccEXcu4d.s:708    .text:00000000000003d0 .L0 
     /tmp/ccEXcu4d.s:711    .text:00000000000003dc .L0 
     /tmp/ccEXcu4d.s:717    .text:00000000000003dc _Z18kern_thread_createPP8thread_sPFvPvES2_S2_
     /tmp/ccEXcu4d.s:720    .text:00000000000003dc .L0 
     /tmp/ccEXcu4d.s:722    .text:00000000000003dc .L0 
     /tmp/ccEXcu4d.s:723    .text:00000000000003e0 .L0 
     /tmp/ccEXcu4d.s:730    .text:00000000000003f8 .L0 
     /tmp/ccEXcu4d.s:731    .text:00000000000003f8 .L0 
     /tmp/ccEXcu4d.s:732    .text:00000000000003f8 .L0 
     /tmp/ccEXcu4d.s:733    .text:00000000000003f8 .L0 
     /tmp/ccEXcu4d.s:734    .text:00000000000003f8 .L0 
     /tmp/ccEXcu4d.s:735    .text:00000000000003f8 .L0 
     /tmp/ccEXcu4d.s:737    .text:00000000000003fc .L0 
     /tmp/ccEXcu4d.s:743    .text:000000000000040c .L0 
     /tmp/ccEXcu4d.s:744    .text:000000000000040c .L0 
     /tmp/ccEXcu4d.s:746    .text:0000000000000410 .L0 
     /tmp/ccEXcu4d.s:747    .text:0000000000000410 .L0 
     /tmp/ccEXcu4d.s:752    .text:0000000000000420 .L0 
     /tmp/ccEXcu4d.s:754    .text:0000000000000424 .L0 
GAS LISTING /tmp/ccEXcu4d.s 			page 39


     /tmp/ccEXcu4d.s:755    .text:0000000000000424 .L0 
     /tmp/ccEXcu4d.s:757    .text:0000000000000428 .L0 
     /tmp/ccEXcu4d.s:758    .text:0000000000000428 .L0 
     /tmp/ccEXcu4d.s:763    .text:000000000000043c .L0 
     /tmp/ccEXcu4d.s:766    .text:0000000000000444 .L0 
     /tmp/ccEXcu4d.s:767    .text:0000000000000444 .L0 
     /tmp/ccEXcu4d.s:770    .text:000000000000044c .L0 
     /tmp/ccEXcu4d.s:771    .text:000000000000044c .L0 
     /tmp/ccEXcu4d.s:773    .text:0000000000000450 .L0 
     /tmp/ccEXcu4d.s:774    .text:0000000000000450 .L0 
     /tmp/ccEXcu4d.s:777    .text:0000000000000458 .L0 
     /tmp/ccEXcu4d.s:778    .text:0000000000000458 .L0 
     /tmp/ccEXcu4d.s:781    .text:0000000000000460 .L0 
     /tmp/ccEXcu4d.s:782    .text:0000000000000460 .L0 
     /tmp/ccEXcu4d.s:784    .text:0000000000000464 .L0 
     /tmp/ccEXcu4d.s:785    .text:0000000000000464 .L0 
     /tmp/ccEXcu4d.s:787    .text:0000000000000468 .L0 
     /tmp/ccEXcu4d.s:788    .text:0000000000000468 .L0 
     /tmp/ccEXcu4d.s:792    .text:0000000000000470 .L0 
     /tmp/ccEXcu4d.s:794    .text:0000000000000474 .L0 
     /tmp/ccEXcu4d.s:795    .text:0000000000000474 .L0 
     /tmp/ccEXcu4d.s:798    .text:0000000000000480 .L0 
     /tmp/ccEXcu4d.s:799    .text:0000000000000480 .L0 
     /tmp/ccEXcu4d.s:801    .text:0000000000000484 .L0 
     /tmp/ccEXcu4d.s:802    .text:0000000000000484 .L0 
     /tmp/ccEXcu4d.s:804    .text:0000000000000488 .L0 
     /tmp/ccEXcu4d.s:805    .text:0000000000000488 .L0 
     /tmp/ccEXcu4d.s:807    .text:000000000000048c .L0 
     /tmp/ccEXcu4d.s:808    .text:000000000000048c .L0 
     /tmp/ccEXcu4d.s:811    .text:0000000000000494 .L0 
     /tmp/ccEXcu4d.s:812    .text:0000000000000494 .L0 
     /tmp/ccEXcu4d.s:816    .text:0000000000000498 .L0 
     /tmp/ccEXcu4d.s:817    .text:000000000000049c .L0 
     /tmp/ccEXcu4d.s:818    .text:000000000000049c .L0 
     /tmp/ccEXcu4d.s:820    .text:00000000000004a0 .L0 
     /tmp/ccEXcu4d.s:821    .text:00000000000004a0 .L0 
     /tmp/ccEXcu4d.s:823    .text:00000000000004a4 .L0 
     /tmp/ccEXcu4d.s:825    .text:00000000000004a8 .L0 
     /tmp/ccEXcu4d.s:828    .text:00000000000004ac .L0 
     /tmp/ccEXcu4d.s:831    .text:00000000000004b0 .L0 
     /tmp/ccEXcu4d.s:834    .text:00000000000004b4 .L0 
     /tmp/ccEXcu4d.s:838    .text:00000000000004b8 .L0 
     /tmp/ccEXcu4d.s:840    .text:00000000000004b8 .L0 
     /tmp/ccEXcu4d.s:843    .text:00000000000004c0 .L0 
     /tmp/ccEXcu4d.s:849    .text:00000000000004c0 _Z16kern_thread_joinP8thread_s
     /tmp/ccEXcu4d.s:852    .text:00000000000004c0 .L0 
     /tmp/ccEXcu4d.s:854    .text:00000000000004c0 .L0 
     /tmp/ccEXcu4d.s:855    .text:00000000000004c0 .L0 
     /tmp/ccEXcu4d.s:856    .text:00000000000004c0 .L0 
     /tmp/ccEXcu4d.s:858    .text:00000000000004c4 .L0 
     /tmp/ccEXcu4d.s:862    .text:00000000000004cc .L0 
     /tmp/ccEXcu4d.s:863    .text:00000000000004d0 .L0 
     /tmp/ccEXcu4d.s:866    .text:00000000000004d8 .L0 
     /tmp/ccEXcu4d.s:867    .text:00000000000004d8 .L0 
     /tmp/ccEXcu4d.s:869    .text:00000000000004dc .L0 
     /tmp/ccEXcu4d.s:871    .text:00000000000004dc .L0 
     /tmp/ccEXcu4d.s:872    .text:00000000000004dc .L0 
GAS LISTING /tmp/ccEXcu4d.s 			page 40


     /tmp/ccEXcu4d.s:875    .text:00000000000004e8 .L0 
     /tmp/ccEXcu4d.s:877    .text:00000000000004ec .L0 
     /tmp/ccEXcu4d.s:879    .text:00000000000004f0 .L0 
     /tmp/ccEXcu4d.s:880    .text:00000000000004f0 .L0 
     /tmp/ccEXcu4d.s:883    .text:00000000000004f8 .L0 
     /tmp/ccEXcu4d.s:884    .text:00000000000004f8 .L0 
     /tmp/ccEXcu4d.s:886    .text:00000000000004fc .L0 
     /tmp/ccEXcu4d.s:888    .text:0000000000000500 .L0 
     /tmp/ccEXcu4d.s:889    .text:0000000000000500 .L0 
     /tmp/ccEXcu4d.s:893    .text:0000000000000504 .L0 
     /tmp/ccEXcu4d.s:894    .text:0000000000000504 .L0 
     /tmp/ccEXcu4d.s:895    .text:0000000000000504 .L0 
src/../h/kern_reg_util.h:146    .text:0000000000000504 .L0 
     /tmp/ccEXcu4d.s:903    .text:000000000000050c .L0 
     /tmp/ccEXcu4d.s:904    .text:000000000000050c .L0 
     /tmp/ccEXcu4d.s:908    .text:0000000000000510 .L0 
     /tmp/ccEXcu4d.s:912    .text:0000000000000514 .L0 
     /tmp/ccEXcu4d.s:913    .text:0000000000000514 .L0 
     /tmp/ccEXcu4d.s:914    .text:0000000000000514 .L0 
src/../h/kern_reg_util.h:78     .text:0000000000000514 .L0 
     /tmp/ccEXcu4d.s:922    .text:000000000000051c .L0 
     /tmp/ccEXcu4d.s:923    .text:000000000000051c .L0 
     /tmp/ccEXcu4d.s:927    .text:0000000000000520 .L0 
     /tmp/ccEXcu4d.s:929    .text:0000000000000524 .L0 
     /tmp/ccEXcu4d.s:930    .text:0000000000000524 .L0 
     /tmp/ccEXcu4d.s:933    .text:000000000000052c .L0 
     /tmp/ccEXcu4d.s:934    .text:000000000000052c .L0 
     /tmp/ccEXcu4d.s:939    .text:0000000000000530 .L0 
src/../h/kern_reg_util.h:152    .text:0000000000000530 .L0 
     /tmp/ccEXcu4d.s:949    .text:0000000000000534 .L0 
     /tmp/ccEXcu4d.s:950    .text:0000000000000534 .L0 
     /tmp/ccEXcu4d.s:955    .text:0000000000000538 .L0 
src/../h/kern_reg_util.h:84     .text:0000000000000538 .L0 
     /tmp/ccEXcu4d.s:965    .text:000000000000053c .L0 
     /tmp/ccEXcu4d.s:966    .text:0000000000000540 .L0 
     /tmp/ccEXcu4d.s:968    .text:0000000000000544 .L0 
     /tmp/ccEXcu4d.s:969    .text:0000000000000544 .L0 
     /tmp/ccEXcu4d.s:971    .text:0000000000000548 .L0 
     /tmp/ccEXcu4d.s:973    .text:000000000000054c .L0 
     /tmp/ccEXcu4d.s:979    .text:000000000000054c _Z18kern_thread_wakeupm
     /tmp/ccEXcu4d.s:982    .text:000000000000054c .L0 
     /tmp/ccEXcu4d.s:984    .text:000000000000054c .L0 
     /tmp/ccEXcu4d.s:985    .text:0000000000000550 .L0 
     /tmp/ccEXcu4d.s:991    .text:0000000000000564 .L0 
     /tmp/ccEXcu4d.s:992    .text:0000000000000564 .L0 
     /tmp/ccEXcu4d.s:993    .text:0000000000000564 .L0 
     /tmp/ccEXcu4d.s:994    .text:0000000000000564 .L0 
     /tmp/ccEXcu4d.s:995    .text:0000000000000564 .L0 
     /tmp/ccEXcu4d.s:997    .text:0000000000000568 .L0 
     /tmp/ccEXcu4d.s:1000   .text:000000000000056c .L0 
     /tmp/ccEXcu4d.s:1001   .text:000000000000056c .L0 
     /tmp/ccEXcu4d.s:1004   .text:0000000000000574 .L0 
     /tmp/ccEXcu4d.s:1005   .text:0000000000000574 .L0 
     /tmp/ccEXcu4d.s:1006   .text:0000000000000574 .L0 
     /tmp/ccEXcu4d.s:1011   .text:000000000000057c .L0 
     /tmp/ccEXcu4d.s:1018   .text:0000000000000584 .L0 
     /tmp/ccEXcu4d.s:1019   .text:0000000000000584 .L0 
GAS LISTING /tmp/ccEXcu4d.s 			page 41


     /tmp/ccEXcu4d.s:1021   .text:0000000000000588 .L0 
     /tmp/ccEXcu4d.s:1022   .text:0000000000000588 .L0 
     /tmp/ccEXcu4d.s:1025   .text:000000000000058c .L0 
     /tmp/ccEXcu4d.s:1026   .text:000000000000058c .L0 
     /tmp/ccEXcu4d.s:1028   .text:0000000000000590 .L0 
     /tmp/ccEXcu4d.s:1030   .text:0000000000000594 .L0 
     /tmp/ccEXcu4d.s:1032   .text:0000000000000598 .L0 
     /tmp/ccEXcu4d.s:1033   .text:0000000000000598 .L0 
     /tmp/ccEXcu4d.s:1036   .text:000000000000059c .L0 
     /tmp/ccEXcu4d.s:1037   .text:000000000000059c .L0 
     /tmp/ccEXcu4d.s:1043   .text:00000000000005a8 .L0 
     /tmp/ccEXcu4d.s:1044   .text:00000000000005a8 .L0 
     /tmp/ccEXcu4d.s:1049   .text:00000000000005b4 .L0 
     /tmp/ccEXcu4d.s:1050   .text:00000000000005b8 .L0 
     /tmp/ccEXcu4d.s:1052   .text:00000000000005bc .L0 
     /tmp/ccEXcu4d.s:1053   .text:00000000000005bc .L0 
     /tmp/ccEXcu4d.s:1055   .text:00000000000005c0 .L0 
     /tmp/ccEXcu4d.s:1057   .text:00000000000005c4 .L0 
     /tmp/ccEXcu4d.s:1060   .text:00000000000005c8 .L0 
     /tmp/ccEXcu4d.s:1063   .text:00000000000005cc .L0 
     /tmp/ccEXcu4d.s:1065   .text:00000000000005d0 .L0 
     /tmp/ccEXcu4d.s:1071   .text:00000000000005d0 _Z17kern_thread_sleepm
     /tmp/ccEXcu4d.s:1074   .text:00000000000005d0 .L0 
     /tmp/ccEXcu4d.s:1076   .text:00000000000005d0 .L0 
     /tmp/ccEXcu4d.s:1077   .text:00000000000005d4 .L0 
     /tmp/ccEXcu4d.s:1080   .text:00000000000005dc .L0 
     /tmp/ccEXcu4d.s:1081   .text:00000000000005dc .L0 
     /tmp/ccEXcu4d.s:1083   .text:00000000000005e0 .L0 
     /tmp/ccEXcu4d.s:1085   .text:00000000000005e0 .L0 
     /tmp/ccEXcu4d.s:1086   .text:00000000000005e0 .L0 
     /tmp/ccEXcu4d.s:1089   .text:00000000000005ec .L0 
     /tmp/ccEXcu4d.s:1092   .text:00000000000005f4 .L0 
     /tmp/ccEXcu4d.s:1093   .text:00000000000005f4 .L0 
     /tmp/ccEXcu4d.s:1095   .text:00000000000005f8 .L0 
     /tmp/ccEXcu4d.s:1096   .text:00000000000005f8 .L0 
     /tmp/ccEXcu4d.s:1098   .text:00000000000005fc .L0 
     /tmp/ccEXcu4d.s:1100   .text:0000000000000600 .L0 
     /tmp/ccEXcu4d.s:1101   .text:0000000000000600 .L0 
     /tmp/ccEXcu4d.s:1105   .text:0000000000000604 .L0 
     /tmp/ccEXcu4d.s:1106   .text:0000000000000604 .L0 
     /tmp/ccEXcu4d.s:1107   .text:0000000000000604 .L0 
src/../h/kern_reg_util.h:146    .text:0000000000000604 .L0 
     /tmp/ccEXcu4d.s:1115   .text:000000000000060c .L0 
     /tmp/ccEXcu4d.s:1116   .text:000000000000060c .L0 
     /tmp/ccEXcu4d.s:1120   .text:0000000000000610 .L0 
     /tmp/ccEXcu4d.s:1124   .text:0000000000000614 .L0 
     /tmp/ccEXcu4d.s:1125   .text:0000000000000614 .L0 
     /tmp/ccEXcu4d.s:1126   .text:0000000000000614 .L0 
src/../h/kern_reg_util.h:78     .text:0000000000000614 .L0 
     /tmp/ccEXcu4d.s:1134   .text:000000000000061c .L0 
     /tmp/ccEXcu4d.s:1135   .text:000000000000061c .L0 
     /tmp/ccEXcu4d.s:1139   .text:0000000000000620 .L0 
     /tmp/ccEXcu4d.s:1141   .text:0000000000000624 .L0 
     /tmp/ccEXcu4d.s:1142   .text:0000000000000624 .L0 
     /tmp/ccEXcu4d.s:1145   .text:000000000000062c .L0 
     /tmp/ccEXcu4d.s:1146   .text:000000000000062c .L0 
     /tmp/ccEXcu4d.s:1151   .text:0000000000000630 .L0 
GAS LISTING /tmp/ccEXcu4d.s 			page 42


src/../h/kern_reg_util.h:152    .text:0000000000000630 .L0 
     /tmp/ccEXcu4d.s:1161   .text:0000000000000634 .L0 
     /tmp/ccEXcu4d.s:1162   .text:0000000000000634 .L0 
     /tmp/ccEXcu4d.s:1167   .text:0000000000000638 .L0 
src/../h/kern_reg_util.h:84     .text:0000000000000638 .L0 
     /tmp/ccEXcu4d.s:1177   .text:000000000000063c .L0 
     /tmp/ccEXcu4d.s:1178   .text:0000000000000640 .L0 
     /tmp/ccEXcu4d.s:1180   .text:0000000000000644 .L0 
     /tmp/ccEXcu4d.s:1181   .text:0000000000000644 .L0 
     /tmp/ccEXcu4d.s:1183   .text:0000000000000648 .L0 
     /tmp/ccEXcu4d.s:1185   .text:000000000000064c .L0 
     /tmp/ccEXcu4d.s:1204   .bss:0000000000000010 running
     /tmp/ccEXcu4d.s:1195   .bss:0000000000000000 threads_cache
     /tmp/ccEXcu4d.s:1192   .bss:0000000000000000 .LANCHOR0
     /tmp/ccEXcu4d.s:1199   .bss:0000000000000008 _ZL2id
     /tmp/ccEXcu4d.s:1208   .bss:0000000000000018 scheduler
     /tmp/ccEXcu4d.s:1226   .text:000000000000064c .L0 
     /tmp/ccEXcu4d.s:94     .text:0000000000000064 .L0 
     /tmp/ccEXcu4d.s:71     .rodata.str1.8:0000000000000000 .LC0
     /tmp/ccEXcu4d.s:96     .text:0000000000000070 .L0 
     /tmp/ccEXcu4d.s:100    .text:0000000000000080 .L0 
     /tmp/ccEXcu4d.s:175    .text:00000000000000f0 .L0 
     /tmp/ccEXcu4d.s:183    .text:0000000000000100 .L0 
     /tmp/ccEXcu4d.s:200    .text:0000000000000118 .L0 
     /tmp/ccEXcu4d.s:224    .text:0000000000000138 .L0 
     /tmp/ccEXcu4d.s:233    .text:0000000000000148 .L0 
     /tmp/ccEXcu4d.s:260    .text:000000000000016c .L0 
     /tmp/ccEXcu4d.s:329    .text:00000000000001b8 .L0 
     /tmp/ccEXcu4d.s:372    .text:00000000000001fc .L0 
     /tmp/ccEXcu4d.s:451    .text:000000000000027c .L0 
     /tmp/ccEXcu4d.s:566    .text:00000000000002f4 .L0 
     /tmp/ccEXcu4d.s:609    .text:0000000000000330 .L0 
     /tmp/ccEXcu4d.s:654    .text:0000000000000370 .L0 
     /tmp/ccEXcu4d.s:679    .text:00000000000003a0 .L0 
     /tmp/ccEXcu4d.s:747    .text:0000000000000410 .L0 
     /tmp/ccEXcu4d.s:758    .text:0000000000000428 .L0 
     /tmp/ccEXcu4d.s:795    .text:0000000000000474 .L0 
     /tmp/ccEXcu4d.s:872    .text:00000000000004dc .L0 
     /tmp/ccEXcu4d.s:1001   .text:000000000000056c .L0 
     /tmp/ccEXcu4d.s:1044   .text:00000000000005a8 .L0 
     /tmp/ccEXcu4d.s:1086   .text:00000000000005e0 .L0 
     /tmp/ccEXcu4d.s:196    .text:0000000000000118 .L9
     /tmp/ccEXcu4d.s:184    .text:0000000000000108 .L7
     /tmp/ccEXcu4d.s:246    .text:0000000000000160 .L10
     /tmp/ccEXcu4d.s:256    .text:000000000000016c .L14
     /tmp/ccEXcu4d.s:240    .text:000000000000015c .L12
     /tmp/ccEXcu4d.s:424    .text:0000000000000260 .L20
     /tmp/ccEXcu4d.s:417    .text:0000000000000254 .L24
     /tmp/ccEXcu4d.s:394    .text:0000000000000230 .L21
     /tmp/ccEXcu4d.s:400    .text:000000000000023c .L19
     /tmp/ccEXcu4d.s:581    .text:000000000000030c .L28
     /tmp/ccEXcu4d.s:612    .text:000000000000033c .L27
     /tmp/ccEXcu4d.s:574    .text:0000000000000304 .L33
     /tmp/ccEXcu4d.s:606    .text:0000000000000330 .L31
     /tmp/ccEXcu4d.s:578    .text:0000000000000308 .L30
     /tmp/ccEXcu4d.s:599    .text:0000000000000324 .L32
     /tmp/ccEXcu4d.s:704    .text:00000000000003d0 .L39
GAS LISTING /tmp/ccEXcu4d.s 			page 43


     /tmp/ccEXcu4d.s:687    .text:00000000000003b8 .L35
     /tmp/ccEXcu4d.s:676    .text:00000000000003a0 .L36
     /tmp/ccEXcu4d.s:837    .text:00000000000004b8 .L42
     /tmp/ccEXcu4d.s:814    .text:0000000000000498 .L41
     /tmp/ccEXcu4d.s:860    .text:00000000000004cc .L50
     /tmp/ccEXcu4d.s:1016   .text:0000000000000584 .L52
     /tmp/ccEXcu4d.s:1047   .text:00000000000005b4 .L51
     /tmp/ccEXcu4d.s:1009   .text:000000000000057c .L57
     /tmp/ccEXcu4d.s:1041   .text:00000000000005a8 .L55
     /tmp/ccEXcu4d.s:1013   .text:0000000000000580 .L54
     /tmp/ccEXcu4d.s:1034   .text:000000000000059c .L56
     /tmp/ccEXcu4d.s:3622   .debug_abbrev:0000000000000000 .Ldebug_abbrev0
     /tmp/ccEXcu4d.s:5321   .debug_str:0000000000000782 .LASF179
     /tmp/ccEXcu4d.s:5297   .debug_str:00000000000006e8 .LASF180
     /tmp/ccEXcu4d.s:5239   .debug_str:000000000000054c .LASF181
     /tmp/ccEXcu4d.s:5      .text:0000000000000000 .Ltext0
     /tmp/ccEXcu4d.s:1211   .text:000000000000064c .Letext0
     /tmp/ccEXcu4d.s:5021   .debug_line:0000000000000000 .Ldebug_line0
     /tmp/ccEXcu4d.s:5041   .debug_str:0000000000000091 .LASF0
     /tmp/ccEXcu4d.s:5355   .debug_str:00000000000008d4 .LASF1
     /tmp/ccEXcu4d.s:5325   .debug_str:000000000000084c .LASF2
     /tmp/ccEXcu4d.s:5293   .debug_str:00000000000006d3 .LASF4
     /tmp/ccEXcu4d.s:5303   .debug_str:000000000000070f .LASF3
     /tmp/ccEXcu4d.s:5153   .debug_str:0000000000000332 .LASF5
     /tmp/ccEXcu4d.s:5185   .debug_str:0000000000000410 .LASF6
     /tmp/ccEXcu4d.s:5265   .debug_str:0000000000000617 .LASF7
     /tmp/ccEXcu4d.s:5065   .debug_str:000000000000013f .LASF8
     /tmp/ccEXcu4d.s:5349   .debug_str:00000000000008b1 .LASF9
     /tmp/ccEXcu4d.s:5159   .debug_str:0000000000000360 .LASF10
     /tmp/ccEXcu4d.s:5097   .debug_str:00000000000001ea .LASF11
     /tmp/ccEXcu4d.s:5207   .debug_str:0000000000000485 .LASF12
     /tmp/ccEXcu4d.s:5163   .debug_str:0000000000000379 .LASF13
     /tmp/ccEXcu4d.s:5283   .debug_str:000000000000067a .LASF14
     /tmp/ccEXcu4d.s:5165   .debug_str:0000000000000389 .LASF15
     /tmp/ccEXcu4d.s:5129   .debug_str:00000000000002b2 .LASF16
     /tmp/ccEXcu4d.s:5117   .debug_str:0000000000000271 .LASF182
     /tmp/ccEXcu4d.s:5137   .debug_str:00000000000002ee .LASF17
     /tmp/ccEXcu4d.s:5237   .debug_str:0000000000000544 .LASF18
     /tmp/ccEXcu4d.s:5219   .debug_str:00000000000004da .LASF19
     /tmp/ccEXcu4d.s:5373   .debug_str:0000000000000923 .LASF20
     /tmp/ccEXcu4d.s:5189   .debug_str:0000000000000431 .LASF21
     /tmp/ccEXcu4d.s:5389   .debug_str:00000000000009bb .LASF22
     /tmp/ccEXcu4d.s:5141   .debug_str:0000000000000300 .LASF96
     /tmp/ccEXcu4d.s:5315   .debug_str:0000000000000765 .LASF23
     /tmp/ccEXcu4d.s:5311   .debug_str:0000000000000751 .LASF24
     /tmp/ccEXcu4d.s:5299   .debug_str:00000000000006fd .LASF25
     /tmp/ccEXcu4d.s:5339   .debug_str:0000000000000885 .LASF26
     /tmp/ccEXcu4d.s:5381   .debug_str:000000000000096c .LASF27
     /tmp/ccEXcu4d.s:5391   .debug_str:00000000000009c4 .LASF28
     /tmp/ccEXcu4d.s:5203   .debug_str:0000000000000479 .LASF29
     /tmp/ccEXcu4d.s:5341   .debug_str:000000000000088d .LASF30
     /tmp/ccEXcu4d.s:5213   .debug_str:00000000000004b2 .LASF31
     /tmp/ccEXcu4d.s:5143   .debug_str:0000000000000309 .LASF32
     /tmp/ccEXcu4d.s:5371   .debug_str:000000000000091b .LASF33
     /tmp/ccEXcu4d.s:5223   .debug_str:00000000000004f3 .LASF39
     /tmp/ccEXcu4d.s:5083   .debug_str:00000000000001a1 .LASF34
     /tmp/ccEXcu4d.s:5085   .debug_str:00000000000001ab .LASF35
GAS LISTING /tmp/ccEXcu4d.s 			page 44


     /tmp/ccEXcu4d.s:5081   .debug_str:0000000000000197 .LASF36
     /tmp/ccEXcu4d.s:5093   .debug_str:00000000000001cf .LASF37
     /tmp/ccEXcu4d.s:5087   .debug_str:00000000000001b5 .LASF38
     /tmp/ccEXcu4d.s:5035   .debug_str:0000000000000077 .LASF40
     /tmp/ccEXcu4d.s:5045   .debug_str:00000000000000a3 .LASF183
     /tmp/ccEXcu4d.s:5061   .debug_str:0000000000000113 .LASF41
     /tmp/ccEXcu4d.s:5245   .debug_str:0000000000000592 .LASF42
     /tmp/ccEXcu4d.s:5103   .debug_str:000000000000020b .LASF43
     /tmp/ccEXcu4d.s:5369   .debug_str:0000000000000914 .LASF44
     /tmp/ccEXcu4d.s:5183   .debug_str:0000000000000409 .LASF47
     /tmp/ccEXcu4d.s:5205   .debug_str:0000000000000480 .LASF45
     /tmp/ccEXcu4d.s:5323   .debug_str:0000000000000846 .LASF46
     /tmp/ccEXcu4d.s:5337   .debug_str:000000000000087d .LASF48
     /tmp/ccEXcu4d.s:5267   .debug_str:000000000000062a .LASF49
     /tmp/ccEXcu4d.s:5281   .debug_str:0000000000000673 .LASF50
     /tmp/ccEXcu4d.s:5351   .debug_str:00000000000008bf .LASF51
     /tmp/ccEXcu4d.s:5215   .debug_str:00000000000004be .LASF52
     /tmp/ccEXcu4d.s:5357   .debug_str:00000000000008e7 .LASF53
     /tmp/ccEXcu4d.s:5181   .debug_str:0000000000000404 .LASF54
     /tmp/ccEXcu4d.s:5353   .debug_str:00000000000008c8 .LASF55
     /tmp/ccEXcu4d.s:5257   .debug_str:00000000000005ee .LASF56
     /tmp/ccEXcu4d.s:5115   .debug_str:000000000000025a .LASF57
     /tmp/ccEXcu4d.s:5229   .debug_str:000000000000050e .LASF58
     /tmp/ccEXcu4d.s:5145   .debug_str:0000000000000312 .LASF78
     /tmp/ccEXcu4d.s:5273   .debug_str:0000000000000643 .LASF59
     /tmp/ccEXcu4d.s:5175   .debug_str:00000000000003d8 .LASF60
     /tmp/ccEXcu4d.s:5361   .debug_str:00000000000008f6 .LASF61
     /tmp/ccEXcu4d.s:5363   .debug_str:00000000000008fb .LASF62
     /tmp/ccEXcu4d.s:5365   .debug_str:0000000000000900 .LASF63
     /tmp/ccEXcu4d.s:5167   .debug_str:000000000000039f .LASF64
     /tmp/ccEXcu4d.s:5075   .debug_str:000000000000016f .LASF65
     /tmp/ccEXcu4d.s:5193   .debug_str:000000000000043f .LASF66
     /tmp/ccEXcu4d.s:5171   .debug_str:00000000000003bd .LASF75
     /tmp/ccEXcu4d.s:5023   .debug_str:0000000000000000 .LASF67
     /tmp/ccEXcu4d.s:5347   .debug_str:00000000000008ac .LASF68
     /tmp/ccEXcu4d.s:5227   .debug_str:0000000000000509 .LASF69
     /tmp/ccEXcu4d.s:5107   .debug_str:0000000000000222 .LASF70
     /tmp/ccEXcu4d.s:5039   .debug_str:000000000000008b .LASF71
     /tmp/ccEXcu4d.s:5211   .debug_str:00000000000004a9 .LASF72
     /tmp/ccEXcu4d.s:5051   .debug_str:00000000000000c4 .LASF73
     /tmp/ccEXcu4d.s:5101   .debug_str:0000000000000204 .LASF74
     /tmp/ccEXcu4d.s:5393   .debug_str:00000000000009cc .LASF76
     /tmp/ccEXcu4d.s:5199   .debug_str:000000000000045e .LASF77
     /tmp/ccEXcu4d.s:5027   .debug_str:0000000000000035 .LASF79
     /tmp/ccEXcu4d.s:5345   .debug_str:00000000000008a4 .LASF80
     /tmp/ccEXcu4d.s:5155   .debug_str:0000000000000339 .LASF81
     /tmp/ccEXcu4d.s:5327   .debug_str:000000000000085a .LASF82
     /tmp/ccEXcu4d.s:5333   .debug_str:0000000000000871 .LASF83
     /tmp/ccEXcu4d.s:5301   .debug_str:0000000000000707 .LASF84
     /tmp/ccEXcu4d.s:5031   .debug_str:0000000000000053 .LASF85
     /tmp/ccEXcu4d.s:5331   .debug_str:0000000000000868 .LASF86
     /tmp/ccEXcu4d.s:5125   .debug_str:000000000000029a .LASF87
     /tmp/ccEXcu4d.s:5119   .debug_str:000000000000027e .LASF88
     /tmp/ccEXcu4d.s:5249   .debug_str:00000000000005b5 .LASF89
     /tmp/ccEXcu4d.s:5133   .debug_str:00000000000002e2 .LASF90
     /tmp/ccEXcu4d.s:5135   .debug_str:00000000000002e8 .LASF91
     /tmp/ccEXcu4d.s:5091   .debug_str:00000000000001c7 .LASF92
GAS LISTING /tmp/ccEXcu4d.s 			page 45


     /tmp/ccEXcu4d.s:5069   .debug_str:0000000000000155 .LASF93
     /tmp/ccEXcu4d.s:5329   .debug_str:0000000000000861 .LASF94
     /tmp/ccEXcu4d.s:5089   .debug_str:00000000000001bf .LASF95
     /tmp/ccEXcu4d.s:5317   .debug_str:000000000000076a .LASF97
     /tmp/ccEXcu4d.s:5367   .debug_str:0000000000000905 .LASF98
     /tmp/ccEXcu4d.s:5169   .debug_str:00000000000003a7 .LASF99
     /tmp/ccEXcu4d.s:5191   .debug_str:0000000000000438 .LASF100
     /tmp/ccEXcu4d.s:5113   .debug_str:0000000000000243 .LASF101
     /tmp/ccEXcu4d.s:5241   .debug_str:0000000000000563 .LASF102
     /tmp/ccEXcu4d.s:5037   .debug_str:0000000000000082 .LASF103
     /tmp/ccEXcu4d.s:5319   .debug_str:0000000000000776 .LASF104
     /tmp/ccEXcu4d.s:5195   .debug_str:0000000000000444 .LASF105
     /tmp/ccEXcu4d.s:5251   .debug_str:00000000000005bb .LASF106
     /tmp/ccEXcu4d.s:5225   .debug_str:00000000000004fb .LASF107
     /tmp/ccEXcu4d.s:5079   .debug_str:0000000000000189 .LASF108
     /tmp/ccEXcu4d.s:5121   .debug_str:0000000000000284 .LASF109
     /tmp/ccEXcu4d.s:5313   .debug_str:000000000000075c .LASF110
     /tmp/ccEXcu4d.s:5047   .debug_str:00000000000000ad .LASF111
     /tmp/ccEXcu4d.s:5255   .debug_str:00000000000005e9 .LASF112
     /tmp/ccEXcu4d.s:5289   .debug_str:00000000000006c4 .LASF113
     /tmp/ccEXcu4d.s:5379   .debug_str:0000000000000961 .LASF114
     /tmp/ccEXcu4d.s:5067   .debug_str:000000000000014f .LASF115
     /tmp/ccEXcu4d.s:5261   .debug_str:00000000000005ff .LASF116
     /tmp/ccEXcu4d.s:5197   .debug_str:0000000000000451 .LASF117
     /tmp/ccEXcu4d.s:5187   .debug_str:0000000000000423 .LASF118
     /tmp/ccEXcu4d.s:5099   .debug_str:00000000000001f9 .LASF119
     /tmp/ccEXcu4d.s:5307   .debug_str:0000000000000738 .LASF120
     /tmp/ccEXcu4d.s:5073   .debug_str:0000000000000163 .LASF121
     /tmp/ccEXcu4d.s:5295   .debug_str:00000000000006da .LASF122
     /tmp/ccEXcu4d.s:5179   .debug_str:00000000000003fa .LASF123
     /tmp/ccEXcu4d.s:5053   .debug_str:00000000000000cc .LASF126
     /tmp/ccEXcu4d.s:5063   .debug_str:0000000000000128 .LASF128
     /tmp/ccEXcu4d.s:1072   .text:00000000000005d0 .LFB58
     /tmp/ccEXcu4d.s:1186   .text:000000000000064c .LFE58
     /tmp/ccEXcu4d.s:5275   .debug_str:000000000000064a .LASF130
     /tmp/ccEXcu4d.s:4665   .debug_loc:0000000000000000 .LLST21
     /tmp/ccEXcu4d.s:5231   .debug_str:000000000000051c .LASF124
     /tmp/ccEXcu4d.s:5259   .debug_str:00000000000005f8 .LASF125
     /tmp/ccEXcu4d.s:1103   .text:0000000000000604 .LBB42
     /tmp/ccEXcu4d.s:1118   .text:0000000000000610 .LBE42
     /tmp/ccEXcu4d.s:1122   .text:0000000000000614 .LBB44
     /tmp/ccEXcu4d.s:1137   .text:0000000000000620 .LBE44
     /tmp/ccEXcu4d.s:1148   .text:0000000000000630 .LBB46
     /tmp/ccEXcu4d.s:1159   .text:0000000000000634 .LBE46
     /tmp/ccEXcu4d.s:4679   .debug_loc:0000000000000039 .LLST22
     /tmp/ccEXcu4d.s:1164   .text:0000000000000638 .LBB48
     /tmp/ccEXcu4d.s:1175   .text:000000000000063c .LBE48
     /tmp/ccEXcu4d.s:4686   .debug_loc:000000000000005c .LLST23
     /tmp/ccEXcu4d.s:1143   .text:000000000000062c .LVL69
     /tmp/ccEXcu4d.s:5077   .debug_str:0000000000000176 .LASF127
     /tmp/ccEXcu4d.s:5055   .debug_str:00000000000000de .LASF129
     /tmp/ccEXcu4d.s:980    .text:000000000000054c .LFB57
     /tmp/ccEXcu4d.s:1066   .text:00000000000005d0 .LFE57
     /tmp/ccEXcu4d.s:5263   .debug_str:000000000000060b .LASF131
     /tmp/ccEXcu4d.s:4693   .debug_loc:000000000000007f .LLST17
     /tmp/ccEXcu4d.s:5271   .debug_str:000000000000063e .LASF132
     /tmp/ccEXcu4d.s:4711   .debug_loc:00000000000000cb .LLST18
GAS LISTING /tmp/ccEXcu4d.s 			page 46


     /tmp/ccEXcu4d.s:5071   .debug_str:000000000000015e .LASF133
     /tmp/ccEXcu4d.s:4726   .debug_loc:0000000000000114 .LLST19
     /tmp/ccEXcu4d.s:5043   .debug_str:000000000000009e .LASF134
     /tmp/ccEXcu4d.s:4742   .debug_loc:000000000000015e .LLST20
     /tmp/ccEXcu4d.s:1038   .text:00000000000005a4 .LVL63
     /tmp/ccEXcu4d.s:5095   .debug_str:00000000000001d9 .LASF135
     /tmp/ccEXcu4d.s:5243   .debug_str:0000000000000573 .LASF136
     /tmp/ccEXcu4d.s:850    .text:00000000000004c0 .LFB56
     /tmp/ccEXcu4d.s:974    .text:000000000000054c .LFE56
     /tmp/ccEXcu4d.s:5359   .debug_str:00000000000008ef .LASF137
     /tmp/ccEXcu4d.s:4758   .debug_loc:00000000000001a8 .LLST14
     /tmp/ccEXcu4d.s:891    .text:0000000000000504 .LBB34
     /tmp/ccEXcu4d.s:906    .text:0000000000000510 .LBE34
     /tmp/ccEXcu4d.s:910    .text:0000000000000514 .LBB36
     /tmp/ccEXcu4d.s:925    .text:0000000000000520 .LBE36
     /tmp/ccEXcu4d.s:936    .text:0000000000000530 .LBB38
     /tmp/ccEXcu4d.s:947    .text:0000000000000534 .LBE38
     /tmp/ccEXcu4d.s:4772   .debug_loc:00000000000001e1 .LLST15
     /tmp/ccEXcu4d.s:952    .text:0000000000000538 .LBB40
     /tmp/ccEXcu4d.s:963    .text:000000000000053c .LBE40
     /tmp/ccEXcu4d.s:4779   .debug_loc:0000000000000204 .LLST16
     /tmp/ccEXcu4d.s:931    .text:000000000000052c .LVL52
     /tmp/ccEXcu4d.s:5385   .debug_str:0000000000000990 .LASF149
     /tmp/ccEXcu4d.s:5025   .debug_str:0000000000000007 .LASF151
     /tmp/ccEXcu4d.s:718    .text:00000000000003dc .LFB55
     /tmp/ccEXcu4d.s:844    .text:00000000000004c0 .LFE55
     /tmp/ccEXcu4d.s:4786   .debug_loc:0000000000000227 .LLST9
     /tmp/ccEXcu4d.s:5277   .debug_str:0000000000000653 .LASF138
     /tmp/ccEXcu4d.s:4808   .debug_loc:0000000000000286 .LLST10
     /tmp/ccEXcu4d.s:4830   .debug_loc:00000000000002e5 .LLST11
     /tmp/ccEXcu4d.s:4852   .debug_loc:0000000000000344 .LLST12
     /tmp/ccEXcu4d.s:4885   .debug_loc:00000000000003ce .LLST13
     /tmp/ccEXcu4d.s:750    .text:0000000000000420 .LVL42
     /tmp/ccEXcu4d.s:809    .text:0000000000000494 .LVL44
     /tmp/ccEXcu4d.s:5209   .debug_str:0000000000000495 .LASF139
     /tmp/ccEXcu4d.s:5029   .debug_str:000000000000003a .LASF140
     /tmp/ccEXcu4d.s:312    .text:00000000000001a0 .LFB54
     /tmp/ccEXcu4d.s:349    .text:00000000000001e4 .LFE54
     /tmp/ccEXcu4d.s:326    .text:00000000000001b8 .LVL8
     /tmp/ccEXcu4d.s:338    .text:00000000000001d4 .LVL10
     /tmp/ccEXcu4d.s:5387   .debug_str:00000000000009a3 .LASF141
     /tmp/ccEXcu4d.s:5033   .debug_str:000000000000005a .LASF142
     /tmp/ccEXcu4d.s:637    .text:0000000000000358 .LFB53
     /tmp/ccEXcu4d.s:712    .text:00000000000003dc .LFE53
     /tmp/ccEXcu4d.s:4896   .debug_loc:0000000000000404 .LLST8
     /tmp/ccEXcu4d.s:664    .text:000000000000038c .LVL34
     /tmp/ccEXcu4d.s:668    .text:0000000000000394 .LVL35
     /tmp/ccEXcu4d.s:686    .text:00000000000003b8 .LVL36
     /tmp/ccEXcu4d.s:709    .text:00000000000003d8 .LVL39
     /tmp/ccEXcu4d.s:5285   .debug_str:0000000000000686 .LASF143
     /tmp/ccEXcu4d.s:5253   .debug_str:00000000000005ca .LASF144
     /tmp/ccEXcu4d.s:545    .text:00000000000002d4 .LFB52
     /tmp/ccEXcu4d.s:631    .text:0000000000000358 .LFE52
     /tmp/ccEXcu4d.s:4907   .debug_loc:000000000000043a .LLST4
     /tmp/ccEXcu4d.s:4925   .debug_loc:0000000000000486 .LLST5
     /tmp/ccEXcu4d.s:4940   .debug_loc:00000000000004cf .LLST6
     /tmp/ccEXcu4d.s:4956   .debug_loc:0000000000000519 .LLST7
GAS LISTING /tmp/ccEXcu4d.s 			page 47


     /tmp/ccEXcu4d.s:603    .text:000000000000032c .LVL28
     /tmp/ccEXcu4d.s:5279   .debug_str:0000000000000661 .LASF145
     /tmp/ccEXcu4d.s:5305   .debug_str:0000000000000721 .LASF146
     /tmp/ccEXcu4d.s:355    .text:00000000000001e4 .LFB51
     /tmp/ccEXcu4d.s:432    .text:000000000000026c .LFE51
     /tmp/ccEXcu4d.s:4972   .debug_loc:0000000000000563 .LLST1
     /tmp/ccEXcu4d.s:378    .text:0000000000000210 .LVL12
     /tmp/ccEXcu4d.s:399    .text:000000000000023c .LVL13
     /tmp/ccEXcu4d.s:5269   .debug_str:0000000000000633 .LASF184
     /tmp/ccEXcu4d.s:5201   .debug_str:0000000000000469 .LASF185
     /tmp/ccEXcu4d.s:269    .text:0000000000000178 .LFB50
     /tmp/ccEXcu4d.s:306    .text:00000000000001a0 .LFE50
     /tmp/ccEXcu4d.s:5233   .debug_str:0000000000000524 .LASF147
     /tmp/ccEXcu4d.s:5131   .debug_str:00000000000002c8 .LASF148
     /tmp/ccEXcu4d.s:438    .text:000000000000026c .LFB49
     /tmp/ccEXcu4d.s:539    .text:00000000000002d4 .LFE49
     /tmp/ccEXcu4d.s:455    .text:000000000000028c .LBB26
     /tmp/ccEXcu4d.s:471    .text:0000000000000298 .LBE26
     /tmp/ccEXcu4d.s:475    .text:000000000000029c .LBB28
     /tmp/ccEXcu4d.s:490    .text:00000000000002a8 .LBE28
     /tmp/ccEXcu4d.s:501    .text:00000000000002b8 .LBB30
     /tmp/ccEXcu4d.s:512    .text:00000000000002bc .LBE30
     /tmp/ccEXcu4d.s:4983   .debug_loc:0000000000000599 .LLST2
     /tmp/ccEXcu4d.s:517    .text:00000000000002c0 .LBB32
     /tmp/ccEXcu4d.s:528    .text:00000000000002c4 .LBE32
     /tmp/ccEXcu4d.s:4990   .debug_loc:00000000000005bc .LLST3
     /tmp/ccEXcu4d.s:453    .text:000000000000028c .LVL16
     /tmp/ccEXcu4d.s:496    .text:00000000000002b4 .LVL17
     /tmp/ccEXcu4d.s:5109   .debug_str:0000000000000229 .LASF150
     /tmp/ccEXcu4d.s:5383   .debug_str:0000000000000978 .LASF152
     /tmp/ccEXcu4d.s:213    .text:000000000000012c .LFB48
     /tmp/ccEXcu4d.s:263    .text:0000000000000178 .LFE48
     /tmp/ccEXcu4d.s:4997   .debug_loc:00000000000005df .LLST0
     /tmp/ccEXcu4d.s:5221   .debug_str:00000000000004e0 .LASF153
     /tmp/ccEXcu4d.s:5157   .debug_str:000000000000033f .LASF154
     /tmp/ccEXcu4d.s:159    .text:00000000000000dc .LFB47
     /tmp/ccEXcu4d.s:207    .text:000000000000012c .LFE47
     /tmp/ccEXcu4d.s:5375   .debug_str:000000000000092d .LASF155
     /tmp/ccEXcu4d.s:5173   .debug_str:00000000000003c2 .LASF156
     /tmp/ccEXcu4d.s:78     .text:000000000000004c .LFB46
     /tmp/ccEXcu4d.s:153    .text:00000000000000dc .LFE46
     /tmp/ccEXcu4d.s:5123   .debug_str:000000000000028e .LASF157
     /tmp/ccEXcu4d.s:98     .text:0000000000000080 .LVL2
     /tmp/ccEXcu4d.s:108    .text:0000000000000098 .LVL3
     /tmp/ccEXcu4d.s:5127   .debug_str:00000000000002a1 .LASF158
     /tmp/ccEXcu4d.s:5247   .debug_str:000000000000059e .LASF159
     /tmp/ccEXcu4d.s:10     .text:0000000000000000 .LFB45
     /tmp/ccEXcu4d.s:67     .text:000000000000004c .LFE45
     /tmp/ccEXcu4d.s:5335   .debug_str:0000000000000878 .LASF160
     /tmp/ccEXcu4d.s:5291   .debug_str:00000000000006c9 .LASF161
     /tmp/ccEXcu4d.s:5217   .debug_str:00000000000004cc .LASF164
     /tmp/ccEXcu4d.s:5161   .debug_str:000000000000036f .LASF162
     /tmp/ccEXcu4d.s:5147   .debug_str:0000000000000318 .LASF168
     /tmp/ccEXcu4d.s:5151   .debug_str:000000000000032b .LASF163
     /tmp/ccEXcu4d.s:5139   .debug_str:00000000000002f5 .LASF165
     /tmp/ccEXcu4d.s:5149   .debug_str:0000000000000326 .LASF166
     /tmp/ccEXcu4d.s:5111   .debug_str:000000000000023c .LASF167
GAS LISTING /tmp/ccEXcu4d.s 			page 48


     /tmp/ccEXcu4d.s:5235   .debug_str:0000000000000539 .LASF169
     /tmp/ccEXcu4d.s:5287   .debug_str:00000000000006a0 .LASF170
     /tmp/ccEXcu4d.s:5057   .debug_str:00000000000000f6 .LASF172
     /tmp/ccEXcu4d.s:5105   .debug_str:0000000000000211 .LASF171
     /tmp/ccEXcu4d.s:5059   .debug_str:0000000000000107 .LASF173
     /tmp/ccEXcu4d.s:5343   .debug_str:0000000000000896 .LASF174
     /tmp/ccEXcu4d.s:5177   .debug_str:00000000000003e6 .LASF175
     /tmp/ccEXcu4d.s:5309   .debug_str:0000000000000743 .LASF176
     /tmp/ccEXcu4d.s:5377   .debug_str:000000000000093e .LASF177
     /tmp/ccEXcu4d.s:5049   .debug_str:00000000000000b2 .LASF178
     /tmp/ccEXcu4d.s:1075   .text:00000000000005d0 .LVL68
     /tmp/ccEXcu4d.s:1147   .text:0000000000000630 .LVL70
     /tmp/ccEXcu4d.s:1156   .text:0000000000000634 .LVL71
     /tmp/ccEXcu4d.s:1163   .text:0000000000000638 .LVL72
     /tmp/ccEXcu4d.s:1172   .text:000000000000063c .LVL73
     /tmp/ccEXcu4d.s:983    .text:000000000000054c .LVL57
     /tmp/ccEXcu4d.s:1002   .text:0000000000000574 .LVL58
     /tmp/ccEXcu4d.s:1061   .text:00000000000005c8 .LVL67
     /tmp/ccEXcu4d.s:1012   .text:0000000000000580 .LVL60
     /tmp/ccEXcu4d.s:1015   .text:0000000000000584 .LVL61
     /tmp/ccEXcu4d.s:1040   .text:00000000000005a8 .LVL64
     /tmp/ccEXcu4d.s:1008   .text:000000000000057c .LVL59
     /tmp/ccEXcu4d.s:1058   .text:00000000000005c4 .LVL66
     /tmp/ccEXcu4d.s:1023   .text:000000000000058c .LVL62
     /tmp/ccEXcu4d.s:1046   .text:00000000000005b4 .LVL65
     /tmp/ccEXcu4d.s:853    .text:00000000000004c0 .LVL51
     /tmp/ccEXcu4d.s:935    .text:0000000000000530 .LVL53
     /tmp/ccEXcu4d.s:944    .text:0000000000000534 .LVL54
     /tmp/ccEXcu4d.s:951    .text:0000000000000538 .LVL55
     /tmp/ccEXcu4d.s:960    .text:000000000000053c .LVL56
     /tmp/ccEXcu4d.s:721    .text:00000000000003dc .LVL40
     /tmp/ccEXcu4d.s:748    .text:0000000000000418 .LVL41
     /tmp/ccEXcu4d.s:826    .text:00000000000004a8 .LVL46
     /tmp/ccEXcu4d.s:836    .text:00000000000004b8 .LVL49
     /tmp/ccEXcu4d.s:832    .text:00000000000004b0 .LVL48
     /tmp/ccEXcu4d.s:829    .text:00000000000004ac .LVL47
     /tmp/ccEXcu4d.s:790    .text:0000000000000470 .LVL43
     /tmp/ccEXcu4d.s:813    .text:0000000000000498 .LVL45
     /tmp/ccEXcu4d.s:841    .text:00000000000004bc .LVL50
     /tmp/ccEXcu4d.s:656    .text:000000000000037c .LVL33
     /tmp/ccEXcu4d.s:697    .text:00000000000003c4 .LVL37
     /tmp/ccEXcu4d.s:703    .text:00000000000003d0 .LVL38
     /tmp/ccEXcu4d.s:548    .text:00000000000002d4 .LVL22
     /tmp/ccEXcu4d.s:567    .text:00000000000002fc .LVL23
     /tmp/ccEXcu4d.s:626    .text:0000000000000350 .LVL32
     /tmp/ccEXcu4d.s:577    .text:0000000000000308 .LVL25
     /tmp/ccEXcu4d.s:580    .text:000000000000030c .LVL26
     /tmp/ccEXcu4d.s:605    .text:0000000000000330 .LVL29
     /tmp/ccEXcu4d.s:573    .text:0000000000000304 .LVL24
     /tmp/ccEXcu4d.s:623    .text:000000000000034c .LVL31
     /tmp/ccEXcu4d.s:588    .text:0000000000000314 .LVL27
     /tmp/ccEXcu4d.s:611    .text:000000000000033c .LVL30
     /tmp/ccEXcu4d.s:374    .text:0000000000000208 .LVL11
     /tmp/ccEXcu4d.s:410    .text:0000000000000248 .LVL14
     /tmp/ccEXcu4d.s:416    .text:0000000000000254 .LVL15
     /tmp/ccEXcu4d.s:500    .text:00000000000002b8 .LVL18
     /tmp/ccEXcu4d.s:509    .text:00000000000002bc .LVL19
GAS LISTING /tmp/ccEXcu4d.s 			page 49


     /tmp/ccEXcu4d.s:516    .text:00000000000002c0 .LVL20
     /tmp/ccEXcu4d.s:525    .text:00000000000002c4 .LVL21
     /tmp/ccEXcu4d.s:228    .text:0000000000000144 .LVL5
     /tmp/ccEXcu4d.s:245    .text:0000000000000160 .LVL6
     /tmp/ccEXcu4d.s:255    .text:000000000000016c .LVL7
     /tmp/ccEXcu4d.s:1227   .debug_info:0000000000000000 .Ldebug_info0

UNDEFINED SYMBOLS
_Z17kmem_cache_createPKcmPFvPvES3_
_Z16kmem_cache_allocP12kmem_cache_s
_Z11thread_exitv
contextSwitch
_Z13kern_mem_freePv
