GAS LISTING /tmp/ccWu4ZZR.s 			page 1


   1              		.file	"kern_threads.c"
   2              		.option nopic
   3              		.option norelax
   4              		.text
   5              	.Ltext0:
   6              		.cfi_sections	.debug_frame
   7              		.align	2
   8              		.globl	kern_thread_init
  10              	kern_thread_init:
  11              	.LFB0:
  12              		.file 1 "src/kern_threads.c"
   1:src/kern_threads.c **** //
   2:src/kern_threads.c **** // Created by os on 5/22/23.
   3:src/kern_threads.c **** //
   4:src/kern_threads.c **** 
   5:src/kern_threads.c **** #include "../h/kern_threads.h"
   6:src/kern_threads.c **** #include "../h/kern_interrupts.h"
   7:src/kern_threads.c **** #include "../lib/hw.h"
   8:src/kern_threads.c **** #include "../h/kern_memory.h"
   9:src/kern_threads.c **** 
  10:src/kern_threads.c **** #define MAX_THREADS 64
  11:src/kern_threads.c **** 
  12:src/kern_threads.c **** typedef struct thread_s* thread_t;
  13:src/kern_threads.c **** 
  14:src/kern_threads.c **** struct thread_s threads[MAX_THREADS];
  15:src/kern_threads.c **** static int id;
  16:src/kern_threads.c **** struct thread_s* running;
  17:src/kern_threads.c **** 
  18:src/kern_threads.c **** void kern_thread_init()
  19:src/kern_threads.c **** {
  13              		.loc 1 19 1
  14              		.cfi_startproc
  15 0000 130101FF 		addi	sp,sp,-16
  16              		.cfi_def_cfa_offset 16
  17 0004 23348100 		sd	s0,8(sp)
  18              		.cfi_offset 8, -8
  19 0008 13040101 		addi	s0,sp,16
  20              		.cfi_def_cfa 8, 0
  20:src/kern_threads.c ****     id=0;
  21              		.loc 1 20 5
  22              		.loc 1 20 7 is_stmt 0
  23 000c 97070000 		sw	zero,id,a5
  23      23A00700 
  21:src/kern_threads.c ****     for (int i=0;i<MAX_THREADS;i++){
  24              		.loc 1 21 5 is_stmt 1
  25              	.LBB2:
  26              		.loc 1 21 10
  27              	.LVL0:
  28              		.loc 1 21 14 is_stmt 0
  29 0014 93070000 		li	a5,0
  30              		.loc 1 21 5
  31 0018 6F004002 		j	.L2
  32              	.LVL1:
  33              	.L3:
  22:src/kern_threads.c ****         threads[i].status=UNUSED;
  34              		.loc 1 22 9 is_stmt 1 discriminator 3
  35              		.loc 1 22 26 is_stmt 0 discriminator 3
GAS LISTING /tmp/ccWu4ZZR.s 			page 2


  36 001c 13971700 		slli	a4,a5,1
  37 0020 3307F700 		add	a4,a4,a5
  38 0024 93165700 		slli	a3,a4,5
  39 0028 17070000 		lla	a4,threads
  39      13070700 
  40 0030 3307D700 		add	a4,a4,a3
  41 0034 23280704 		sw	zero,80(a4)
  21:src/kern_threads.c ****     for (int i=0;i<MAX_THREADS;i++){
  42              		.loc 1 21 32 is_stmt 1 discriminator 3
  21:src/kern_threads.c ****     for (int i=0;i<MAX_THREADS;i++){
  43              		.loc 1 21 33 is_stmt 0 discriminator 3
  44 0038 9B871700 		addiw	a5,a5,1
  45              	.LVL2:
  46              	.L2:
  21:src/kern_threads.c ****     for (int i=0;i<MAX_THREADS;i++){
  47              		.loc 1 21 18 is_stmt 1 discriminator 1
  21:src/kern_threads.c ****     for (int i=0;i<MAX_THREADS;i++){
  48              		.loc 1 21 5 is_stmt 0 discriminator 1
  49 003c 1307F003 		li	a4,63
  50 0040 E35EF7FC 		ble	a5,a4,.L3
  51              	.LBE2:
  23:src/kern_threads.c ****     }
  24:src/kern_threads.c **** 
  25:src/kern_threads.c ****     //set threads[0] as main thread
  26:src/kern_threads.c ****     threads[0].status=RUNNING;
  52              		.loc 1 26 5 is_stmt 1
  53              		.loc 1 26 22 is_stmt 0
  54 0044 97070000 		lla	a5,threads
  54      93870700 
  55              	.LVL3:
  56 004c 13071000 		li	a4,1
  57 0050 23A8E704 		sw	a4,80(a5)
  27:src/kern_threads.c ****     threads[0].id=0;
  58              		.loc 1 27 5 is_stmt 1
  59              		.loc 1 27 18 is_stmt 0
  60 0054 23B80700 		sd	zero,16(a5)
  28:src/kern_threads.c ****     threads[0].timeslice=DEFAULT_TIME_SLICE+2;
  61              		.loc 1 28 5 is_stmt 1
  62              		.loc 1 28 25 is_stmt 0
  63 0058 13074000 		li	a4,4
  64 005c 23B8E702 		sd	a4,48(a5)
  29:src/kern_threads.c ****     threads[0].endTime=0;
  65              		.loc 1 29 5 is_stmt 1
  66              		.loc 1 29 23 is_stmt 0
  67 0060 23BC0702 		sd	zero,56(a5)
  30:src/kern_threads.c ****     running=&threads[0];
  68              		.loc 1 30 5 is_stmt 1
  69              		.loc 1 30 12 is_stmt 0
  70 0064 17070000 		sd	a5,running,a4
  70      2330F700 
  31:src/kern_threads.c **** }
  71              		.loc 1 31 1
  72 006c 03348100 		ld	s0,8(sp)
  73              		.cfi_restore 8
  74              		.cfi_def_cfa 2, 16
  75 0070 13010101 		addi	sp,sp,16
  76              		.cfi_def_cfa_offset 0
GAS LISTING /tmp/ccWu4ZZR.s 			page 3


  77 0074 67800000 		jr	ra
  78              		.cfi_endproc
  79              	.LFE0:
  81              		.align	2
  82              		.globl	kern_scheduler_get
  84              	kern_scheduler_get:
  85              	.LFB1:
  32:src/kern_threads.c **** 
  33:src/kern_threads.c **** thread_t kern_scheduler_get()
  34:src/kern_threads.c **** {
  86              		.loc 1 34 1 is_stmt 1
  87              		.cfi_startproc
  88 0078 130101FF 		addi	sp,sp,-16
  89              		.cfi_def_cfa_offset 16
  90 007c 23348100 		sd	s0,8(sp)
  91              		.cfi_offset 8, -8
  92 0080 13040101 		addi	s0,sp,16
  93              		.cfi_def_cfa 8, 0
  35:src/kern_threads.c ****     int num = running-threads;
  94              		.loc 1 35 5
  95              		.loc 1 35 22 is_stmt 0
  96 0084 17050000 		ld	a0,running
  96      03350500 
  97 008c 97070000 		lla	a5,threads
  97      93870700 
  98 0094 B307F540 		sub	a5,a0,a5
  99 0098 93D75740 		srai	a5,a5,5
 100              		.loc 1 35 9
 101 009c 17070000 		ld	a4,.LC0
 101      03370700 
 102 00a4 BB87E702 		mulw	a5,a5,a4
 103              	.LVL4:
  36:src/kern_threads.c ****     for(int i=1;i<=MAX_THREADS;i++){
 104              		.loc 1 36 5 is_stmt 1
 105              	.LBB3:
 106              		.loc 1 36 9
 107              		.loc 1 36 13 is_stmt 0
 108 00a8 93061000 		li	a3,1
 109              	.LVL5:
 110              	.L6:
 111              		.loc 1 36 17 is_stmt 1 discriminator 1
 112              		.loc 1 36 5 is_stmt 0 discriminator 1
 113 00ac 13070004 		li	a4,64
 114 00b0 634CD706 		bgt	a3,a4,.L12
  37:src/kern_threads.c ****         num = (num+i)%MAX_THREADS;
 115              		.loc 1 37 9 is_stmt 1
 116              		.loc 1 37 19 is_stmt 0
 117 00b4 BB87D700 		addw	a5,a5,a3
 118              	.LVL6:
 119              		.loc 1 37 13
 120 00b8 1BD7F741 		sraiw	a4,a5,31
 121 00bc 1B57A701 		srliw	a4,a4,26
 122 00c0 BB87E700 		addw	a5,a5,a4
 123 00c4 93F7F703 		andi	a5,a5,63
 124 00c8 BB87E740 		subw	a5,a5,a4
  38:src/kern_threads.c ****         if(threads[num].status==READY){
 125              		.loc 1 38 9 is_stmt 1
GAS LISTING /tmp/ccWu4ZZR.s 			page 4


 126              		.loc 1 38 24 is_stmt 0
 127 00cc 13971700 		slli	a4,a5,1
 128 00d0 3307F700 		add	a4,a4,a5
 129 00d4 13165700 		slli	a2,a4,5
 130 00d8 17070000 		lla	a4,threads
 130      13070700 
 131 00e0 3307C700 		add	a4,a4,a2
 132 00e4 03260705 		lw	a2,80(a4)
 133              		.loc 1 38 11
 134 00e8 13072000 		li	a4,2
 135 00ec 6306E600 		beq	a2,a4,.L13
  36:src/kern_threads.c ****     for(int i=1;i<=MAX_THREADS;i++){
 136              		.loc 1 36 32 is_stmt 1 discriminator 2
  36:src/kern_threads.c ****     for(int i=1;i<=MAX_THREADS;i++){
 137              		.loc 1 36 33 is_stmt 0 discriminator 2
 138 00f0 9B861600 		addiw	a3,a3,1
 139              	.LVL7:
 140 00f4 6FF09FFB 		j	.L6
 141              	.LVL8:
 142              	.L13:
  39:src/kern_threads.c ****             threads[num].status=RUNNING;
 143              		.loc 1 39 13 is_stmt 1
 144              		.loc 1 39 32 is_stmt 0
 145 00f8 17060000 		lla	a2,threads
 145      13060600 
 146 0100 13971700 		slli	a4,a5,1
 147 0104 B305F700 		add	a1,a4,a5
 148 0108 93965500 		slli	a3,a1,5
 149              	.LVL9:
 150 010c B306D600 		add	a3,a2,a3
 151 0110 93051000 		li	a1,1
 152 0114 23A8B604 		sw	a1,80(a3)
  40:src/kern_threads.c ****             return &threads[num];
 153              		.loc 1 40 13 is_stmt 1
 154              		.loc 1 40 20 is_stmt 0
 155 0118 13850600 		mv	a0,a3
 156              	.L5:
 157              	.LBE3:
  41:src/kern_threads.c ****         }
  42:src/kern_threads.c ****     }
  43:src/kern_threads.c ****     if(running->status==READY || running->status==RUNNING) {
  44:src/kern_threads.c ****         running->status=RUNNING;
  45:src/kern_threads.c ****         return running;
  46:src/kern_threads.c ****     }
  47:src/kern_threads.c ****     return 0;
  48:src/kern_threads.c **** }
 158              		.loc 1 48 1
 159 011c 03348100 		ld	s0,8(sp)
 160              		.cfi_remember_state
 161              		.cfi_restore 8
 162              		.cfi_def_cfa 2, 16
 163 0120 13010101 		addi	sp,sp,16
 164              		.cfi_def_cfa_offset 0
 165 0124 67800000 		jr	ra
 166              	.LVL10:
 167              	.L12:
 168              		.cfi_restore_state
GAS LISTING /tmp/ccWu4ZZR.s 			page 5


  43:src/kern_threads.c ****         running->status=RUNNING;
 169              		.loc 1 43 5 is_stmt 1
  43:src/kern_threads.c ****         running->status=RUNNING;
 170              		.loc 1 43 15 is_stmt 0
 171 0128 83270505 		lw	a5,80(a0)
 172              	.LVL11:
  43:src/kern_threads.c ****         running->status=RUNNING;
 173              		.loc 1 43 31
 174 012c 9B87F7FF 		addiw	a5,a5,-1
  43:src/kern_threads.c ****         running->status=RUNNING;
 175              		.loc 1 43 7
 176 0130 13071000 		li	a4,1
 177 0134 6376F700 		bleu	a5,a4,.L14
  47:src/kern_threads.c **** }
 178              		.loc 1 47 12
 179 0138 13050000 		li	a0,0
 180 013c 6FF01FFE 		j	.L5
 181              	.L14:
  44:src/kern_threads.c ****         return running;
 182              		.loc 1 44 9 is_stmt 1
  44:src/kern_threads.c ****         return running;
 183              		.loc 1 44 24 is_stmt 0
 184 0140 93071000 		li	a5,1
 185 0144 2328F504 		sw	a5,80(a0)
  45:src/kern_threads.c ****     }
 186              		.loc 1 45 9 is_stmt 1
  45:src/kern_threads.c ****     }
 187              		.loc 1 45 16 is_stmt 0
 188 0148 6FF05FFD 		j	.L5
 189              		.cfi_endproc
 190              	.LFE1:
 192              		.align	2
 193              		.globl	kern_thread_yield
 195              	kern_thread_yield:
 196              	.LFB2:
  49:src/kern_threads.c **** 
  50:src/kern_threads.c **** void kern_thread_yield()
  51:src/kern_threads.c **** {
 197              		.loc 1 51 1 is_stmt 1
 198              		.cfi_startproc
 199 014c 130101FF 		addi	sp,sp,-16
 200              		.cfi_def_cfa_offset 16
 201 0150 23341100 		sd	ra,8(sp)
 202 0154 23308100 		sd	s0,0(sp)
 203              		.cfi_offset 1, -8
 204              		.cfi_offset 8, -16
 205 0158 13040101 		addi	s0,sp,16
 206              		.cfi_def_cfa 8, 0
  52:src/kern_threads.c ****     kern_syscall(THREAD_DISPATCH);
 207              		.loc 1 52 5
 208 015c 13053001 		li	a0,19
 209 0160 97000000 		call	kern_syscall
 209      E7800000 
 210              	.LVL12:
  53:src/kern_threads.c **** }
 211              		.loc 1 53 1 is_stmt 0
 212 0168 83308100 		ld	ra,8(sp)
GAS LISTING /tmp/ccWu4ZZR.s 			page 6


 213              		.cfi_restore 1
 214 016c 03340100 		ld	s0,0(sp)
 215              		.cfi_restore 8
 216              		.cfi_def_cfa 2, 16
 217 0170 13010101 		addi	sp,sp,16
 218              		.cfi_def_cfa_offset 0
 219 0174 67800000 		jr	ra
 220              		.cfi_endproc
 221              	.LFE2:
 223              		.align	2
 224              		.globl	popSppSpie
 226              	popSppSpie:
 227              	.LFB3:
  54:src/kern_threads.c **** 
  55:src/kern_threads.c **** //samo izlazi iz kernela i vraca se odakle je pozvana
  56:src/kern_threads.c **** void popSppSpie()
  57:src/kern_threads.c **** {
 228              		.loc 1 57 1 is_stmt 1
 229              		.cfi_startproc
 230 0178 130101FF 		addi	sp,sp,-16
 231              		.cfi_def_cfa_offset 16
 232 017c 23348100 		sd	s0,8(sp)
 233              		.cfi_offset 8, -8
 234 0180 13040101 		addi	s0,sp,16
 235              		.cfi_def_cfa 8, 0
  58:src/kern_threads.c ****     __asm__ volatile("csrw sepc, ra"); //ovde dodaj izlazak iz privilegovanog moda
 236              		.loc 1 58 5
 237              	#APP
 238              	# 58 "src/kern_threads.c" 1
  59              	    __asm__ volatile("csrc sstatus, %[mask]" : : [mask] "r"(1 << 8));
 239              		csrw sepc, ra
 240              	# 0 "" 2
 241              		.loc 1 59 5
 242              	#NO_APP
 243 0188 93070010 		li	a5,256
 244              	#APP
 245              	# 59 "src/kern_threads.c" 1
  60              	    __asm__ volatile("sret");
 246              		csrc sstatus, a5
 247              	# 0 "" 2
 248              		.loc 1 60 5
 249              	# 60 "src/kern_threads.c" 1
  61              	}
 250              		sret
 251              	# 0 "" 2
 252              		.loc 1 61 1 is_stmt 0
 253              	#NO_APP
 254 0194 03348100 		ld	s0,8(sp)
 255              		.cfi_restore 8
 256              		.cfi_def_cfa 2, 16
 257 0198 13010101 		addi	sp,sp,16
 258              		.cfi_def_cfa_offset 0
 259 019c 67800000 		jr	ra
 260              		.cfi_endproc
 261              	.LFE3:
 263              		.align	2
 264              		.globl	kern_thread_dispatch
GAS LISTING /tmp/ccWu4ZZR.s 			page 7


 266              	kern_thread_dispatch:
 267              	.LFB4:
  62:src/kern_threads.c **** 
  63:src/kern_threads.c **** extern void contextSwitch(thread_t old, thread_t new);
  64:src/kern_threads.c **** 
  65:src/kern_threads.c **** void kern_thread_dispatch()
  66:src/kern_threads.c **** {
 268              		.loc 1 66 1 is_stmt 1
 269              		.cfi_startproc
 270 01a0 130101FE 		addi	sp,sp,-32
 271              		.cfi_def_cfa_offset 32
 272 01a4 233C1100 		sd	ra,24(sp)
 273 01a8 23388100 		sd	s0,16(sp)
 274 01ac 23349100 		sd	s1,8(sp)
 275 01b0 23302101 		sd	s2,0(sp)
 276              		.cfi_offset 1, -8
 277              		.cfi_offset 8, -16
 278              		.cfi_offset 9, -24
 279              		.cfi_offset 18, -32
 280 01b4 13040102 		addi	s0,sp,32
 281              		.cfi_def_cfa 8, 0
  67:src/kern_threads.c ****     thread_t old = running;
 282              		.loc 1 67 5
 283              		.loc 1 67 14 is_stmt 0
 284 01b8 17090000 		lla	s2,running
 284      13090900 
 285 01c0 83340900 		ld	s1,0(s2)
 286              	.LVL13:
  68:src/kern_threads.c ****     running=kern_scheduler_get();
 287              		.loc 1 68 5 is_stmt 1
 288              		.loc 1 68 13 is_stmt 0
 289 01c4 97000000 		call	kern_scheduler_get
 289      E7800000 
 290              	.LVL14:
 291              		.loc 1 68 12
 292 01cc 2330A900 		sd	a0,0(s2)
  69:src/kern_threads.c ****     if(old!=running){
 293              		.loc 1 69 5 is_stmt 1
 294              		.loc 1 69 7 is_stmt 0
 295 01d0 63049502 		beq	a0,s1,.L19
 296 01d4 93050500 		mv	a1,a0
  70:src/kern_threads.c ****         running->status=RUNNING;
 297              		.loc 1 70 9 is_stmt 1
 298              		.loc 1 70 24 is_stmt 0
 299 01d8 93071000 		li	a5,1
 300 01dc 2328F504 		sw	a5,80(a0)
  71:src/kern_threads.c ****         if(old->status==RUNNING) old->status=READY;
 301              		.loc 1 71 9 is_stmt 1
 302              		.loc 1 71 15 is_stmt 0
 303 01e0 03A70405 		lw	a4,80(s1)
 304              		.loc 1 71 11
 305 01e4 93071000 		li	a5,1
 306 01e8 6304F702 		beq	a4,a5,.L23
 307              	.L21:
  72:src/kern_threads.c ****         contextSwitch(old,running);
 308              		.loc 1 72 9 is_stmt 1
 309 01ec 13850400 		mv	a0,s1
GAS LISTING /tmp/ccWu4ZZR.s 			page 8


 310 01f0 97000000 		call	contextSwitch
 310      E7800000 
 311              	.LVL15:
 312              	.L19:
  73:src/kern_threads.c ****     }
  74:src/kern_threads.c **** }
 313              		.loc 1 74 1 is_stmt 0
 314 01f8 83308101 		ld	ra,24(sp)
 315              		.cfi_remember_state
 316              		.cfi_restore 1
 317 01fc 03340101 		ld	s0,16(sp)
 318              		.cfi_restore 8
 319              		.cfi_def_cfa 2, 32
 320 0200 83348100 		ld	s1,8(sp)
 321              		.cfi_restore 9
 322              	.LVL16:
 323 0204 03390100 		ld	s2,0(sp)
 324              		.cfi_restore 18
 325 0208 13010102 		addi	sp,sp,32
 326              		.cfi_def_cfa_offset 0
 327 020c 67800000 		jr	ra
 328              	.LVL17:
 329              	.L23:
 330              		.cfi_restore_state
  71:src/kern_threads.c ****         contextSwitch(old,running);
 331              		.loc 1 71 34 is_stmt 1 discriminator 1
  71:src/kern_threads.c ****         contextSwitch(old,running);
 332              		.loc 1 71 45 is_stmt 0 discriminator 1
 333 0210 93072000 		li	a5,2
 334 0214 23A8F404 		sw	a5,80(s1)
 335 0218 6FF05FFD 		j	.L21
 336              		.cfi_endproc
 337              	.LFE4:
 339              		.align	2
 340              		.globl	kern_thread_end_running
 342              	kern_thread_end_running:
 343              	.LFB5:
  75:src/kern_threads.c **** 
  76:src/kern_threads.c **** void kern_thread_end_running()
  77:src/kern_threads.c **** {
 344              		.loc 1 77 1 is_stmt 1
 345              		.cfi_startproc
 346 021c 130101FE 		addi	sp,sp,-32
 347              		.cfi_def_cfa_offset 32
 348 0220 233C1100 		sd	ra,24(sp)
 349 0224 23388100 		sd	s0,16(sp)
 350 0228 23349100 		sd	s1,8(sp)
 351              		.cfi_offset 1, -8
 352              		.cfi_offset 8, -16
 353              		.cfi_offset 9, -24
 354 022c 13040102 		addi	s0,sp,32
 355              		.cfi_def_cfa 8, 0
  78:src/kern_threads.c ****     thread_t old = running;
 356              		.loc 1 78 5
 357              		.loc 1 78 14 is_stmt 0
 358 0230 97040000 		ld	s1,running
 358      83B40400 
GAS LISTING /tmp/ccWu4ZZR.s 			page 9


 359              	.LVL18:
  79:src/kern_threads.c ****     old->status=UNUSED;
 360              		.loc 1 79 5 is_stmt 1
 361              		.loc 1 79 16 is_stmt 0
 362 0238 23A80404 		sw	zero,80(s1)
  80:src/kern_threads.c ****     for(int i=0;i<MAX_THREADS;i++){
 363              		.loc 1 80 5 is_stmt 1
 364              	.LBB4:
 365              		.loc 1 80 9
 366              	.LVL19:
 367              		.loc 1 80 13 is_stmt 0
 368 023c 13070000 		li	a4,0
 369              		.loc 1 80 5
 370 0240 6F008000 		j	.L25
 371              	.LVL20:
 372              	.L26:
 373              		.loc 1 80 31 is_stmt 1 discriminator 2
 374              		.loc 1 80 32 is_stmt 0 discriminator 2
 375 0244 1B071700 		addiw	a4,a4,1
 376              	.LVL21:
 377              	.L25:
 378              		.loc 1 80 17 is_stmt 1 discriminator 1
 379              		.loc 1 80 5 is_stmt 0 discriminator 1
 380 0248 9307F003 		li	a5,63
 381 024c 63C8E706 		bgt	a4,a5,.L31
  81:src/kern_threads.c ****         if(threads[i].status==JOINED && threads[i].joined_tid==old->id) threads[i].status=READY;
 382              		.loc 1 81 9 is_stmt 1
 383              		.loc 1 81 22 is_stmt 0
 384 0250 93171700 		slli	a5,a4,1
 385 0254 B387E700 		add	a5,a5,a4
 386 0258 93975700 		slli	a5,a5,5
 387 025c 97060000 		lla	a3,threads
 387      93860600 
 388 0264 B387F600 		add	a5,a3,a5
 389 0268 83A60705 		lw	a3,80(a5)
 390              		.loc 1 81 11
 391 026c 93074000 		li	a5,4
 392 0270 E39AF6FC 		bne	a3,a5,.L26
 393              		.loc 1 81 51 discriminator 1
 394 0274 93171700 		slli	a5,a4,1
 395 0278 B387E700 		add	a5,a5,a4
 396 027c 93975700 		slli	a5,a5,5
 397 0280 97060000 		lla	a3,threads
 397      93860600 
 398 0288 B387F600 		add	a5,a3,a5
 399 028c 83B68702 		ld	a3,40(a5)
 400              		.loc 1 81 67 discriminator 1
 401 0290 83B70401 		ld	a5,16(s1)
 402              		.loc 1 81 38 discriminator 1
 403 0294 E398F6FA 		bne	a3,a5,.L26
 404              		.loc 1 81 73 is_stmt 1 discriminator 2
 405              		.loc 1 81 90 is_stmt 0 discriminator 2
 406 0298 93171700 		slli	a5,a4,1
 407 029c B387E700 		add	a5,a5,a4
 408 02a0 93975700 		slli	a5,a5,5
 409 02a4 97060000 		lla	a3,threads
 409      93860600 
GAS LISTING /tmp/ccWu4ZZR.s 			page 10


 410 02ac B387F600 		add	a5,a3,a5
 411 02b0 93062000 		li	a3,2
 412 02b4 23A8D704 		sw	a3,80(a5)
 413 02b8 6FF0DFF8 		j	.L26
 414              	.L31:
 415              	.LBE4:
  82:src/kern_threads.c ****     }
  83:src/kern_threads.c ****     running=kern_scheduler_get();
 416              		.loc 1 83 5 is_stmt 1
 417              		.loc 1 83 13 is_stmt 0
 418 02bc 97000000 		call	kern_scheduler_get
 418      E7800000 
 419              	.LVL22:
 420              		.loc 1 83 12
 421 02c4 97070000 		sd	a0,running,a5
 421      23B0A700 
  84:src/kern_threads.c ****     if(old->stack_space!=0) kern_mem_free((void*)old->stack_space);
 422              		.loc 1 84 5 is_stmt 1
 423              		.loc 1 84 11 is_stmt 0
 424 02cc 03B50404 		ld	a0,64(s1)
 425              		.loc 1 84 7
 426 02d0 63180502 		bnez	a0,.L32
 427              	.L28:
  85:src/kern_threads.c ****     if(old!=running){
 428              		.loc 1 85 5 is_stmt 1
 429              		.loc 1 85 11 is_stmt 0
 430 02d4 97050000 		ld	a1,running
 430      83B50500 
 431              		.loc 1 85 7
 432 02dc 63889500 		beq	a1,s1,.L24
  86:src/kern_threads.c ****         contextSwitch(old,running);
 433              		.loc 1 86 9 is_stmt 1
 434 02e0 13850400 		mv	a0,s1
 435 02e4 97000000 		call	contextSwitch
 435      E7800000 
 436              	.LVL23:
 437              	.L24:
  87:src/kern_threads.c ****     }
  88:src/kern_threads.c **** }
 438              		.loc 1 88 1 is_stmt 0
 439 02ec 83308101 		ld	ra,24(sp)
 440              		.cfi_remember_state
 441              		.cfi_restore 1
 442 02f0 03340101 		ld	s0,16(sp)
 443              		.cfi_restore 8
 444              		.cfi_def_cfa 2, 32
 445 02f4 83348100 		ld	s1,8(sp)
 446              		.cfi_restore 9
 447              	.LVL24:
 448 02f8 13010102 		addi	sp,sp,32
 449              		.cfi_def_cfa_offset 0
 450 02fc 67800000 		jr	ra
 451              	.LVL25:
 452              	.L32:
 453              		.cfi_restore_state
  84:src/kern_threads.c ****     if(old!=running){
 454              		.loc 1 84 29 is_stmt 1 discriminator 1
GAS LISTING /tmp/ccWu4ZZR.s 			page 11


 455 0300 97000000 		call	kern_mem_free
 455      E7800000 
 456              	.LVL26:
 457 0308 6FF0DFFC 		j	.L28
 458              		.cfi_endproc
 459              	.LFE5:
 461              		.align	2
 462              		.globl	kern_thread_wrapper
 464              	kern_thread_wrapper:
 465              	.LFB6:
  89:src/kern_threads.c **** 
  90:src/kern_threads.c **** void kern_thread_wrapper()
  91:src/kern_threads.c **** {
 466              		.loc 1 91 1
 467              		.cfi_startproc
 468 030c 130101FE 		addi	sp,sp,-32
 469              		.cfi_def_cfa_offset 32
 470 0310 233C1100 		sd	ra,24(sp)
 471 0314 23388100 		sd	s0,16(sp)
 472 0318 23349100 		sd	s1,8(sp)
 473              		.cfi_offset 1, -8
 474              		.cfi_offset 8, -16
 475              		.cfi_offset 9, -24
 476 031c 13040102 		addi	s0,sp,32
 477              		.cfi_def_cfa 8, 0
  92:src/kern_threads.c ****     popSppSpie();
 478              		.loc 1 92 5
 479 0320 97000000 		call	popSppSpie
 479      E7800000 
 480              	.LVL27:
  93:src/kern_threads.c ****     running->body(running->arg);
 481              		.loc 1 93 5
 482              		.loc 1 93 12 is_stmt 0
 483 0328 97040000 		lla	s1,running
 483      93840400 
 484 0330 83B70400 		ld	a5,0(s1)
 485 0334 03B78701 		ld	a4,24(a5)
 486              		.loc 1 93 5
 487 0338 03B50702 		ld	a0,32(a5)
 488 033c E7000700 		jalr	a4
 489              	.LVL28:
  94:src/kern_threads.c ****     running->status=UNUSED;
 490              		.loc 1 94 5 is_stmt 1
 491              		.loc 1 94 12 is_stmt 0
 492 0340 03B60400 		ld	a2,0(s1)
 493              		.loc 1 94 20
 494 0344 23280604 		sw	zero,80(a2)
  95:src/kern_threads.c ****     running->sem_next=0;
 495              		.loc 1 95 5 is_stmt 1
 496              		.loc 1 95 22 is_stmt 0
 497 0348 233C0604 		sd	zero,88(a2)
  96:src/kern_threads.c ****     running->joined_tid=-1;
 498              		.loc 1 96 5 is_stmt 1
 499              		.loc 1 96 24 is_stmt 0
 500 034c 9307F0FF 		li	a5,-1
 501 0350 2334F602 		sd	a5,40(a2)
  97:src/kern_threads.c ****     for(int i=0;i<MAX_THREADS;i++){
GAS LISTING /tmp/ccWu4ZZR.s 			page 12


 502              		.loc 1 97 5 is_stmt 1
 503              	.LBB5:
 504              		.loc 1 97 9
 505              	.LVL29:
 506              		.loc 1 97 13 is_stmt 0
 507 0354 93070000 		li	a5,0
 508              		.loc 1 97 5
 509 0358 6F008000 		j	.L34
 510              	.LVL30:
 511              	.L35:
 512              		.loc 1 97 31 is_stmt 1 discriminator 2
 513              		.loc 1 97 32 is_stmt 0 discriminator 2
 514 035c 9B871700 		addiw	a5,a5,1
 515              	.LVL31:
 516              	.L34:
 517              		.loc 1 97 17 is_stmt 1 discriminator 1
 518              		.loc 1 97 5 is_stmt 0 discriminator 1
 519 0360 1307F003 		li	a4,63
 520 0364 6348F706 		bgt	a5,a4,.L38
  98:src/kern_threads.c ****         if(threads[i].status==JOINED && threads[i].joined_tid==running->id) threads[i].status=READY
 521              		.loc 1 98 9 is_stmt 1
 522              		.loc 1 98 22 is_stmt 0
 523 0368 13971700 		slli	a4,a5,1
 524 036c 3307F700 		add	a4,a4,a5
 525 0370 93165700 		slli	a3,a4,5
 526 0374 17070000 		lla	a4,threads
 526      13070700 
 527 037c 3307D700 		add	a4,a4,a3
 528 0380 83260705 		lw	a3,80(a4)
 529              		.loc 1 98 11
 530 0384 13074000 		li	a4,4
 531 0388 E39AE6FC 		bne	a3,a4,.L35
 532              		.loc 1 98 51 discriminator 1
 533 038c 13971700 		slli	a4,a5,1
 534 0390 3307F700 		add	a4,a4,a5
 535 0394 93165700 		slli	a3,a4,5
 536 0398 17070000 		lla	a4,threads
 536      13070700 
 537 03a0 3307D700 		add	a4,a4,a3
 538 03a4 83368702 		ld	a3,40(a4)
 539              		.loc 1 98 71 discriminator 1
 540 03a8 03370601 		ld	a4,16(a2)
 541              		.loc 1 98 38 discriminator 1
 542 03ac E398E6FA 		bne	a3,a4,.L35
 543              		.loc 1 98 77 is_stmt 1 discriminator 2
 544              		.loc 1 98 94 is_stmt 0 discriminator 2
 545 03b0 13971700 		slli	a4,a5,1
 546 03b4 3307F700 		add	a4,a4,a5
 547 03b8 93165700 		slli	a3,a4,5
 548 03bc 17070000 		lla	a4,threads
 548      13070700 
 549 03c4 3307D700 		add	a4,a4,a3
 550 03c8 93062000 		li	a3,2
 551 03cc 2328D704 		sw	a3,80(a4)
 552 03d0 6FF0DFF8 		j	.L35
 553              	.L38:
 554              	.LBE5:
GAS LISTING /tmp/ccWu4ZZR.s 			page 13


  99:src/kern_threads.c ****     }
 100:src/kern_threads.c **** 
 101:src/kern_threads.c ****     kern_thread_end_running();
 555              		.loc 1 101 5 is_stmt 1
 556 03d4 97000000 		call	kern_thread_end_running
 556      E7800000 
 557              	.LVL32:
 102:src/kern_threads.c **** }
 558              		.loc 1 102 1 is_stmt 0
 559 03dc 83308101 		ld	ra,24(sp)
 560              		.cfi_restore 1
 561 03e0 03340101 		ld	s0,16(sp)
 562              		.cfi_restore 8
 563              		.cfi_def_cfa 2, 32
 564 03e4 83348100 		ld	s1,8(sp)
 565              		.cfi_restore 9
 566 03e8 13010102 		addi	sp,sp,32
 567              		.cfi_def_cfa_offset 0
 568 03ec 67800000 		jr	ra
 569              		.cfi_endproc
 570              	.LFE6:
 572              		.align	2
 573              		.globl	kern_thread_create
 575              	kern_thread_create:
 576              	.LFB7:
 103:src/kern_threads.c **** 
 104:src/kern_threads.c **** int kern_thread_create(thread_t* handle, void(*start_routine)(void*), void* arg, void* stack_space)
 105:src/kern_threads.c **** {
 577              		.loc 1 105 1 is_stmt 1
 578              		.cfi_startproc
 579              	.LVL33:
 580 03f0 130101FF 		addi	sp,sp,-16
 581              		.cfi_def_cfa_offset 16
 582 03f4 23348100 		sd	s0,8(sp)
 583              		.cfi_offset 8, -8
 584 03f8 13040101 		addi	s0,sp,16
 585              		.cfi_def_cfa 8, 0
 106:src/kern_threads.c ****     *handle=0;
 586              		.loc 1 106 5
 587              		.loc 1 106 12 is_stmt 0
 588 03fc 23300500 		sd	zero,0(a0)
 107:src/kern_threads.c ****     thread_t t=&threads[0]; //dodela da bismo sklonili upozorenje
 589              		.loc 1 107 5 is_stmt 1
 590              	.LVL34:
 108:src/kern_threads.c ****     for(int i=0;i<MAX_THREADS;i++){
 591              		.loc 1 108 5
 592              	.LBB6:
 593              		.loc 1 108 9
 594              		.loc 1 108 13 is_stmt 0
 595 0400 13070000 		li	a4,0
 596              	.LVL35:
 597              	.L40:
 598              		.loc 1 108 17 is_stmt 1 discriminator 1
 599              		.loc 1 108 5 is_stmt 0 discriminator 1
 600 0404 9307F003 		li	a5,63
 601 0408 63CCE70A 		bgt	a4,a5,.L47
 109:src/kern_threads.c ****         if(threads[i].status==UNUSED){
GAS LISTING /tmp/ccWu4ZZR.s 			page 14


 602              		.loc 1 109 9 is_stmt 1
 603              		.loc 1 109 22 is_stmt 0
 604 040c 93171700 		slli	a5,a4,1
 605 0410 B387E700 		add	a5,a5,a4
 606 0414 93975700 		slli	a5,a5,5
 607 0418 17080000 		lla	a6,threads
 607      13080800 
 608 0420 B307F800 		add	a5,a6,a5
 609 0424 83A70705 		lw	a5,80(a5)
 610              		.loc 1 109 11
 611 0428 63860700 		beqz	a5,.L48
 108:src/kern_threads.c ****     for(int i=0;i<MAX_THREADS;i++){
 612              		.loc 1 108 31 is_stmt 1 discriminator 2
 108:src/kern_threads.c ****     for(int i=0;i<MAX_THREADS;i++){
 613              		.loc 1 108 32 is_stmt 0 discriminator 2
 614 042c 1B071700 		addiw	a4,a4,1
 615              	.LVL36:
 616 0430 6FF05FFD 		j	.L40
 617              	.LVL37:
 618              	.L48:
 110:src/kern_threads.c ****             *handle=&threads[i];
 619              		.loc 1 110 13 is_stmt 1
 620              		.loc 1 110 21 is_stmt 0
 621 0434 93171700 		slli	a5,a4,1
 622 0438 B387E700 		add	a5,a5,a4
 623 043c 93975700 		slli	a5,a5,5
 624 0440 B3870701 		add	a5,a5,a6
 625              		.loc 1 110 20
 626 0444 2330F500 		sd	a5,0(a0)
 111:src/kern_threads.c ****             t=&threads[i];
 627              		.loc 1 111 13 is_stmt 1
 628              	.LVL38:
 112:src/kern_threads.c ****             break;
 629              		.loc 1 112 13
 630              	.L42:
 631              	.LBE6:
 113:src/kern_threads.c ****         }
 114:src/kern_threads.c ****     }
 115:src/kern_threads.c ****     if(*handle==0) return -1;
 632              		.loc 1 115 5
 633              		.loc 1 115 8 is_stmt 0
 634 0448 03370500 		ld	a4,0(a0)
 635              	.LVL39:
 636              		.loc 1 115 7
 637 044c 63000708 		beqz	a4,.L45
 116:src/kern_threads.c **** 
 117:src/kern_threads.c ****     t->id=++id;
 638              		.loc 1 117 5 is_stmt 1
 639              		.loc 1 117 11 is_stmt 0
 640 0450 17050000 		lla	a0,id
 640      13050500 
 641              	.LVL40:
 642 0458 03270500 		lw	a4,0(a0)
 643 045c 1B071700 		addiw	a4,a4,1
 644 0460 1B080700 		sext.w	a6,a4
 645              		.loc 1 117 10
 646 0464 2320E500 		sw	a4,0(a0)
GAS LISTING /tmp/ccWu4ZZR.s 			page 15


 647 0468 23B80701 		sd	a6,16(a5)
 118:src/kern_threads.c ****     t->status=READY;
 648              		.loc 1 118 5 is_stmt 1
 649              		.loc 1 118 14 is_stmt 0
 650 046c 13072000 		li	a4,2
 651 0470 23A8E704 		sw	a4,80(a5)
 119:src/kern_threads.c ****     t->arg=arg;
 652              		.loc 1 119 5 is_stmt 1
 653              		.loc 1 119 11 is_stmt 0
 654 0474 23B0C702 		sd	a2,32(a5)
 120:src/kern_threads.c ****     t->joined_tid=-1;
 655              		.loc 1 120 5 is_stmt 1
 656              		.loc 1 120 18 is_stmt 0
 657 0478 1307F0FF 		li	a4,-1
 658 047c 23B4E702 		sd	a4,40(a5)
 121:src/kern_threads.c ****     t->timeslice=DEFAULT_TIME_SLICE;
 659              		.loc 1 121 5 is_stmt 1
 660              		.loc 1 121 17 is_stmt 0
 661 0480 13072000 		li	a4,2
 662 0484 23B8E702 		sd	a4,48(a5)
 122:src/kern_threads.c ****     t->body=start_routine;
 663              		.loc 1 122 5 is_stmt 1
 664              		.loc 1 122 12 is_stmt 0
 665 0488 23BCB700 		sd	a1,24(a5)
 123:src/kern_threads.c ****     t->stack_space = ((uint64)stack_space);
 666              		.loc 1 123 5 is_stmt 1
 667              		.loc 1 123 20 is_stmt 0
 668 048c 23B0D704 		sd	a3,64(a5)
 124:src/kern_threads.c ****     t->sp = t->stack_space+(DEFAULT_STACK_SIZE);
 669              		.loc 1 124 5 is_stmt 1
 670              		.loc 1 124 27 is_stmt 0
 671 0490 37170000 		li	a4,4096
 672 0494 B386E600 		add	a3,a3,a4
 673              	.LVL41:
 674              		.loc 1 124 11
 675 0498 23B4D700 		sd	a3,8(a5)
 125:src/kern_threads.c ****     t->ra=(uint64) &kern_thread_wrapper;
 676              		.loc 1 125 5 is_stmt 1
 677              		.loc 1 125 11 is_stmt 0
 678 049c 17070000 		lla	a4,kern_thread_wrapper
 678      13070700 
 679              		.loc 1 125 10
 680 04a4 23B0E700 		sd	a4,0(a5)
 126:src/kern_threads.c ****     t->sem_next=0;
 681              		.loc 1 126 5 is_stmt 1
 682              		.loc 1 126 16 is_stmt 0
 683 04a8 23BC0704 		sd	zero,88(a5)
 127:src/kern_threads.c ****     t->mailbox=0;
 684              		.loc 1 127 5 is_stmt 1
 685              		.loc 1 127 15 is_stmt 0
 686 04ac 23B40704 		sd	zero,72(a5)
 128:src/kern_threads.c **** 
 129:src/kern_threads.c ****     return 0;
 687              		.loc 1 129 5 is_stmt 1
 688              		.loc 1 129 12 is_stmt 0
 689 04b0 13050000 		li	a0,0
 690              	.LVL42:
GAS LISTING /tmp/ccWu4ZZR.s 			page 16


 691              	.L44:
 130:src/kern_threads.c **** }
 692              		.loc 1 130 1
 693 04b4 03348100 		ld	s0,8(sp)
 694              		.cfi_remember_state
 695              		.cfi_restore 8
 696              		.cfi_def_cfa 2, 16
 697 04b8 13010101 		addi	sp,sp,16
 698              		.cfi_def_cfa_offset 0
 699 04bc 67800000 		jr	ra
 700              	.LVL43:
 701              	.L47:
 702              		.cfi_restore_state
 107:src/kern_threads.c ****     for(int i=0;i<MAX_THREADS;i++){
 703              		.loc 1 107 14
 704 04c0 97070000 		lla	a5,threads
 704      93870700 
 705 04c8 6FF01FF8 		j	.L42
 706              	.LVL44:
 707              	.L45:
 115:src/kern_threads.c **** 
 708              		.loc 1 115 27
 709 04cc 1305F0FF 		li	a0,-1
 710              	.LVL45:
 711 04d0 6FF05FFE 		j	.L44
 712              		.cfi_endproc
 713              	.LFE7:
 715              		.align	2
 716              		.globl	kern_thread_join
 718              	kern_thread_join:
 719              	.LFB8:
 131:src/kern_threads.c **** 
 132:src/kern_threads.c **** void kern_thread_join(thread_t handle)
 133:src/kern_threads.c **** {
 720              		.loc 1 133 1 is_stmt 1
 721              		.cfi_startproc
 722              	.LVL46:
 134:src/kern_threads.c ****     if(handle->status==UNUSED) return;
 723              		.loc 1 134 5
 724              		.loc 1 134 14 is_stmt 0
 725 04d4 83270505 		lw	a5,80(a0)
 726              		.loc 1 134 7
 727 04d8 63940700 		bnez	a5,.L55
 728 04dc 67800000 		ret
 729              	.L55:
 133:src/kern_threads.c ****     if(handle->status==UNUSED) return;
 730              		.loc 1 133 1
 731 04e0 130101FF 		addi	sp,sp,-16
 732              		.cfi_def_cfa_offset 16
 733 04e4 23341100 		sd	ra,8(sp)
 734 04e8 23308100 		sd	s0,0(sp)
 735              		.cfi_offset 1, -8
 736              		.cfi_offset 8, -16
 737 04ec 13040101 		addi	s0,sp,16
 738              		.cfi_def_cfa 8, 0
 135:src/kern_threads.c ****     running->joined_tid=handle->id;
 739              		.loc 1 135 5 is_stmt 1
GAS LISTING /tmp/ccWu4ZZR.s 			page 17


 740              		.loc 1 135 12 is_stmt 0
 741 04f0 97070000 		ld	a5,running
 741      83B70700 
 742              		.loc 1 135 31
 743 04f8 03370501 		ld	a4,16(a0)
 744              		.loc 1 135 24
 745 04fc 23B4E702 		sd	a4,40(a5)
 136:src/kern_threads.c ****     running->status=JOINED;
 746              		.loc 1 136 5 is_stmt 1
 747              		.loc 1 136 20 is_stmt 0
 748 0500 13074000 		li	a4,4
 749 0504 23A8E704 		sw	a4,80(a5)
 137:src/kern_threads.c ****     kern_thread_dispatch();
 750              		.loc 1 137 5 is_stmt 1
 751 0508 97000000 		call	kern_thread_dispatch
 751      E7800000 
 752              	.LVL47:
 138:src/kern_threads.c **** }
 753              		.loc 1 138 1 is_stmt 0
 754 0510 83308100 		ld	ra,8(sp)
 755              		.cfi_restore 1
 756 0514 03340100 		ld	s0,0(sp)
 757              		.cfi_restore 8
 758              		.cfi_def_cfa 2, 16
 759 0518 13010101 		addi	sp,sp,16
 760              		.cfi_def_cfa_offset 0
 761 051c 67800000 		jr	ra
 762              		.cfi_endproc
 763              	.LFE8:
 765              		.align	2
 766              		.globl	kern_thread_wakeup
 768              	kern_thread_wakeup:
 769              	.LFB9:
 139:src/kern_threads.c **** 
 140:src/kern_threads.c **** void kern_thread_wakeup(uint64 system_time)
 141:src/kern_threads.c **** {
 770              		.loc 1 141 1 is_stmt 1
 771              		.cfi_startproc
 772              	.LVL48:
 773 0520 130101FF 		addi	sp,sp,-16
 774              		.cfi_def_cfa_offset 16
 775 0524 23348100 		sd	s0,8(sp)
 776              		.cfi_offset 8, -8
 777 0528 13040101 		addi	s0,sp,16
 778              		.cfi_def_cfa 8, 0
 142:src/kern_threads.c ****     for(int i=0;i<MAX_THREADS;i++){
 779              		.loc 1 142 5
 780              	.LBB7:
 781              		.loc 1 142 9
 782              	.LVL49:
 783              		.loc 1 142 13 is_stmt 0
 784 052c 93070000 		li	a5,0
 785              		.loc 1 142 5
 786 0530 6F008000 		j	.L57
 787              	.LVL50:
 788              	.L58:
 789              		.loc 1 142 31 is_stmt 1 discriminator 2
GAS LISTING /tmp/ccWu4ZZR.s 			page 18


 790              		.loc 1 142 32 is_stmt 0 discriminator 2
 791 0534 9B871700 		addiw	a5,a5,1
 792              	.LVL51:
 793              	.L57:
 794              		.loc 1 142 17 is_stmt 1 discriminator 1
 795              		.loc 1 142 5 is_stmt 0 discriminator 1
 796 0538 1307F003 		li	a4,63
 797 053c 6342F706 		bgt	a5,a4,.L61
 143:src/kern_threads.c ****         if(threads[i].status==SLEEPING && threads[i].endTime<system_time){
 798              		.loc 1 143 9 is_stmt 1
 799              		.loc 1 143 22 is_stmt 0
 800 0540 13971700 		slli	a4,a5,1
 801 0544 3307F700 		add	a4,a4,a5
 802 0548 13175700 		slli	a4,a4,5
 803 054c 97060000 		lla	a3,threads
 803      93860600 
 804 0554 3387E600 		add	a4,a3,a4
 805 0558 83260705 		lw	a3,80(a4)
 806              		.loc 1 143 11
 807 055c 13075000 		li	a4,5
 808 0560 E39AE6FC 		bne	a3,a4,.L58
 809              		.loc 1 143 53 discriminator 1
 810 0564 13971700 		slli	a4,a5,1
 811 0568 3307F700 		add	a4,a4,a5
 812 056c 13175700 		slli	a4,a4,5
 813 0570 97060000 		lla	a3,threads
 813      93860600 
 814 0578 3387E600 		add	a4,a3,a4
 815 057c 03378703 		ld	a4,56(a4)
 816              		.loc 1 143 40 discriminator 1
 817 0580 E37AA7FA 		bgeu	a4,a0,.L58
 144:src/kern_threads.c ****             threads[i].status=READY;
 818              		.loc 1 144 13 is_stmt 1
 819              		.loc 1 144 30 is_stmt 0
 820 0584 13971700 		slli	a4,a5,1
 821 0588 3307F700 		add	a4,a4,a5
 822 058c 13175700 		slli	a4,a4,5
 823 0590 3387E600 		add	a4,a3,a4
 824 0594 93062000 		li	a3,2
 825 0598 2328D704 		sw	a3,80(a4)
 826 059c 6FF09FF9 		j	.L58
 827              	.L61:
 828              	.LBE7:
 145:src/kern_threads.c ****         }
 146:src/kern_threads.c ****     }
 147:src/kern_threads.c **** }
 829              		.loc 1 147 1
 830 05a0 03348100 		ld	s0,8(sp)
 831              		.cfi_restore 8
 832              		.cfi_def_cfa 2, 16
 833 05a4 13010101 		addi	sp,sp,16
 834              		.cfi_def_cfa_offset 0
 835 05a8 67800000 		jr	ra
 836              		.cfi_endproc
 837              	.LFE9:
 839              		.globl	running
 840              		.globl	threads
GAS LISTING /tmp/ccWu4ZZR.s 			page 19


 841              		.section	.srodata.cst8,"aM",@progbits,8
 842              		.align	3
 843              	.LC0:
 844 0000 ABAAAAAA 		.dword	-6148914691236517205
 844      AAAAAAAA 
 845              		.bss
 846              		.align	3
 849              	threads:
 850 0000 00000000 		.zero	6144
 850      00000000 
 850      00000000 
 850      00000000 
 850      00000000 
 851              		.section	.sbss,"aw",@nobits
 852              		.align	3
 855              	running:
 856 0000 00000000 		.zero	8
 856      00000000 
 859              	id:
 860 0008 00000000 		.zero	4
 861              		.text
 862              	.Letext0:
 863              		.file 2 "src/../h/../lib/hw.h"
 864              		.file 3 "src/../h/kern_threads.h"
 865              		.file 4 "src/../h/kern_interrupts.h"
 866              		.file 5 "src/../h/kern_memory.h"
GAS LISTING /tmp/ccWu4ZZR.s 			page 20


DEFINED SYMBOLS
                            *ABS*:0000000000000000 kern_threads.c
     /tmp/ccWu4ZZR.s:10     .text:0000000000000000 kern_thread_init
     /tmp/ccWu4ZZR.s:14     .text:0000000000000000 .L0 
     /tmp/ccWu4ZZR.s:15     .text:0000000000000000 .L0 
     /tmp/ccWu4ZZR.s:16     .text:0000000000000004 .L0 
     /tmp/ccWu4ZZR.s:18     .text:0000000000000008 .L0 
     /tmp/ccWu4ZZR.s:20     .text:000000000000000c .L0 
     /tmp/ccWu4ZZR.s:22     .text:000000000000000c .L0 
     /tmp/ccWu4ZZR.s:859    .sbss:0000000000000008 id
     /tmp/ccWu4ZZR.s:23     .text:000000000000000c .L0 
     /tmp/ccWu4ZZR.s:26     .text:0000000000000014 .L0 
     /tmp/ccWu4ZZR.s:28     .text:0000000000000014 .L0 
     /tmp/ccWu4ZZR.s:29     .text:0000000000000014 .L0 
     /tmp/ccWu4ZZR.s:31     .text:0000000000000018 .L0 
     /tmp/ccWu4ZZR.s:35     .text:000000000000001c .L0 
     /tmp/ccWu4ZZR.s:36     .text:000000000000001c .L0 
     /tmp/ccWu4ZZR.s:849    .bss:0000000000000000 threads
     /tmp/ccWu4ZZR.s:43     .text:0000000000000038 .L0 
     /tmp/ccWu4ZZR.s:44     .text:0000000000000038 .L0 
     /tmp/ccWu4ZZR.s:48     .text:000000000000003c .L0 
     /tmp/ccWu4ZZR.s:49     .text:000000000000003c .L0 
     /tmp/ccWu4ZZR.s:53     .text:0000000000000044 .L0 
     /tmp/ccWu4ZZR.s:54     .text:0000000000000044 .L0 
     /tmp/ccWu4ZZR.s:59     .text:0000000000000054 .L0 
     /tmp/ccWu4ZZR.s:60     .text:0000000000000054 .L0 
     /tmp/ccWu4ZZR.s:62     .text:0000000000000058 .L0 
     /tmp/ccWu4ZZR.s:63     .text:0000000000000058 .L0 
     /tmp/ccWu4ZZR.s:66     .text:0000000000000060 .L0 
     /tmp/ccWu4ZZR.s:67     .text:0000000000000060 .L0 
     /tmp/ccWu4ZZR.s:69     .text:0000000000000064 .L0 
     /tmp/ccWu4ZZR.s:855    .sbss:0000000000000000 running
     /tmp/ccWu4ZZR.s:70     .text:0000000000000064 .L0 
     /tmp/ccWu4ZZR.s:72     .text:000000000000006c .L0 
     /tmp/ccWu4ZZR.s:73     .text:0000000000000070 .L0 
     /tmp/ccWu4ZZR.s:74     .text:0000000000000070 .L0 
     /tmp/ccWu4ZZR.s:76     .text:0000000000000074 .L0 
     /tmp/ccWu4ZZR.s:78     .text:0000000000000078 .L0 
     /tmp/ccWu4ZZR.s:84     .text:0000000000000078 kern_scheduler_get
     /tmp/ccWu4ZZR.s:87     .text:0000000000000078 .L0 
     /tmp/ccWu4ZZR.s:88     .text:0000000000000078 .L0 
     /tmp/ccWu4ZZR.s:89     .text:000000000000007c .L0 
     /tmp/ccWu4ZZR.s:91     .text:0000000000000080 .L0 
     /tmp/ccWu4ZZR.s:93     .text:0000000000000084 .L0 
     /tmp/ccWu4ZZR.s:95     .text:0000000000000084 .L0 
     /tmp/ccWu4ZZR.s:96     .text:0000000000000084 .L0 
     /tmp/ccWu4ZZR.s:101    .text:000000000000009c .L0 
     /tmp/ccWu4ZZR.s:106    .text:00000000000000a8 .L0 
     /tmp/ccWu4ZZR.s:107    .text:00000000000000a8 .L0 
     /tmp/ccWu4ZZR.s:108    .text:00000000000000a8 .L0 
     /tmp/ccWu4ZZR.s:112    .text:00000000000000ac .L0 
     /tmp/ccWu4ZZR.s:113    .text:00000000000000ac .L0 
     /tmp/ccWu4ZZR.s:116    .text:00000000000000b4 .L0 
     /tmp/ccWu4ZZR.s:117    .text:00000000000000b4 .L0 
     /tmp/ccWu4ZZR.s:120    .text:00000000000000b8 .L0 
     /tmp/ccWu4ZZR.s:126    .text:00000000000000cc .L0 
     /tmp/ccWu4ZZR.s:127    .text:00000000000000cc .L0 
GAS LISTING /tmp/ccWu4ZZR.s 			page 21


     /tmp/ccWu4ZZR.s:134    .text:00000000000000e8 .L0 
     /tmp/ccWu4ZZR.s:137    .text:00000000000000f0 .L0 
     /tmp/ccWu4ZZR.s:138    .text:00000000000000f0 .L0 
     /tmp/ccWu4ZZR.s:144    .text:00000000000000f8 .L0 
     /tmp/ccWu4ZZR.s:145    .text:00000000000000f8 .L0 
     /tmp/ccWu4ZZR.s:154    .text:0000000000000118 .L0 
     /tmp/ccWu4ZZR.s:155    .text:0000000000000118 .L0 
     /tmp/ccWu4ZZR.s:159    .text:000000000000011c .L0 
     /tmp/ccWu4ZZR.s:160    .text:0000000000000120 .L0 
     /tmp/ccWu4ZZR.s:161    .text:0000000000000120 .L0 
     /tmp/ccWu4ZZR.s:162    .text:0000000000000120 .L0 
     /tmp/ccWu4ZZR.s:164    .text:0000000000000124 .L0 
     /tmp/ccWu4ZZR.s:168    .text:0000000000000128 .L0 
     /tmp/ccWu4ZZR.s:170    .text:0000000000000128 .L0 
     /tmp/ccWu4ZZR.s:171    .text:0000000000000128 .L0 
     /tmp/ccWu4ZZR.s:174    .text:000000000000012c .L0 
     /tmp/ccWu4ZZR.s:176    .text:0000000000000130 .L0 
     /tmp/ccWu4ZZR.s:179    .text:0000000000000138 .L0 
     /tmp/ccWu4ZZR.s:183    .text:0000000000000140 .L0 
     /tmp/ccWu4ZZR.s:184    .text:0000000000000140 .L0 
     /tmp/ccWu4ZZR.s:187    .text:0000000000000148 .L0 
     /tmp/ccWu4ZZR.s:188    .text:0000000000000148 .L0 
     /tmp/ccWu4ZZR.s:189    .text:000000000000014c .L0 
     /tmp/ccWu4ZZR.s:195    .text:000000000000014c kern_thread_yield
     /tmp/ccWu4ZZR.s:198    .text:000000000000014c .L0 
     /tmp/ccWu4ZZR.s:199    .text:000000000000014c .L0 
     /tmp/ccWu4ZZR.s:200    .text:0000000000000150 .L0 
     /tmp/ccWu4ZZR.s:203    .text:0000000000000158 .L0 
     /tmp/ccWu4ZZR.s:204    .text:0000000000000158 .L0 
     /tmp/ccWu4ZZR.s:206    .text:000000000000015c .L0 
     /tmp/ccWu4ZZR.s:208    .text:000000000000015c .L0 
     /tmp/ccWu4ZZR.s:212    .text:0000000000000168 .L0 
     /tmp/ccWu4ZZR.s:213    .text:000000000000016c .L0 
     /tmp/ccWu4ZZR.s:215    .text:0000000000000170 .L0 
     /tmp/ccWu4ZZR.s:216    .text:0000000000000170 .L0 
     /tmp/ccWu4ZZR.s:218    .text:0000000000000174 .L0 
     /tmp/ccWu4ZZR.s:220    .text:0000000000000178 .L0 
     /tmp/ccWu4ZZR.s:226    .text:0000000000000178 popSppSpie
     /tmp/ccWu4ZZR.s:229    .text:0000000000000178 .L0 
     /tmp/ccWu4ZZR.s:230    .text:0000000000000178 .L0 
     /tmp/ccWu4ZZR.s:231    .text:000000000000017c .L0 
     /tmp/ccWu4ZZR.s:233    .text:0000000000000180 .L0 
     /tmp/ccWu4ZZR.s:235    .text:0000000000000184 .L0 
  src/kern_threads.c:58     .text:0000000000000184 .L0 
     /tmp/ccWu4ZZR.s:243    .text:0000000000000188 .L0 
  src/kern_threads.c:60     .text:0000000000000190 .L0 
     /tmp/ccWu4ZZR.s:254    .text:0000000000000194 .L0 
     /tmp/ccWu4ZZR.s:255    .text:0000000000000198 .L0 
     /tmp/ccWu4ZZR.s:256    .text:0000000000000198 .L0 
     /tmp/ccWu4ZZR.s:258    .text:000000000000019c .L0 
     /tmp/ccWu4ZZR.s:260    .text:00000000000001a0 .L0 
     /tmp/ccWu4ZZR.s:266    .text:00000000000001a0 kern_thread_dispatch
     /tmp/ccWu4ZZR.s:269    .text:00000000000001a0 .L0 
     /tmp/ccWu4ZZR.s:270    .text:00000000000001a0 .L0 
     /tmp/ccWu4ZZR.s:271    .text:00000000000001a4 .L0 
     /tmp/ccWu4ZZR.s:276    .text:00000000000001b4 .L0 
     /tmp/ccWu4ZZR.s:277    .text:00000000000001b4 .L0 
GAS LISTING /tmp/ccWu4ZZR.s 			page 22


     /tmp/ccWu4ZZR.s:278    .text:00000000000001b4 .L0 
     /tmp/ccWu4ZZR.s:279    .text:00000000000001b4 .L0 
     /tmp/ccWu4ZZR.s:281    .text:00000000000001b8 .L0 
     /tmp/ccWu4ZZR.s:283    .text:00000000000001b8 .L0 
     /tmp/ccWu4ZZR.s:284    .text:00000000000001b8 .L0 
     /tmp/ccWu4ZZR.s:288    .text:00000000000001c4 .L0 
     /tmp/ccWu4ZZR.s:289    .text:00000000000001c4 .L0 
     /tmp/ccWu4ZZR.s:292    .text:00000000000001cc .L0 
     /tmp/ccWu4ZZR.s:294    .text:00000000000001d0 .L0 
     /tmp/ccWu4ZZR.s:295    .text:00000000000001d0 .L0 
     /tmp/ccWu4ZZR.s:298    .text:00000000000001d8 .L0 
     /tmp/ccWu4ZZR.s:299    .text:00000000000001d8 .L0 
     /tmp/ccWu4ZZR.s:302    .text:00000000000001e0 .L0 
     /tmp/ccWu4ZZR.s:303    .text:00000000000001e0 .L0 
     /tmp/ccWu4ZZR.s:305    .text:00000000000001e4 .L0 
     /tmp/ccWu4ZZR.s:309    .text:00000000000001ec .L0 
     /tmp/ccWu4ZZR.s:314    .text:00000000000001f8 .L0 
     /tmp/ccWu4ZZR.s:315    .text:00000000000001fc .L0 
     /tmp/ccWu4ZZR.s:316    .text:00000000000001fc .L0 
     /tmp/ccWu4ZZR.s:318    .text:0000000000000200 .L0 
     /tmp/ccWu4ZZR.s:319    .text:0000000000000200 .L0 
     /tmp/ccWu4ZZR.s:321    .text:0000000000000204 .L0 
     /tmp/ccWu4ZZR.s:324    .text:0000000000000208 .L0 
     /tmp/ccWu4ZZR.s:326    .text:000000000000020c .L0 
     /tmp/ccWu4ZZR.s:330    .text:0000000000000210 .L0 
     /tmp/ccWu4ZZR.s:332    .text:0000000000000210 .L0 
     /tmp/ccWu4ZZR.s:333    .text:0000000000000210 .L0 
     /tmp/ccWu4ZZR.s:336    .text:000000000000021c .L0 
     /tmp/ccWu4ZZR.s:342    .text:000000000000021c kern_thread_end_running
     /tmp/ccWu4ZZR.s:345    .text:000000000000021c .L0 
     /tmp/ccWu4ZZR.s:346    .text:000000000000021c .L0 
     /tmp/ccWu4ZZR.s:347    .text:0000000000000220 .L0 
     /tmp/ccWu4ZZR.s:351    .text:000000000000022c .L0 
     /tmp/ccWu4ZZR.s:352    .text:000000000000022c .L0 
     /tmp/ccWu4ZZR.s:353    .text:000000000000022c .L0 
     /tmp/ccWu4ZZR.s:355    .text:0000000000000230 .L0 
     /tmp/ccWu4ZZR.s:357    .text:0000000000000230 .L0 
     /tmp/ccWu4ZZR.s:358    .text:0000000000000230 .L0 
     /tmp/ccWu4ZZR.s:361    .text:0000000000000238 .L0 
     /tmp/ccWu4ZZR.s:362    .text:0000000000000238 .L0 
     /tmp/ccWu4ZZR.s:365    .text:000000000000023c .L0 
     /tmp/ccWu4ZZR.s:367    .text:000000000000023c .L0 
     /tmp/ccWu4ZZR.s:368    .text:000000000000023c .L0 
     /tmp/ccWu4ZZR.s:370    .text:0000000000000240 .L0 
     /tmp/ccWu4ZZR.s:374    .text:0000000000000244 .L0 
     /tmp/ccWu4ZZR.s:375    .text:0000000000000244 .L0 
     /tmp/ccWu4ZZR.s:379    .text:0000000000000248 .L0 
     /tmp/ccWu4ZZR.s:380    .text:0000000000000248 .L0 
     /tmp/ccWu4ZZR.s:383    .text:0000000000000250 .L0 
     /tmp/ccWu4ZZR.s:384    .text:0000000000000250 .L0 
     /tmp/ccWu4ZZR.s:391    .text:000000000000026c .L0 
     /tmp/ccWu4ZZR.s:394    .text:0000000000000274 .L0 
     /tmp/ccWu4ZZR.s:401    .text:0000000000000290 .L0 
     /tmp/ccWu4ZZR.s:403    .text:0000000000000294 .L0 
     /tmp/ccWu4ZZR.s:405    .text:0000000000000298 .L0 
     /tmp/ccWu4ZZR.s:406    .text:0000000000000298 .L0 
     /tmp/ccWu4ZZR.s:417    .text:00000000000002bc .L0 
GAS LISTING /tmp/ccWu4ZZR.s 			page 23


     /tmp/ccWu4ZZR.s:418    .text:00000000000002bc .L0 
     /tmp/ccWu4ZZR.s:421    .text:00000000000002c4 .L0 
     /tmp/ccWu4ZZR.s:423    .text:00000000000002cc .L0 
     /tmp/ccWu4ZZR.s:424    .text:00000000000002cc .L0 
     /tmp/ccWu4ZZR.s:426    .text:00000000000002d0 .L0 
     /tmp/ccWu4ZZR.s:429    .text:00000000000002d4 .L0 
     /tmp/ccWu4ZZR.s:430    .text:00000000000002d4 .L0 
     /tmp/ccWu4ZZR.s:432    .text:00000000000002dc .L0 
     /tmp/ccWu4ZZR.s:434    .text:00000000000002e0 .L0 
     /tmp/ccWu4ZZR.s:439    .text:00000000000002ec .L0 
     /tmp/ccWu4ZZR.s:440    .text:00000000000002f0 .L0 
     /tmp/ccWu4ZZR.s:441    .text:00000000000002f0 .L0 
     /tmp/ccWu4ZZR.s:443    .text:00000000000002f4 .L0 
     /tmp/ccWu4ZZR.s:444    .text:00000000000002f4 .L0 
     /tmp/ccWu4ZZR.s:446    .text:00000000000002f8 .L0 
     /tmp/ccWu4ZZR.s:449    .text:00000000000002fc .L0 
     /tmp/ccWu4ZZR.s:453    .text:0000000000000300 .L0 
     /tmp/ccWu4ZZR.s:455    .text:0000000000000300 .L0 
     /tmp/ccWu4ZZR.s:458    .text:000000000000030c .L0 
     /tmp/ccWu4ZZR.s:464    .text:000000000000030c kern_thread_wrapper
     /tmp/ccWu4ZZR.s:467    .text:000000000000030c .L0 
     /tmp/ccWu4ZZR.s:468    .text:000000000000030c .L0 
     /tmp/ccWu4ZZR.s:469    .text:0000000000000310 .L0 
     /tmp/ccWu4ZZR.s:473    .text:000000000000031c .L0 
     /tmp/ccWu4ZZR.s:474    .text:000000000000031c .L0 
     /tmp/ccWu4ZZR.s:475    .text:000000000000031c .L0 
     /tmp/ccWu4ZZR.s:477    .text:0000000000000320 .L0 
     /tmp/ccWu4ZZR.s:479    .text:0000000000000320 .L0 
     /tmp/ccWu4ZZR.s:482    .text:0000000000000328 .L0 
     /tmp/ccWu4ZZR.s:483    .text:0000000000000328 .L0 
     /tmp/ccWu4ZZR.s:487    .text:0000000000000338 .L0 
     /tmp/ccWu4ZZR.s:491    .text:0000000000000340 .L0 
     /tmp/ccWu4ZZR.s:492    .text:0000000000000340 .L0 
     /tmp/ccWu4ZZR.s:494    .text:0000000000000344 .L0 
     /tmp/ccWu4ZZR.s:496    .text:0000000000000348 .L0 
     /tmp/ccWu4ZZR.s:497    .text:0000000000000348 .L0 
     /tmp/ccWu4ZZR.s:499    .text:000000000000034c .L0 
     /tmp/ccWu4ZZR.s:500    .text:000000000000034c .L0 
     /tmp/ccWu4ZZR.s:504    .text:0000000000000354 .L0 
     /tmp/ccWu4ZZR.s:506    .text:0000000000000354 .L0 
     /tmp/ccWu4ZZR.s:507    .text:0000000000000354 .L0 
     /tmp/ccWu4ZZR.s:509    .text:0000000000000358 .L0 
     /tmp/ccWu4ZZR.s:513    .text:000000000000035c .L0 
     /tmp/ccWu4ZZR.s:514    .text:000000000000035c .L0 
     /tmp/ccWu4ZZR.s:518    .text:0000000000000360 .L0 
     /tmp/ccWu4ZZR.s:519    .text:0000000000000360 .L0 
     /tmp/ccWu4ZZR.s:522    .text:0000000000000368 .L0 
     /tmp/ccWu4ZZR.s:523    .text:0000000000000368 .L0 
     /tmp/ccWu4ZZR.s:530    .text:0000000000000384 .L0 
     /tmp/ccWu4ZZR.s:533    .text:000000000000038c .L0 
     /tmp/ccWu4ZZR.s:540    .text:00000000000003a8 .L0 
     /tmp/ccWu4ZZR.s:542    .text:00000000000003ac .L0 
     /tmp/ccWu4ZZR.s:544    .text:00000000000003b0 .L0 
     /tmp/ccWu4ZZR.s:545    .text:00000000000003b0 .L0 
     /tmp/ccWu4ZZR.s:556    .text:00000000000003d4 .L0 
     /tmp/ccWu4ZZR.s:559    .text:00000000000003dc .L0 
     /tmp/ccWu4ZZR.s:560    .text:00000000000003e0 .L0 
GAS LISTING /tmp/ccWu4ZZR.s 			page 24


     /tmp/ccWu4ZZR.s:562    .text:00000000000003e4 .L0 
     /tmp/ccWu4ZZR.s:563    .text:00000000000003e4 .L0 
     /tmp/ccWu4ZZR.s:565    .text:00000000000003e8 .L0 
     /tmp/ccWu4ZZR.s:567    .text:00000000000003ec .L0 
     /tmp/ccWu4ZZR.s:569    .text:00000000000003f0 .L0 
     /tmp/ccWu4ZZR.s:575    .text:00000000000003f0 kern_thread_create
     /tmp/ccWu4ZZR.s:578    .text:00000000000003f0 .L0 
     /tmp/ccWu4ZZR.s:580    .text:00000000000003f0 .L0 
     /tmp/ccWu4ZZR.s:581    .text:00000000000003f4 .L0 
     /tmp/ccWu4ZZR.s:583    .text:00000000000003f8 .L0 
     /tmp/ccWu4ZZR.s:585    .text:00000000000003fc .L0 
     /tmp/ccWu4ZZR.s:587    .text:00000000000003fc .L0 
     /tmp/ccWu4ZZR.s:588    .text:00000000000003fc .L0 
     /tmp/ccWu4ZZR.s:591    .text:0000000000000400 .L0 
     /tmp/ccWu4ZZR.s:593    .text:0000000000000400 .L0 
     /tmp/ccWu4ZZR.s:594    .text:0000000000000400 .L0 
     /tmp/ccWu4ZZR.s:595    .text:0000000000000400 .L0 
     /tmp/ccWu4ZZR.s:599    .text:0000000000000404 .L0 
     /tmp/ccWu4ZZR.s:600    .text:0000000000000404 .L0 
     /tmp/ccWu4ZZR.s:603    .text:000000000000040c .L0 
     /tmp/ccWu4ZZR.s:604    .text:000000000000040c .L0 
     /tmp/ccWu4ZZR.s:611    .text:0000000000000428 .L0 
     /tmp/ccWu4ZZR.s:613    .text:000000000000042c .L0 
     /tmp/ccWu4ZZR.s:614    .text:000000000000042c .L0 
     /tmp/ccWu4ZZR.s:620    .text:0000000000000434 .L0 
     /tmp/ccWu4ZZR.s:621    .text:0000000000000434 .L0 
     /tmp/ccWu4ZZR.s:626    .text:0000000000000444 .L0 
     /tmp/ccWu4ZZR.s:629    .text:0000000000000448 .L0 
     /tmp/ccWu4ZZR.s:632    .text:0000000000000448 .L0 
     /tmp/ccWu4ZZR.s:633    .text:0000000000000448 .L0 
     /tmp/ccWu4ZZR.s:634    .text:0000000000000448 .L0 
     /tmp/ccWu4ZZR.s:637    .text:000000000000044c .L0 
     /tmp/ccWu4ZZR.s:639    .text:0000000000000450 .L0 
     /tmp/ccWu4ZZR.s:640    .text:0000000000000450 .L0 
     /tmp/ccWu4ZZR.s:646    .text:0000000000000464 .L0 
     /tmp/ccWu4ZZR.s:649    .text:000000000000046c .L0 
     /tmp/ccWu4ZZR.s:650    .text:000000000000046c .L0 
     /tmp/ccWu4ZZR.s:653    .text:0000000000000474 .L0 
     /tmp/ccWu4ZZR.s:654    .text:0000000000000474 .L0 
     /tmp/ccWu4ZZR.s:656    .text:0000000000000478 .L0 
     /tmp/ccWu4ZZR.s:657    .text:0000000000000478 .L0 
     /tmp/ccWu4ZZR.s:660    .text:0000000000000480 .L0 
     /tmp/ccWu4ZZR.s:661    .text:0000000000000480 .L0 
     /tmp/ccWu4ZZR.s:664    .text:0000000000000488 .L0 
     /tmp/ccWu4ZZR.s:665    .text:0000000000000488 .L0 
     /tmp/ccWu4ZZR.s:667    .text:000000000000048c .L0 
     /tmp/ccWu4ZZR.s:668    .text:000000000000048c .L0 
     /tmp/ccWu4ZZR.s:670    .text:0000000000000490 .L0 
     /tmp/ccWu4ZZR.s:671    .text:0000000000000490 .L0 
     /tmp/ccWu4ZZR.s:675    .text:0000000000000498 .L0 
     /tmp/ccWu4ZZR.s:677    .text:000000000000049c .L0 
     /tmp/ccWu4ZZR.s:678    .text:000000000000049c .L0 
     /tmp/ccWu4ZZR.s:680    .text:00000000000004a4 .L0 
     /tmp/ccWu4ZZR.s:682    .text:00000000000004a8 .L0 
     /tmp/ccWu4ZZR.s:683    .text:00000000000004a8 .L0 
     /tmp/ccWu4ZZR.s:685    .text:00000000000004ac .L0 
     /tmp/ccWu4ZZR.s:686    .text:00000000000004ac .L0 
GAS LISTING /tmp/ccWu4ZZR.s 			page 25


     /tmp/ccWu4ZZR.s:688    .text:00000000000004b0 .L0 
     /tmp/ccWu4ZZR.s:689    .text:00000000000004b0 .L0 
     /tmp/ccWu4ZZR.s:693    .text:00000000000004b4 .L0 
     /tmp/ccWu4ZZR.s:694    .text:00000000000004b8 .L0 
     /tmp/ccWu4ZZR.s:695    .text:00000000000004b8 .L0 
     /tmp/ccWu4ZZR.s:696    .text:00000000000004b8 .L0 
     /tmp/ccWu4ZZR.s:698    .text:00000000000004bc .L0 
     /tmp/ccWu4ZZR.s:702    .text:00000000000004c0 .L0 
     /tmp/ccWu4ZZR.s:704    .text:00000000000004c0 .L0 
     /tmp/ccWu4ZZR.s:709    .text:00000000000004cc .L0 
     /tmp/ccWu4ZZR.s:712    .text:00000000000004d4 .L0 
     /tmp/ccWu4ZZR.s:718    .text:00000000000004d4 kern_thread_join
     /tmp/ccWu4ZZR.s:721    .text:00000000000004d4 .L0 
     /tmp/ccWu4ZZR.s:723    .text:00000000000004d4 .L0 
     /tmp/ccWu4ZZR.s:724    .text:00000000000004d4 .L0 
     /tmp/ccWu4ZZR.s:725    .text:00000000000004d4 .L0 
     /tmp/ccWu4ZZR.s:727    .text:00000000000004d8 .L0 
     /tmp/ccWu4ZZR.s:731    .text:00000000000004e0 .L0 
     /tmp/ccWu4ZZR.s:732    .text:00000000000004e4 .L0 
     /tmp/ccWu4ZZR.s:735    .text:00000000000004ec .L0 
     /tmp/ccWu4ZZR.s:736    .text:00000000000004ec .L0 
     /tmp/ccWu4ZZR.s:738    .text:00000000000004f0 .L0 
     /tmp/ccWu4ZZR.s:740    .text:00000000000004f0 .L0 
     /tmp/ccWu4ZZR.s:741    .text:00000000000004f0 .L0 
     /tmp/ccWu4ZZR.s:743    .text:00000000000004f8 .L0 
     /tmp/ccWu4ZZR.s:745    .text:00000000000004fc .L0 
     /tmp/ccWu4ZZR.s:747    .text:0000000000000500 .L0 
     /tmp/ccWu4ZZR.s:748    .text:0000000000000500 .L0 
     /tmp/ccWu4ZZR.s:751    .text:0000000000000508 .L0 
     /tmp/ccWu4ZZR.s:754    .text:0000000000000510 .L0 
     /tmp/ccWu4ZZR.s:755    .text:0000000000000514 .L0 
     /tmp/ccWu4ZZR.s:757    .text:0000000000000518 .L0 
     /tmp/ccWu4ZZR.s:758    .text:0000000000000518 .L0 
     /tmp/ccWu4ZZR.s:760    .text:000000000000051c .L0 
     /tmp/ccWu4ZZR.s:762    .text:0000000000000520 .L0 
     /tmp/ccWu4ZZR.s:768    .text:0000000000000520 kern_thread_wakeup
     /tmp/ccWu4ZZR.s:771    .text:0000000000000520 .L0 
     /tmp/ccWu4ZZR.s:773    .text:0000000000000520 .L0 
     /tmp/ccWu4ZZR.s:774    .text:0000000000000524 .L0 
     /tmp/ccWu4ZZR.s:776    .text:0000000000000528 .L0 
     /tmp/ccWu4ZZR.s:778    .text:000000000000052c .L0 
     /tmp/ccWu4ZZR.s:781    .text:000000000000052c .L0 
     /tmp/ccWu4ZZR.s:783    .text:000000000000052c .L0 
     /tmp/ccWu4ZZR.s:784    .text:000000000000052c .L0 
     /tmp/ccWu4ZZR.s:786    .text:0000000000000530 .L0 
     /tmp/ccWu4ZZR.s:790    .text:0000000000000534 .L0 
     /tmp/ccWu4ZZR.s:791    .text:0000000000000534 .L0 
     /tmp/ccWu4ZZR.s:795    .text:0000000000000538 .L0 
     /tmp/ccWu4ZZR.s:796    .text:0000000000000538 .L0 
     /tmp/ccWu4ZZR.s:799    .text:0000000000000540 .L0 
     /tmp/ccWu4ZZR.s:800    .text:0000000000000540 .L0 
     /tmp/ccWu4ZZR.s:807    .text:000000000000055c .L0 
     /tmp/ccWu4ZZR.s:810    .text:0000000000000564 .L0 
     /tmp/ccWu4ZZR.s:817    .text:0000000000000580 .L0 
     /tmp/ccWu4ZZR.s:819    .text:0000000000000584 .L0 
     /tmp/ccWu4ZZR.s:820    .text:0000000000000584 .L0 
     /tmp/ccWu4ZZR.s:830    .text:00000000000005a0 .L0 
GAS LISTING /tmp/ccWu4ZZR.s 			page 26


     /tmp/ccWu4ZZR.s:831    .text:00000000000005a4 .L0 
     /tmp/ccWu4ZZR.s:832    .text:00000000000005a4 .L0 
     /tmp/ccWu4ZZR.s:834    .text:00000000000005a8 .L0 
     /tmp/ccWu4ZZR.s:836    .text:00000000000005ac .L0 
     /tmp/ccWu4ZZR.s:867    .text:00000000000005ac .L0 
                     .debug_frame:0000000000000000 .L0 
     /tmp/ccWu4ZZR.s:23     .text:000000000000000c .L0 
     /tmp/ccWu4ZZR.s:39     .text:0000000000000028 .L0 
     /tmp/ccWu4ZZR.s:54     .text:0000000000000044 .L0 
     /tmp/ccWu4ZZR.s:70     .text:0000000000000064 .L0 
     /tmp/ccWu4ZZR.s:96     .text:0000000000000084 .L0 
     /tmp/ccWu4ZZR.s:97     .text:000000000000008c .L0 
     /tmp/ccWu4ZZR.s:843    .srodata.cst8:0000000000000000 .LC0
     /tmp/ccWu4ZZR.s:101    .text:000000000000009c .L0 
     /tmp/ccWu4ZZR.s:130    .text:00000000000000d8 .L0 
     /tmp/ccWu4ZZR.s:145    .text:00000000000000f8 .L0 
     /tmp/ccWu4ZZR.s:284    .text:00000000000001b8 .L0 
     /tmp/ccWu4ZZR.s:358    .text:0000000000000230 .L0 
     /tmp/ccWu4ZZR.s:387    .text:000000000000025c .L0 
     /tmp/ccWu4ZZR.s:397    .text:0000000000000280 .L0 
     /tmp/ccWu4ZZR.s:409    .text:00000000000002a4 .L0 
     /tmp/ccWu4ZZR.s:421    .text:00000000000002c4 .L0 
     /tmp/ccWu4ZZR.s:430    .text:00000000000002d4 .L0 
     /tmp/ccWu4ZZR.s:483    .text:0000000000000328 .L0 
     /tmp/ccWu4ZZR.s:526    .text:0000000000000374 .L0 
     /tmp/ccWu4ZZR.s:536    .text:0000000000000398 .L0 
     /tmp/ccWu4ZZR.s:548    .text:00000000000003bc .L0 
     /tmp/ccWu4ZZR.s:607    .text:0000000000000418 .L0 
     /tmp/ccWu4ZZR.s:640    .text:0000000000000450 .L0 
     /tmp/ccWu4ZZR.s:678    .text:000000000000049c .L0 
     /tmp/ccWu4ZZR.s:704    .text:00000000000004c0 .L0 
     /tmp/ccWu4ZZR.s:741    .text:00000000000004f0 .L0 
     /tmp/ccWu4ZZR.s:803    .text:000000000000054c .L0 
     /tmp/ccWu4ZZR.s:813    .text:0000000000000570 .L0 
     /tmp/ccWu4ZZR.s:46     .text:000000000000003c .L2
     /tmp/ccWu4ZZR.s:33     .text:000000000000001c .L3
     /tmp/ccWu4ZZR.s:167    .text:0000000000000128 .L12
     /tmp/ccWu4ZZR.s:142    .text:00000000000000f8 .L13
     /tmp/ccWu4ZZR.s:110    .text:00000000000000ac .L6
     /tmp/ccWu4ZZR.s:181    .text:0000000000000140 .L14
     /tmp/ccWu4ZZR.s:156    .text:000000000000011c .L5
     /tmp/ccWu4ZZR.s:312    .text:00000000000001f8 .L19
     /tmp/ccWu4ZZR.s:329    .text:0000000000000210 .L23
     /tmp/ccWu4ZZR.s:307    .text:00000000000001ec .L21
     /tmp/ccWu4ZZR.s:377    .text:0000000000000248 .L25
     /tmp/ccWu4ZZR.s:414    .text:00000000000002bc .L31
     /tmp/ccWu4ZZR.s:372    .text:0000000000000244 .L26
     /tmp/ccWu4ZZR.s:452    .text:0000000000000300 .L32
     /tmp/ccWu4ZZR.s:437    .text:00000000000002ec .L24
     /tmp/ccWu4ZZR.s:427    .text:00000000000002d4 .L28
     /tmp/ccWu4ZZR.s:516    .text:0000000000000360 .L34
     /tmp/ccWu4ZZR.s:553    .text:00000000000003d4 .L38
     /tmp/ccWu4ZZR.s:511    .text:000000000000035c .L35
     /tmp/ccWu4ZZR.s:701    .text:00000000000004c0 .L47
     /tmp/ccWu4ZZR.s:618    .text:0000000000000434 .L48
     /tmp/ccWu4ZZR.s:597    .text:0000000000000404 .L40
     /tmp/ccWu4ZZR.s:707    .text:00000000000004cc .L45
GAS LISTING /tmp/ccWu4ZZR.s 			page 27


     /tmp/ccWu4ZZR.s:630    .text:0000000000000448 .L42
     /tmp/ccWu4ZZR.s:691    .text:00000000000004b4 .L44
     /tmp/ccWu4ZZR.s:729    .text:00000000000004e0 .L55
     /tmp/ccWu4ZZR.s:793    .text:0000000000000538 .L57
     /tmp/ccWu4ZZR.s:827    .text:00000000000005a0 .L61
     /tmp/ccWu4ZZR.s:788    .text:0000000000000534 .L58
     /tmp/ccWu4ZZR.s:1544   .debug_abbrev:0000000000000000 .Ldebug_abbrev0
     /tmp/ccWu4ZZR.s:2443   .debug_str:00000000000001f2 .LASF63
     /tmp/ccWu4ZZR.s:2389   .debug_str:00000000000000a8 .LASF64
     /tmp/ccWu4ZZR.s:2477   .debug_str:0000000000000363 .LASF65
     /tmp/ccWu4ZZR.s:5      .text:0000000000000000 .Ltext0
     /tmp/ccWu4ZZR.s:862    .text:00000000000005ac .Letext0
     /tmp/ccWu4ZZR.s:2361   .debug_line:0000000000000000 .Ldebug_line0
     /tmp/ccWu4ZZR.s:2445   .debug_str:0000000000000290 .LASF0
     /tmp/ccWu4ZZR.s:2419   .debug_str:0000000000000164 .LASF1
     /tmp/ccWu4ZZR.s:2407   .debug_str:000000000000011a .LASF2
     /tmp/ccWu4ZZR.s:2381   .debug_str:000000000000007e .LASF4
     /tmp/ccWu4ZZR.s:2415   .debug_str:0000000000000149 .LASF3
     /tmp/ccWu4ZZR.s:2367   .debug_str:000000000000001c .LASF5
     /tmp/ccWu4ZZR.s:2365   .debug_str:0000000000000009 .LASF6
     /tmp/ccWu4ZZR.s:2401   .debug_str:00000000000000f3 .LASF7
     /tmp/ccWu4ZZR.s:2453   .debug_str:00000000000002cc .LASF8
     /tmp/ccWu4ZZR.s:2379   .debug_str:0000000000000070 .LASF9
     /tmp/ccWu4ZZR.s:2499   .debug_str:00000000000003fb .LASF10
     /tmp/ccWu4ZZR.s:2403   .debug_str:0000000000000106 .LASF11
     /tmp/ccWu4ZZR.s:2485   .debug_str:00000000000003a2 .LASF12
     /tmp/ccWu4ZZR.s:2461   .debug_str:0000000000000306 .LASF13
     /tmp/ccWu4ZZR.s:2423   .debug_str:000000000000018a .LASF14
     /tmp/ccWu4ZZR.s:2391   .debug_str:00000000000000bb .LASF15
     /tmp/ccWu4ZZR.s:2455   .debug_str:00000000000002dc .LASF16
     /tmp/ccWu4ZZR.s:2433   .debug_str:00000000000001b6 .LASF34
     /tmp/ccWu4ZZR.s:2471   .debug_str:0000000000000346 .LASF17
     /tmp/ccWu4ZZR.s:2487   .debug_str:00000000000003b2 .LASF18
     /tmp/ccWu4ZZR.s:2411   .debug_str:000000000000012f .LASF19
     /tmp/ccWu4ZZR.s:2429   .debug_str:00000000000001a7 .LASF20
     /tmp/ccWu4ZZR.s:2409   .debug_str:0000000000000128 .LASF21
     /tmp/ccWu4ZZR.s:2397   .debug_str:00000000000000e5 .LASF22
     /tmp/ccWu4ZZR.s:2383   .debug_str:0000000000000085 .LASF66
     /tmp/ccWu4ZZR.s:2431   .debug_str:00000000000001b1 .LASF23
     /tmp/ccWu4ZZR.s:2437   .debug_str:00000000000001d1 .LASF24
     /tmp/ccWu4ZZR.s:2465   .debug_str:0000000000000324 .LASF25
     /tmp/ccWu4ZZR.s:2467   .debug_str:000000000000032e .LASF26
     /tmp/ccWu4ZZR.s:2447   .debug_str:000000000000029d .LASF27
     /tmp/ccWu4ZZR.s:2441   .debug_str:00000000000001ea .LASF28
     /tmp/ccWu4ZZR.s:2393   .debug_str:00000000000000d1 .LASF29
     /tmp/ccWu4ZZR.s:2483   .debug_str:0000000000000399 .LASF30
     /tmp/ccWu4ZZR.s:2457   .debug_str:00000000000002f2 .LASF31
     /tmp/ccWu4ZZR.s:2369   .debug_str:0000000000000023 .LASF32
     /tmp/ccWu4ZZR.s:2475   .debug_str:000000000000035b .LASF33
     /tmp/ccWu4ZZR.s:2439   .debug_str:00000000000001dc .LASF35
     /tmp/ccWu4ZZR.s:2427   .debug_str:000000000000019d .LASF36
     /tmp/ccWu4ZZR.s:2489   .debug_str:00000000000003ba .LASF37
     /tmp/ccWu4ZZR.s:2473   .debug_str:000000000000034d .LASF38
     /tmp/ccWu4ZZR.s:2479   .debug_str:000000000000037a .LASF39
     /tmp/ccWu4ZZR.s:2469   .debug_str:0000000000000336 .LASF40
     /tmp/ccWu4ZZR.s:2493   .debug_str:00000000000003d4 .LASF41
     /tmp/ccWu4ZZR.s:2363   .debug_str:0000000000000000 .LASF42
GAS LISTING /tmp/ccWu4ZZR.s 			page 28


     /tmp/ccWu4ZZR.s:2497   .debug_str:00000000000003f1 .LASF43
     /tmp/ccWu4ZZR.s:2417   .debug_str:000000000000015b .LASF44
     /tmp/ccWu4ZZR.s:2449   .debug_str:00000000000002a9 .LASF45
     /tmp/ccWu4ZZR.s:2373   .debug_str:000000000000003e .LASF46
     /tmp/ccWu4ZZR.s:2405   .debug_str:0000000000000115 .LASF47
     /tmp/ccWu4ZZR.s:2399   .debug_str:00000000000000ee .LASF48
     /tmp/ccWu4ZZR.s:2481   .debug_str:0000000000000386 .LASF49
     /tmp/ccWu4ZZR.s:769    .text:0000000000000520 .LFB9
     /tmp/ccWu4ZZR.s:837    .text:00000000000005ac .LFE9
     /tmp/ccWu4ZZR.s:2385   .debug_str:000000000000008e .LASF51
     /tmp/ccWu4ZZR.s:780    .text:000000000000052c .LBB7
     /tmp/ccWu4ZZR.s:828    .text:00000000000005a0 .LBE7
     /tmp/ccWu4ZZR.s:2142   .debug_loc:0000000000000000 .LLST12
     /tmp/ccWu4ZZR.s:2491   .debug_str:00000000000003c3 .LASF50
     /tmp/ccWu4ZZR.s:719    .text:00000000000004d4 .LFB8
     /tmp/ccWu4ZZR.s:763    .text:0000000000000520 .LFE8
     /tmp/ccWu4ZZR.s:2425   .debug_str:0000000000000196 .LASF52
     /tmp/ccWu4ZZR.s:2154   .debug_loc:0000000000000037 .LLST11
     /tmp/ccWu4ZZR.s:752    .text:0000000000000510 .LVL47
     /tmp/ccWu4ZZR.s:2371   .debug_str:000000000000002b .LASF67
     /tmp/ccWu4ZZR.s:576    .text:00000000000003f0 .LFB7
     /tmp/ccWu4ZZR.s:713    .text:00000000000004d4 .LFE7
     /tmp/ccWu4ZZR.s:2168   .debug_loc:0000000000000070 .LLST7
     /tmp/ccWu4ZZR.s:2435   .debug_str:00000000000001c3 .LASF53
     /tmp/ccWu4ZZR.s:2193   .debug_loc:00000000000000d2 .LLST8
     /tmp/ccWu4ZZR.s:2216   .debug_loc:0000000000000133 .LLST9
     /tmp/ccWu4ZZR.s:592    .text:0000000000000400 .LBB6
     /tmp/ccWu4ZZR.s:631    .text:0000000000000448 .LBE6
     /tmp/ccWu4ZZR.s:2239   .debug_loc:00000000000001a1 .LLST10
     /tmp/ccWu4ZZR.s:2413   .debug_str:0000000000000135 .LASF54
     /tmp/ccWu4ZZR.s:465    .text:000000000000030c .LFB6
     /tmp/ccWu4ZZR.s:570    .text:00000000000003f0 .LFE6
     /tmp/ccWu4ZZR.s:503    .text:0000000000000354 .LBB5
     /tmp/ccWu4ZZR.s:554    .text:00000000000003d4 .LBE5
     /tmp/ccWu4ZZR.s:2259   .debug_loc:00000000000001fe .LLST6
     /tmp/ccWu4ZZR.s:480    .text:0000000000000328 .LVL27
     /tmp/ccWu4ZZR.s:557    .text:00000000000003dc .LVL32
     /tmp/ccWu4ZZR.s:2451   .debug_str:00000000000002b4 .LASF55
     /tmp/ccWu4ZZR.s:343    .text:000000000000021c .LFB5
     /tmp/ccWu4ZZR.s:459    .text:000000000000030c .LFE5
     /tmp/ccWu4ZZR.s:2271   .debug_loc:0000000000000235 .LLST4
     /tmp/ccWu4ZZR.s:364    .text:000000000000023c .LBB4
     /tmp/ccWu4ZZR.s:415    .text:00000000000002bc .LBE4
     /tmp/ccWu4ZZR.s:2282   .debug_loc:000000000000026b .LLST5
     /tmp/ccWu4ZZR.s:419    .text:00000000000002c4 .LVL22
     /tmp/ccWu4ZZR.s:436    .text:00000000000002ec .LVL23
     /tmp/ccWu4ZZR.s:456    .text:0000000000000308 .LVL26
     /tmp/ccWu4ZZR.s:2377   .debug_str:000000000000005b .LASF56
     /tmp/ccWu4ZZR.s:267    .text:00000000000001a0 .LFB4
     /tmp/ccWu4ZZR.s:337    .text:000000000000021c .LFE4
     /tmp/ccWu4ZZR.s:2294   .debug_loc:00000000000002a2 .LLST3
     /tmp/ccWu4ZZR.s:290    .text:00000000000001cc .LVL14
     /tmp/ccWu4ZZR.s:311    .text:00000000000001f8 .LVL15
     /tmp/ccWu4ZZR.s:2459   .debug_str:00000000000002fb .LASF68
     /tmp/ccWu4ZZR.s:227    .text:0000000000000178 .LFB3
     /tmp/ccWu4ZZR.s:261    .text:00000000000001a0 .LFE3
     /tmp/ccWu4ZZR.s:2375   .debug_str:0000000000000049 .LASF57
GAS LISTING /tmp/ccWu4ZZR.s 			page 29


     /tmp/ccWu4ZZR.s:196    .text:000000000000014c .LFB2
     /tmp/ccWu4ZZR.s:221    .text:0000000000000178 .LFE2
     /tmp/ccWu4ZZR.s:210    .text:0000000000000168 .LVL12
     /tmp/ccWu4ZZR.s:2421   .debug_str:0000000000000177 .LASF58
     /tmp/ccWu4ZZR.s:85     .text:0000000000000078 .LFB1
     /tmp/ccWu4ZZR.s:190    .text:000000000000014c .LFE1
     /tmp/ccWu4ZZR.s:2305   .debug_loc:00000000000002d8 .LLST1
     /tmp/ccWu4ZZR.s:105    .text:00000000000000a8 .LBB3
     /tmp/ccWu4ZZR.s:157    .text:000000000000011c .LBE3
     /tmp/ccWu4ZZR.s:2316   .debug_loc:000000000000030e .LLST2
     /tmp/ccWu4ZZR.s:2495   .debug_str:00000000000003e0 .LASF59
     /tmp/ccWu4ZZR.s:11     .text:0000000000000000 .LFB0
     /tmp/ccWu4ZZR.s:79     .text:0000000000000078 .LFE0
     /tmp/ccWu4ZZR.s:25     .text:0000000000000014 .LBB2
     /tmp/ccWu4ZZR.s:51     .text:0000000000000044 .LBE2
     /tmp/ccWu4ZZR.s:2336   .debug_loc:000000000000036b .LLST0
     /tmp/ccWu4ZZR.s:2463   .debug_str:0000000000000316 .LASF60
     /tmp/ccWu4ZZR.s:2387   .debug_str:000000000000009a .LASF61
     /tmp/ccWu4ZZR.s:2395   .debug_str:00000000000000d8 .LASF62
     /tmp/ccWu4ZZR.s:782    .text:000000000000052c .LVL49
     /tmp/ccWu4ZZR.s:787    .text:0000000000000534 .LVL50
     /tmp/ccWu4ZZR.s:722    .text:00000000000004d4 .LVL46
     /tmp/ccWu4ZZR.s:579    .text:00000000000003f0 .LVL33
     /tmp/ccWu4ZZR.s:641    .text:0000000000000458 .LVL40
     /tmp/ccWu4ZZR.s:700    .text:00000000000004c0 .LVL43
     /tmp/ccWu4ZZR.s:710    .text:00000000000004d0 .LVL45
     /tmp/ccWu4ZZR.s:673    .text:0000000000000498 .LVL41
     /tmp/ccWu4ZZR.s:690    .text:00000000000004b4 .LVL42
     /tmp/ccWu4ZZR.s:590    .text:0000000000000400 .LVL34
     /tmp/ccWu4ZZR.s:628    .text:0000000000000448 .LVL38
     /tmp/ccWu4ZZR.s:706    .text:00000000000004cc .LVL44
     /tmp/ccWu4ZZR.s:596    .text:0000000000000404 .LVL35
     /tmp/ccWu4ZZR.s:615    .text:0000000000000430 .LVL36
     /tmp/ccWu4ZZR.s:617    .text:0000000000000434 .LVL37
     /tmp/ccWu4ZZR.s:635    .text:000000000000044c .LVL39
     /tmp/ccWu4ZZR.s:505    .text:0000000000000354 .LVL29
     /tmp/ccWu4ZZR.s:510    .text:000000000000035c .LVL30
     /tmp/ccWu4ZZR.s:359    .text:0000000000000238 .LVL18
     /tmp/ccWu4ZZR.s:447    .text:00000000000002f8 .LVL24
     /tmp/ccWu4ZZR.s:451    .text:0000000000000300 .LVL25
     /tmp/ccWu4ZZR.s:366    .text:000000000000023c .LVL19
     /tmp/ccWu4ZZR.s:371    .text:0000000000000244 .LVL20
     /tmp/ccWu4ZZR.s:286    .text:00000000000001c4 .LVL13
     /tmp/ccWu4ZZR.s:322    .text:0000000000000204 .LVL16
     /tmp/ccWu4ZZR.s:328    .text:0000000000000210 .LVL17
     /tmp/ccWu4ZZR.s:103    .text:00000000000000a8 .LVL4
     /tmp/ccWu4ZZR.s:118    .text:00000000000000b8 .LVL6
     /tmp/ccWu4ZZR.s:166    .text:0000000000000128 .LVL10
     /tmp/ccWu4ZZR.s:172    .text:000000000000012c .LVL11
     /tmp/ccWu4ZZR.s:109    .text:00000000000000ac .LVL5
     /tmp/ccWu4ZZR.s:139    .text:00000000000000f4 .LVL7
     /tmp/ccWu4ZZR.s:141    .text:00000000000000f8 .LVL8
     /tmp/ccWu4ZZR.s:149    .text:000000000000010c .LVL9
     /tmp/ccWu4ZZR.s:27     .text:0000000000000014 .LVL0
     /tmp/ccWu4ZZR.s:32     .text:000000000000001c .LVL1
     /tmp/ccWu4ZZR.s:55     .text:000000000000004c .LVL3
     /tmp/ccWu4ZZR.s:868    .debug_info:0000000000000000 .Ldebug_info0
GAS LISTING /tmp/ccWu4ZZR.s 			page 30



UNDEFINED SYMBOLS
kern_syscall
contextSwitch
kern_mem_free
