GAS LISTING /tmp/ccncZtRA.s 			page 1


   1              		.file	"main.cpp"
   2              		.option pic
   3              		.option norelax
   4              		.text
   5              	.Ltext0:
   6              		.section	.text._ZN6ThreadD2Ev,"axG",@progbits,_ZN6ThreadD5Ev,comdat
   7              		.align	2
   8              		.weak	_ZN6ThreadD2Ev
  10              	_ZN6ThreadD2Ev:
  11              	.LFB4:
  12              		.file 1 "src/../h/syscall_cpp.hpp"
   1:src/../h/syscall_cpp.hpp **** //
   2:src/../h/syscall_cpp.hpp **** // Created by os on 6/5/23.
   3:src/../h/syscall_cpp.hpp **** //
   4:src/../h/syscall_cpp.hpp **** 
   5:src/../h/syscall_cpp.hpp **** #ifndef OS1_SYSCALL_CPP_HPP
   6:src/../h/syscall_cpp.hpp **** #define OS1_SYSCALL_CPP_HPP
   7:src/../h/syscall_cpp.hpp **** #ifndef _syscall_cpp
   8:src/../h/syscall_cpp.hpp **** #define _syscall_cpp
   9:src/../h/syscall_cpp.hpp **** 
  10:src/../h/syscall_cpp.hpp **** #include "syscall_c.h"
  11:src/../h/syscall_cpp.hpp **** #include "kern_semaphore.hpp"
  12:src/../h/syscall_cpp.hpp **** #include "kern_threads.hpp"
  13:src/../h/syscall_cpp.hpp **** #include "kern_memory.hpp"
  14:src/../h/syscall_cpp.hpp **** #include "syscall_c.h"
  15:src/../h/syscall_cpp.hpp **** #include "../lib/console.h"
  16:src/../h/syscall_cpp.hpp **** 
  17:src/../h/syscall_cpp.hpp **** 
  18:src/../h/syscall_cpp.hpp **** void* operator new(size_t size);
  19:src/../h/syscall_cpp.hpp **** void operator delete(void* ptr);
  20:src/../h/syscall_cpp.hpp **** 
  21:src/../h/syscall_cpp.hpp **** class Thread {
  22:src/../h/syscall_cpp.hpp ****         public:
  23:src/../h/syscall_cpp.hpp ****         Thread (void (*body)(void*), void* arg)
  24:src/../h/syscall_cpp.hpp ****         {
  25:src/../h/syscall_cpp.hpp ****             this->body=body;
  26:src/../h/syscall_cpp.hpp ****             this->arg=arg;
  27:src/../h/syscall_cpp.hpp ****         }
  28:src/../h/syscall_cpp.hpp ****         virtual ~Thread (){
  13              		.loc 1 28 17
  14              		.cfi_startproc
  15              	.LVL0:
  16 0000 130101FF 		addi	sp,sp,-16
  17              		.cfi_def_cfa_offset 16
  18 0004 23348100 		sd	s0,8(sp)
  19              		.cfi_offset 8, -8
  20 0008 13040101 		addi	s0,sp,16
  21              		.cfi_def_cfa 8, 0
  29:src/../h/syscall_cpp.hpp ****             //running=myHandle;
  30:src/../h/syscall_cpp.hpp ****             //thread_exit();
  31:src/../h/syscall_cpp.hpp ****         }
  22              		.loc 1 31 9 is_stmt 0
  23 000c 03348100 		ld	s0,8(sp)
  24              		.cfi_restore 8
  25              		.cfi_def_cfa 2, 16
  26 0010 13010101 		addi	sp,sp,16
  27              		.cfi_def_cfa_offset 0
GAS LISTING /tmp/ccncZtRA.s 			page 2


  28 0014 67800000 		jr	ra
  29              		.cfi_endproc
  30              	.LFE4:
  32              		.weak	_ZN6ThreadD1Ev
  33              		.set	_ZN6ThreadD1Ev,_ZN6ThreadD2Ev
  34              		.section	.text._ZN6Thread3runEv,"axG",@progbits,_ZN6Thread3runEv,comdat
  35              		.align	2
  36              		.weak	_ZN6Thread3runEv
  38              	_ZN6Thread3runEv:
  39              	.LFB14:
  32:src/../h/syscall_cpp.hpp ****         int start (){
  33:src/../h/syscall_cpp.hpp ****             if(body== nullptr) return thread_create(&myHandle,&threadEntry, this);
  34:src/../h/syscall_cpp.hpp ****             else return thread_create(&myHandle,body,arg);
  35:src/../h/syscall_cpp.hpp ****         }
  36:src/../h/syscall_cpp.hpp ****         void join(){
  37:src/../h/syscall_cpp.hpp ****             thread_join(myHandle);
  38:src/../h/syscall_cpp.hpp ****         }
  39:src/../h/syscall_cpp.hpp ****         static void dispatch (){
  40:src/../h/syscall_cpp.hpp ****             thread_dispatch();
  41:src/../h/syscall_cpp.hpp ****         }
  42:src/../h/syscall_cpp.hpp ****         static int sleep (time_t time){
  43:src/../h/syscall_cpp.hpp ****             return time_sleep(time);
  44:src/../h/syscall_cpp.hpp ****         }
  45:src/../h/syscall_cpp.hpp ****         protected:
  46:src/../h/syscall_cpp.hpp ****         Thread (){
  47:src/../h/syscall_cpp.hpp ****             body= nullptr;
  48:src/../h/syscall_cpp.hpp ****             arg= nullptr;
  49:src/../h/syscall_cpp.hpp ****         }
  50:src/../h/syscall_cpp.hpp ****         virtual void run () {}
  40              		.loc 1 50 22 is_stmt 1
  41              		.cfi_startproc
  42              	.LVL1:
  43 0000 130101FF 		addi	sp,sp,-16
  44              		.cfi_def_cfa_offset 16
  45 0004 23348100 		sd	s0,8(sp)
  46              		.cfi_offset 8, -8
  47 0008 13040101 		addi	s0,sp,16
  48              		.cfi_def_cfa 8, 0
  49              		.loc 1 50 30 is_stmt 0
  50 000c 03348100 		ld	s0,8(sp)
  51              		.cfi_restore 8
  52              		.cfi_def_cfa 2, 16
  53 0010 13010101 		addi	sp,sp,16
  54              		.cfi_def_cfa_offset 0
  55 0014 67800000 		jr	ra
  56              		.cfi_endproc
  57              	.LFE14:
  59              		.section	.text._ZN6Thread11threadEntryEPv,"axG",@progbits,_ZN6Thread11threadEntryEPv,comdat
  60              		.align	2
  61              		.weak	_ZN6Thread11threadEntryEPv
  63              	_ZN6Thread11threadEntryEPv:
  64              	.LFB15:
  51:src/../h/syscall_cpp.hpp **** 
  52:src/../h/syscall_cpp.hpp ****         static void threadEntry(void* arg){
  65              		.loc 1 52 21 is_stmt 1
  66              		.cfi_startproc
  67              	.LVL2:
GAS LISTING /tmp/ccncZtRA.s 			page 3


  68 0000 130101FF 		addi	sp,sp,-16
  69              		.cfi_def_cfa_offset 16
  70 0004 23341100 		sd	ra,8(sp)
  71 0008 23308100 		sd	s0,0(sp)
  72              		.cfi_offset 1, -8
  73              		.cfi_offset 8, -16
  74 000c 13040101 		addi	s0,sp,16
  75              		.cfi_def_cfa 8, 0
  53:src/../h/syscall_cpp.hpp ****             Thread* self = static_cast<Thread*>(arg);
  76              		.loc 1 53 13
  77              	.LVL3:
  54:src/../h/syscall_cpp.hpp ****             self->run();
  78              		.loc 1 54 13
  79              		.loc 1 54 23 is_stmt 0
  80 0010 83370500 		ld	a5,0(a0)
  81 0014 83B70701 		ld	a5,16(a5)
  82              		.loc 1 54 22
  83 0018 E7800700 		jalr	a5
  84              	.LVL4:
  55:src/../h/syscall_cpp.hpp ****         }
  85              		.loc 1 55 9
  86 001c 83308100 		ld	ra,8(sp)
  87              		.cfi_restore 1
  88 0020 03340100 		ld	s0,0(sp)
  89              		.cfi_restore 8
  90              		.cfi_def_cfa 2, 16
  91 0024 13010101 		addi	sp,sp,16
  92              		.cfi_def_cfa_offset 0
  93 0028 67800000 		jr	ra
  94              		.cfi_endproc
  95              	.LFE15:
  97              		.text
  98              		.align	2
  99              		.globl	_Z8bodyIdlePv
 101              	_Z8bodyIdlePv:
 102              	.LFB27:
 103              		.file 2 "src/main.cpp"
   1:src/main.cpp  **** //
   2:src/main.cpp  **** // Created by os on 5/18/23.
   3:src/main.cpp  **** //
   4:src/main.cpp  **** #include "../lib/console.h"
   5:src/main.cpp  **** #include "../h/syscall_cpp.hpp"
   6:src/main.cpp  **** #include "../h/syscall_c.h"
   7:src/main.cpp  **** #include "../lib/hw.h"
   8:src/main.cpp  **** 
   9:src/main.cpp  **** #include "../h/kern_threads.hpp"
  10:src/main.cpp  **** #include "../h/kern_memory.hpp"
  11:src/main.cpp  **** #include "../h/kern_interrupts.hpp"
  12:src/main.cpp  **** #include "../h/kern_semaphore.hpp"
  13:src/main.cpp  **** #include "../h/kern_console.hpp"
  14:src/main.cpp  **** 
  15:src/main.cpp  **** 
  16:src/main.cpp  **** 
  17:src/main.cpp  **** Semaphore* semTest;
  18:src/main.cpp  **** 
  19:src/main.cpp  **** int idleAlive=1;
  20:src/main.cpp  **** void bodyIdle(void* arg){
GAS LISTING /tmp/ccncZtRA.s 			page 4


 104              		.loc 2 20 25 is_stmt 1
 105              		.cfi_startproc
 106              	.LVL5:
  21:src/main.cpp  ****     while(idleAlive){
 107              		.loc 2 21 5
 108              		.loc 2 21 11
 109 0000 97070000 		lw	a5,.LANCHOR0
 109      83A70700 
 110 0008 638C0702 		beqz	a5,.L15
  20:src/main.cpp  ****     while(idleAlive){
 111              		.loc 2 20 25 is_stmt 0
 112 000c 130101FF 		addi	sp,sp,-16
 113              		.cfi_def_cfa_offset 16
 114 0010 23341100 		sd	ra,8(sp)
 115 0014 23308100 		sd	s0,0(sp)
 116              		.cfi_offset 1, -8
 117              		.cfi_offset 8, -16
 118 0018 13040101 		addi	s0,sp,16
 119              		.cfi_def_cfa 8, 0
 120              	.LVL6:
 121              	.L12:
  22:src/main.cpp  ****         thread_dispatch();
 122              		.loc 2 22 9 is_stmt 1
 123              		.loc 2 22 24 is_stmt 0
 124 001c 97000000 		call	_Z15thread_dispatchv@plt
 124      E7800000 
 125              	.LVL7:
  21:src/main.cpp  ****     while(idleAlive){
 126              		.loc 2 21 5 is_stmt 1
  21:src/main.cpp  ****     while(idleAlive){
 127              		.loc 2 21 11
 128 0024 97070000 		lw	a5,.LANCHOR0
 128      83A70700 
 129 002c E39807FE 		bnez	a5,.L12
  23:src/main.cpp  ****     };
  24:src/main.cpp  **** }
 130              		.loc 2 24 1 is_stmt 0
 131 0030 83308100 		ld	ra,8(sp)
 132              		.cfi_restore 1
 133 0034 03340100 		ld	s0,0(sp)
 134              		.cfi_restore 8
 135              		.cfi_def_cfa 2, 16
 136 0038 13010101 		addi	sp,sp,16
 137              		.cfi_def_cfa_offset 0
 138 003c 67800000 		jr	ra
 139              	.LVL8:
 140              	.L15:
 141 0040 67800000 		ret
 142              		.cfi_endproc
 143              	.LFE27:
 145              		.section	.text._ZN6ThreadD0Ev,"axG",@progbits,_ZN6ThreadD5Ev,comdat
 146              		.align	2
 147              		.weak	_ZN6ThreadD0Ev
 149              	_ZN6ThreadD0Ev:
 150              	.LFB6:
  28:src/../h/syscall_cpp.hpp ****             //running=myHandle;
 151              		.loc 1 28 17 is_stmt 1
GAS LISTING /tmp/ccncZtRA.s 			page 5


 152              		.cfi_startproc
 153              	.LVL9:
 154 0000 130101FF 		addi	sp,sp,-16
 155              		.cfi_def_cfa_offset 16
 156 0004 23341100 		sd	ra,8(sp)
 157 0008 23308100 		sd	s0,0(sp)
 158              		.cfi_offset 1, -8
 159              		.cfi_offset 8, -16
 160 000c 13040101 		addi	s0,sp,16
 161              		.cfi_def_cfa 8, 0
  31:src/../h/syscall_cpp.hpp ****         int start (){
 162              		.loc 1 31 9 is_stmt 0
 163 0010 97000000 		call	_ZdlPv@plt
 163      E7800000 
 164              	.LVL10:
 165 0018 83308100 		ld	ra,8(sp)
 166              		.cfi_restore 1
 167 001c 03340100 		ld	s0,0(sp)
 168              		.cfi_restore 8
 169              		.cfi_def_cfa 2, 16
 170 0020 13010101 		addi	sp,sp,16
 171              		.cfi_def_cfa_offset 0
 172 0024 67800000 		jr	ra
 173              		.cfi_endproc
 174              	.LFE6:
 176              		.text
 177              		.align	2
 178              		.globl	_Z5bodyCPv
 180              	_Z5bodyCPv:
 181              	.LFB28:
  25:src/main.cpp  **** 
  26:src/main.cpp  **** void bodyC(void* arg)
  27:src/main.cpp  **** {
 182              		.loc 2 27 1 is_stmt 1
 183              		.cfi_startproc
 184              	.LVL11:
 185 0044 130101FE 		addi	sp,sp,-32
 186              		.cfi_def_cfa_offset 32
 187 0048 233C1100 		sd	ra,24(sp)
 188 004c 23388100 		sd	s0,16(sp)
 189 0050 23349100 		sd	s1,8(sp)
 190 0054 23302101 		sd	s2,0(sp)
 191              		.cfi_offset 1, -8
 192              		.cfi_offset 8, -16
 193              		.cfi_offset 9, -24
 194              		.cfi_offset 18, -32
 195 0058 13040102 		addi	s0,sp,32
 196              		.cfi_def_cfa 8, 0
 197 005c 13090500 		mv	s2,a0
  28:src/main.cpp  ****     int counter=0;
 198              		.loc 2 28 5
 199              	.LVL12:
  29:src/main.cpp  ****     char*c = (char*)arg;
 200              		.loc 2 29 5
  28:src/main.cpp  ****     int counter=0;
 201              		.loc 2 28 9 is_stmt 0
 202 0060 93040000 		li	s1,0
GAS LISTING /tmp/ccncZtRA.s 			page 6


 203              	.LVL13:
 204              	.L20:
  30:src/main.cpp  ****     while(counter<10){
 205              		.loc 2 30 5 is_stmt 1
 206              		.loc 2 30 18
 207 0064 93079000 		li	a5,9
 208 0068 63C29702 		bgt	s1,a5,.L18
  31:src/main.cpp  ****         //if(++counter>5) delete semTest;
  32:src/main.cpp  ****         putc(*c);
 209              		.loc 2 32 9
 210              		.loc 2 32 13 is_stmt 0
 211 006c 03450900 		lbu	a0,0(s2)
 212 0070 97000000 		call	_Z4putcc@plt
 212      E7800000 
 213              	.LVL14:
  33:src/main.cpp  ****         time_sleep(1);
 214              		.loc 2 33 9 is_stmt 1
 215              		.loc 2 33 19 is_stmt 0
 216 0078 13051000 		li	a0,1
 217 007c 97000000 		call	_Z10time_sleepm@plt
 217      E7800000 
 218              	.LVL15:
  34:src/main.cpp  ****         counter++;
 219              		.loc 2 34 9 is_stmt 1
 220              		.loc 2 34 16 is_stmt 0
 221 0084 9B841400 		addiw	s1,s1,1
 222              	.LVL16:
  30:src/main.cpp  ****         //if(++counter>5) delete semTest;
 223              		.loc 2 30 5
 224 0088 6FF0DFFD 		j	.L20
 225              	.LVL17:
 226              	.L18:
  35:src/main.cpp  ****     }
  36:src/main.cpp  ****     counter++;
  37:src/main.cpp  ****     //thread_exit();
  38:src/main.cpp  **** }
 227              		.loc 2 38 1
 228 008c 83308101 		ld	ra,24(sp)
 229              		.cfi_restore 1
 230 0090 03340101 		ld	s0,16(sp)
 231              		.cfi_restore 8
 232              		.cfi_def_cfa 2, 32
 233 0094 83348100 		ld	s1,8(sp)
 234              		.cfi_restore 9
 235              	.LVL18:
 236 0098 03390100 		ld	s2,0(sp)
 237              		.cfi_restore 18
 238              	.LVL19:
 239 009c 13010102 		addi	sp,sp,32
 240              		.cfi_def_cfa_offset 0
 241 00a0 67800000 		jr	ra
 242              		.cfi_endproc
 243              	.LFE28:
 245              		.align	2
 246              		.globl	_Z5bodyAPv
 248              	_Z5bodyAPv:
 249              	.LFB29:
GAS LISTING /tmp/ccncZtRA.s 			page 7


  39:src/main.cpp  **** 
  40:src/main.cpp  **** void bodyA(void* arg)
  41:src/main.cpp  **** {
 250              		.loc 2 41 1 is_stmt 1
 251              		.cfi_startproc
 252              	.LVL20:
 253 00a4 130101FE 		addi	sp,sp,-32
 254              		.cfi_def_cfa_offset 32
 255 00a8 233C1100 		sd	ra,24(sp)
 256 00ac 23388100 		sd	s0,16(sp)
 257 00b0 23349100 		sd	s1,8(sp)
 258 00b4 23302101 		sd	s2,0(sp)
 259              		.cfi_offset 1, -8
 260              		.cfi_offset 8, -16
 261              		.cfi_offset 9, -24
 262              		.cfi_offset 18, -32
 263 00b8 13040102 		addi	s0,sp,32
 264              		.cfi_def_cfa 8, 0
  42:src/main.cpp  ****     char c = 'a';
 265              		.loc 2 42 5
 266              	.LVL21:
  43:src/main.cpp  ****     if(semTest->wait()) c='A';
 267              		.loc 2 43 5
 268              	.LBB17:
 269              	.LBB18:
  56:src/../h/syscall_cpp.hpp ****         private:
  57:src/../h/syscall_cpp.hpp ****         thread_t myHandle;
  58:src/../h/syscall_cpp.hpp ****         void (*body)(void*); void* arg;
  59:src/../h/syscall_cpp.hpp **** };
  60:src/../h/syscall_cpp.hpp **** 
  61:src/../h/syscall_cpp.hpp **** class Semaphore {
  62:src/../h/syscall_cpp.hpp ****         public:
  63:src/../h/syscall_cpp.hpp ****         Semaphore (unsigned init = 1){
  64:src/../h/syscall_cpp.hpp ****             sem_open(&myHandle,init);
  65:src/../h/syscall_cpp.hpp ****         }
  66:src/../h/syscall_cpp.hpp ****         virtual ~Semaphore (){
  67:src/../h/syscall_cpp.hpp ****             sem_close(myHandle);
  68:src/../h/syscall_cpp.hpp ****         }
  69:src/../h/syscall_cpp.hpp ****         int wait (){
  70:src/../h/syscall_cpp.hpp ****             return sem_wait(myHandle);
 270              		.loc 1 70 13
 271              		.loc 1 70 28 is_stmt 0
 272 00bc 97070000 		ld	a5,.LANCHOR1
 272      83B70700 
 273 00c4 03B58700 		ld	a0,8(a5)
 274              	.LVL22:
 275 00c8 97000000 		call	_Z8sem_waitP5sem_s@plt
 275      E7800000 
 276              	.LVL23:
 277              	.LBE18:
 278              	.LBE17:
 279              		.loc 2 43 5
 280 00d0 63180500 		bnez	a0,.L27
  42:src/main.cpp  ****     if(semTest->wait()) c='A';
 281              		.loc 2 42 10
 282 00d4 13091006 		li	s2,97
 283              	.L23:
GAS LISTING /tmp/ccncZtRA.s 			page 8


 284              	.LVL24:
  44:src/main.cpp  ****     for(int i=0;i<10;i++){
 285              		.loc 2 44 5 is_stmt 1
 286              	.LBB19:
 287              		.loc 2 44 13 is_stmt 0
 288 00d8 93040000 		li	s1,0
 289 00dc 6F000002 		j	.L26
 290              	.LVL25:
 291              	.L27:
 292              	.LBE19:
  43:src/main.cpp  ****     for(int i=0;i<10;i++){
 293              		.loc 2 43 26
 294 00e0 13091004 		li	s2,65
 295 00e4 6FF05FFF 		j	.L23
 296              	.LVL26:
 297              	.L29:
 298              	.LBB20:
  45:src/main.cpp  ****         putc(c);
  46:src/main.cpp  ****         if(i==5) thread_exit();
 299              		.loc 2 46 18 is_stmt 1 discriminator 1
 300              		.loc 2 46 29 is_stmt 0 discriminator 1
 301 00e8 97000000 		call	_Z11thread_exitv@plt
 301      E7800000 
 302              	.LVL27:
 303              	.L25:
  47:src/main.cpp  ****         thread_dispatch();
 304              		.loc 2 47 9 is_stmt 1 discriminator 2
 305              		.loc 2 47 24 is_stmt 0 discriminator 2
 306 00f0 97000000 		call	_Z15thread_dispatchv@plt
 306      E7800000 
 307              	.LVL28:
  44:src/main.cpp  ****         putc(c);
 308              		.loc 2 44 5 is_stmt 1 discriminator 2
 309 00f8 9B841400 		addiw	s1,s1,1
 310              	.LVL29:
 311              	.L26:
  44:src/main.cpp  ****         putc(c);
 312              		.loc 2 44 18 discriminator 1
 313 00fc 93079000 		li	a5,9
 314 0100 63CE9700 		bgt	s1,a5,.L22
  45:src/main.cpp  ****         putc(c);
 315              		.loc 2 45 9
  45:src/main.cpp  ****         putc(c);
 316              		.loc 2 45 13 is_stmt 0
 317 0104 13050900 		mv	a0,s2
 318 0108 97000000 		call	_Z4putcc@plt
 318      E7800000 
 319              	.LVL30:
  46:src/main.cpp  ****         thread_dispatch();
 320              		.loc 2 46 9 is_stmt 1
 321 0110 93075000 		li	a5,5
 322 0114 E39EF4FC 		bne	s1,a5,.L25
 323 0118 6FF01FFD 		j	.L29
 324              	.L22:
 325              	.LBE20:
  48:src/main.cpp  ****     }
  49:src/main.cpp  **** }
GAS LISTING /tmp/ccncZtRA.s 			page 9


 326              		.loc 2 49 1 is_stmt 0
 327 011c 83308101 		ld	ra,24(sp)
 328              		.cfi_restore 1
 329 0120 03340101 		ld	s0,16(sp)
 330              		.cfi_restore 8
 331              		.cfi_def_cfa 2, 32
 332 0124 83348100 		ld	s1,8(sp)
 333              		.cfi_restore 9
 334              	.LVL31:
 335 0128 03390100 		ld	s2,0(sp)
 336              		.cfi_restore 18
 337              	.LVL32:
 338 012c 13010102 		addi	sp,sp,32
 339              		.cfi_def_cfa_offset 0
 340 0130 67800000 		jr	ra
 341              		.cfi_endproc
 342              	.LFE29:
 344              		.align	2
 345              		.globl	_Z5bodyBPv
 347              	_Z5bodyBPv:
 348              	.LFB30:
  50:src/main.cpp  **** 
  51:src/main.cpp  **** int g=0;
  52:src/main.cpp  **** 
  53:src/main.cpp  **** char str[15] = "tesa legenda";
  54:src/main.cpp  **** void bodyB(void* arg)
  55:src/main.cpp  **** {
 349              		.loc 2 55 1 is_stmt 1
 350              		.cfi_startproc
 351              	.LVL33:
 352 0134 130101FE 		addi	sp,sp,-32
 353              		.cfi_def_cfa_offset 32
 354 0138 233C1100 		sd	ra,24(sp)
 355 013c 23388100 		sd	s0,16(sp)
 356 0140 23349100 		sd	s1,8(sp)
 357              		.cfi_offset 1, -8
 358              		.cfi_offset 8, -16
 359              		.cfi_offset 9, -24
 360 0144 13040102 		addi	s0,sp,32
 361              		.cfi_def_cfa 8, 0
  56:src/main.cpp  **** 
  57:src/main.cpp  ****     time_sleep(10);
 362              		.loc 2 57 5
 363              		.loc 2 57 15 is_stmt 0
 364 0148 1305A000 		li	a0,10
 365              	.LVL34:
 366 014c 97000000 		call	_Z10time_sleepm@plt
 366      E7800000 
 367              	.LVL35:
  58:src/main.cpp  ****     for(int i=0;i<4;i++){
 368              		.loc 2 58 5 is_stmt 1
 369              	.LBB21:
 370              		.loc 2 58 13 is_stmt 0
 371 0154 93040000 		li	s1,0
 372 0158 6F004005 		j	.L37
 373              	.LVL36:
 374              	.L34:
GAS LISTING /tmp/ccncZtRA.s 			page 10


 375              	.LBB22:
 376              	.LBB23:
 377              	.LBB24:
  59:src/main.cpp  ****         putc(str[i]);
  60:src/main.cpp  ****         for(int k=0;k<10000;k++){
  61:src/main.cpp  ****             for(int m=0;m<1000;m++){
 378              		.loc 2 61 13 is_stmt 1 discriminator 2
 379 015c 1B071700 		addiw	a4,a4,1
 380              	.LVL37:
 381              	.L35:
 382              		.loc 2 61 26 discriminator 1
 383 0160 9307703E 		li	a5,999
 384 0164 63C6E702 		bgt	a4,a5,.L33
  62:src/main.cpp  ****                 if((m*k)%1337==0) g++;
 385              		.loc 2 62 17
 386              		.loc 2 62 22 is_stmt 0
 387 0168 BB07E602 		mulw	a5,a2,a4
 388              		.loc 2 62 25
 389 016c 93069053 		li	a3,1337
 390 0170 BBE7D702 		remw	a5,a5,a3
 391              		.loc 2 62 17
 392 0174 E39407FE 		bnez	a5,.L34
 393              		.loc 2 62 35 is_stmt 1 discriminator 1
 394              		.loc 2 62 36 is_stmt 0 discriminator 1
 395 0178 97060000 		lla	a3,.LANCHOR1
 395      93860600 
 396 0180 83A78600 		lw	a5,8(a3)
 397 0184 9B871700 		addiw	a5,a5,1
 398 0188 23A4F600 		sw	a5,8(a3)
 399 018c 6FF01FFD 		j	.L34
 400              	.L33:
 401              	.LBE24:
  60:src/main.cpp  ****             for(int m=0;m<1000;m++){
 402              		.loc 2 60 9 is_stmt 1 discriminator 2
 403 0190 1B061600 		addiw	a2,a2,1
 404              	.LVL38:
 405              	.L36:
  60:src/main.cpp  ****             for(int m=0;m<1000;m++){
 406              		.loc 2 60 22 discriminator 1
 407 0194 B7270000 		li	a5,8192
 408 0198 9387F770 		addi	a5,a5,1807
 409 019c 63C6C700 		bgt	a2,a5,.L32
 410              	.LBB25:
  61:src/main.cpp  ****                 if((m*k)%1337==0) g++;
 411              		.loc 2 61 21 is_stmt 0
 412 01a0 13070000 		li	a4,0
 413 01a4 6FF0DFFB 		j	.L35
 414              	.L32:
 415              	.LBE25:
 416              	.LBE23:
 417              	.LBE22:
  58:src/main.cpp  ****         putc(str[i]);
 418              		.loc 2 58 5 is_stmt 1 discriminator 2
 419 01a8 9B841400 		addiw	s1,s1,1
 420              	.LVL39:
 421              	.L37:
  58:src/main.cpp  ****         putc(str[i]);
GAS LISTING /tmp/ccncZtRA.s 			page 11


 422              		.loc 2 58 18 discriminator 1
 423 01ac 93073000 		li	a5,3
 424 01b0 63C29702 		bgt	s1,a5,.L31
 425              	.LBB27:
  59:src/main.cpp  ****         for(int k=0;k<10000;k++){
 426              		.loc 2 59 9
  59:src/main.cpp  ****         for(int k=0;k<10000;k++){
 427              		.loc 2 59 13 is_stmt 0
 428 01b4 97070000 		lla	a5,.LANCHOR0
 428      93870700 
 429 01bc B3879700 		add	a5,a5,s1
 430 01c0 03C58700 		lbu	a0,8(a5)
 431 01c4 97000000 		call	_Z4putcc@plt
 431      E7800000 
 432              	.LVL40:
  60:src/main.cpp  ****             for(int m=0;m<1000;m++){
 433              		.loc 2 60 9 is_stmt 1
 434              	.LBB26:
  60:src/main.cpp  ****             for(int m=0;m<1000;m++){
 435              		.loc 2 60 17 is_stmt 0
 436 01cc 13060000 		li	a2,0
 437 01d0 6FF05FFC 		j	.L36
 438              	.LVL41:
 439              	.L31:
 440              	.LBE26:
 441              	.LBE27:
 442              	.LBE21:
  63:src/main.cpp  ****             }
  64:src/main.cpp  ****         }
  65:src/main.cpp  ****     }
  66:src/main.cpp  ****     semTest->signal();
 443              		.loc 2 66 5 is_stmt 1
 444              	.LBB28:
 445              	.LBB29:
  71:src/../h/syscall_cpp.hpp ****         }
  72:src/../h/syscall_cpp.hpp ****         int signal (){
  73:src/../h/syscall_cpp.hpp ****             return sem_signal(myHandle);
 446              		.loc 1 73 13
 447              		.loc 1 73 30 is_stmt 0
 448 01d4 97070000 		ld	a5,.LANCHOR1
 448      83B70700 
 449 01dc 03B58700 		ld	a0,8(a5)
 450 01e0 97000000 		call	_Z10sem_signalP5sem_s@plt
 450      E7800000 
 451              	.LVL42:
 452              	.LBE29:
 453              	.LBE28:
  67:src/main.cpp  **** }
 454              		.loc 2 67 1
 455 01e8 83308101 		ld	ra,24(sp)
 456              		.cfi_restore 1
 457 01ec 03340101 		ld	s0,16(sp)
 458              		.cfi_restore 8
 459              		.cfi_def_cfa 2, 32
 460 01f0 83348100 		ld	s1,8(sp)
 461              		.cfi_restore 9
 462              	.LVL43:
GAS LISTING /tmp/ccncZtRA.s 			page 12


 463 01f4 13010102 		addi	sp,sp,32
 464              		.cfi_def_cfa_offset 0
 465 01f8 67800000 		jr	ra
 466              		.cfi_endproc
 467              	.LFE30:
 469              		.align	2
 470              		.globl	main
 472              	main:
 473              	.LFB31:
  68:src/main.cpp  **** 
  69:src/main.cpp  **** extern void userMain();
  70:src/main.cpp  **** 
  71:src/main.cpp  **** int main()
  72:src/main.cpp  **** {
 474              		.loc 2 72 1 is_stmt 1
 475              		.cfi_startproc
 476 01fc 130101FF 		addi	sp,sp,-16
 477              		.cfi_def_cfa_offset 16
 478 0200 23341100 		sd	ra,8(sp)
 479 0204 23308100 		sd	s0,0(sp)
 480              		.cfi_offset 1, -8
 481              		.cfi_offset 8, -16
 482 0208 13040101 		addi	s0,sp,16
 483              		.cfi_def_cfa 8, 0
  73:src/main.cpp  ****     kern_thread_init();
 484              		.loc 2 73 5
 485              		.loc 2 73 21 is_stmt 0
 486 020c 97000000 		call	_Z16kern_thread_initv@plt
 486      E7800000 
 487              	.LVL44:
  74:src/main.cpp  ****     //printstring("lalala");
  75:src/main.cpp  **** 
  76:src/main.cpp  ****     kern_mem_init((void*)HEAP_START_ADDR, (void*)HEAP_END_ADDR);
 488              		.loc 2 76 5 is_stmt 1
 489              		.loc 2 76 18 is_stmt 0
 490 0214 97070000 		la	a5,HEAP_END_ADDR
 490      83B70700 
 491 021c 83B50700 		ld	a1,0(a5)
 492 0220 97070000 		la	a5,HEAP_START_ADDR
 492      83B70700 
 493 0228 03B50700 		ld	a0,0(a5)
 494 022c 97000000 		call	_Z13kern_mem_initPvS_@plt
 494      E7800000 
 495              	.LVL45:
  77:src/main.cpp  ****     kern_interrupt_init();
 496              		.loc 2 77 5 is_stmt 1
 497              		.loc 2 77 24 is_stmt 0
 498 0234 97000000 		call	_Z19kern_interrupt_initv@plt
 498      E7800000 
 499              	.LVL46:
  78:src/main.cpp  ****     kern_sem_init();
 500              		.loc 2 78 5 is_stmt 1
 501              		.loc 2 78 18 is_stmt 0
 502 023c 97000000 		call	_Z13kern_sem_initv@plt
 502      E7800000 
 503              	.LVL47:
  79:src/main.cpp  ****     kern_console_init();
GAS LISTING /tmp/ccncZtRA.s 			page 13


 504              		.loc 2 79 5 is_stmt 1
 505              		.loc 2 79 22 is_stmt 0
 506 0244 97000000 		call	_Z17kern_console_initv@plt
 506      E7800000 
 507              	.LVL48:
  80:src/main.cpp  **** 
  81:src/main.cpp  ****     Thread* thrIdle = new Thread(&bodyIdle,0);
 508              		.loc 2 81 5 is_stmt 1
 509              		.loc 2 81 45 is_stmt 0
 510 024c 13050002 		li	a0,32
 511 0250 97000000 		call	_Znwm@plt
 511      E7800000 
 512              	.LVL49:
 513              	.LBB35:
 514              	.LBB36:
  24:src/../h/syscall_cpp.hpp ****             this->body=body;
 515              		.loc 1 24 9
 516 0258 97070000 		lla	a5,_ZTV6Thread+16
 516      93870700 
 517 0260 2330F500 		sd	a5,0(a0)
  25:src/../h/syscall_cpp.hpp ****             this->arg=arg;
 518              		.loc 1 25 13 is_stmt 1
  25:src/../h/syscall_cpp.hpp ****             this->arg=arg;
 519              		.loc 1 25 23 is_stmt 0
 520 0264 97050000 		lla	a1,_Z8bodyIdlePv
 520      93850500 
 521 026c 2338B500 		sd	a1,16(a0)
  26:src/../h/syscall_cpp.hpp ****         }
 522              		.loc 1 26 13 is_stmt 1
  26:src/../h/syscall_cpp.hpp ****         }
 523              		.loc 1 26 22 is_stmt 0
 524 0270 233C0500 		sd	zero,24(a0)
 525              	.LVL50:
 526              	.LBE36:
 527              	.LBE35:
  82:src/main.cpp  ****     thrIdle->start();
 528              		.loc 2 82 5 is_stmt 1
 529              	.LBB37:
 530              	.LBB38:
  33:src/../h/syscall_cpp.hpp ****             else return thread_create(&myHandle,body,arg);
 531              		.loc 1 33 13
  34:src/../h/syscall_cpp.hpp ****         }
 532              		.loc 1 34 18
  34:src/../h/syscall_cpp.hpp ****         }
 533              		.loc 1 34 38 is_stmt 0
 534 0274 13060000 		li	a2,0
 535 0278 13058500 		addi	a0,a0,8
 536              	.LVL51:
 537 027c 97000000 		call	_Z13thread_createPP8thread_sPFvPvES2_@plt
 537      E7800000 
 538              	.LVL52:
 539              	.LBE38:
 540              	.LBE37:
  83:src/main.cpp  **** /*
  84:src/main.cpp  ****     semTest=new Semaphore(0);
  85:src/main.cpp  ****     Thread *thrA = new Thread(&bodyA,0);
  86:src/main.cpp  ****     Thread *thrB = new Thread(&bodyB,0);
GAS LISTING /tmp/ccncZtRA.s 			page 14


  87:src/main.cpp  ****     thrB->start();
  88:src/main.cpp  ****     thrA->start();
  89:src/main.cpp  ****     putc('S');
  90:src/main.cpp  ****     char c='M';
  91:src/main.cpp  ****     c++;
  92:src/main.cpp  ****     Thread *thrCobj = new Thread(&bodyC,&c);
  93:src/main.cpp  ****     thrCobj->start();
  94:src/main.cpp  **** 
  95:src/main.cpp  ****     thrCobj->join();
  96:src/main.cpp  ****     */
  97:src/main.cpp  ****     //thrB->join();
  98:src/main.cpp  ****     //thrA->join();
  99:src/main.cpp  ****     /*
 100:src/main.cpp  ****     thrB->join();
 101:src/main.cpp  **** 
 102:src/main.cpp  ****     char o='O';
 103:src/main.cpp  ****     o++;
 104:src/main.cpp  ****     thread_t thrC;
 105:src/main.cpp  ****     thread_create(&thrC,&bodyC,&o);
 106:src/main.cpp  ****     thrCobj->join();
 107:src/main.cpp  ****     thread_join(thrC);
 108:src/main.cpp  ****     delete thrCobj;
 109:src/main.cpp  ****     thrB->start();
 110:src/main.cpp  ****     thrB->join();
 111:src/main.cpp  **** 
 112:src/main.cpp  **** */
 113:src/main.cpp  ****     /*char x = getc();
 114:src/main.cpp  ****     x=getc();
 115:src/main.cpp  ****     x++;
 116:src/main.cpp  ****     putc(x);*/
 117:src/main.cpp  ****     userMain();
 541              		.loc 2 117 5 is_stmt 1
 542              		.loc 2 117 13 is_stmt 0
 543 0284 97000000 		call	_Z8userMainv@plt
 543      E7800000 
 544              	.LVL53:
 118:src/main.cpp  **** 
 119:src/main.cpp  **** /*
 120:src/main.cpp  ****     putc('E');
 121:src/main.cpp  ****     char x = 'm';
 122:src/main.cpp  ****     while (x!='x'){
 123:src/main.cpp  ****         x=getc();
 124:src/main.cpp  ****         putc(x);
 125:src/main.cpp  ****     }
 126:src/main.cpp  **** */
 127:src/main.cpp  ****     idleAlive=0;
 545              		.loc 2 127 5 is_stmt 1
 546              		.loc 2 127 14 is_stmt 0
 547 028c 97070000 		sw	zero,.LANCHOR0,a5
 547      23A00700 
 128:src/main.cpp  ****     return 0;
 548              		.loc 2 128 5 is_stmt 1
 129:src/main.cpp  **** }...
 549              		.loc 2 129 1 is_stmt 0
 550 0294 13050000 		li	a0,0
 551 0298 83308100 		ld	ra,8(sp)
 552              		.cfi_restore 1
GAS LISTING /tmp/ccncZtRA.s 			page 15


 553 029c 03340100 		ld	s0,0(sp)
 554              		.cfi_restore 8
 555              		.cfi_def_cfa 2, 16
 556 02a0 13010101 		addi	sp,sp,16
 557              		.cfi_def_cfa_offset 0
 558 02a4 67800000 		jr	ra
 559              		.cfi_endproc
 560              	.LFE31:
 562              		.weak	_ZTV6Thread
 563              		.section	.data.rel.ro.local._ZTV6Thread,"awG",@progbits,_ZTV6Thread,comdat
 564              		.align	3
 567              	_ZTV6Thread:
 568 0000 00000000 		.dword	0
 568      00000000 
 569 0008 00000000 		.dword	0
 569      00000000 
 570 0010 00000000 		.dword	_ZN6ThreadD1Ev
 570      00000000 
 571 0018 00000000 		.dword	_ZN6ThreadD0Ev
 571      00000000 
 572 0020 00000000 		.dword	_ZN6Thread3runEv
 572      00000000 
 573              		.globl	str
 574              		.globl	g
 575              		.globl	idleAlive
 576              		.globl	semTest
 577              		.data
 578              		.align	3
 579              		.set	.LANCHOR0,. + 0
 582              	idleAlive:
 583 0000 01000000 		.word	1
 584 0004 00000000 		.zero	4
 587              	str:
 588 0008 74657361 		.string	"tesa legenda"
 588      206C6567 
 588      656E6461 
 588      00
 589 0015 0000     		.zero	2
 590              		.bss
 591              		.align	3
 592              		.set	.LANCHOR1,. + 0
 595              	semTest:
 596 0000 00000000 		.zero	8
 596      00000000 
 599              	g:
 600 0008 00000000 		.zero	4
 601              		.text
 602              	.Letext0:
 603              		.file 3 "src/../h/../lib/hw.h"
 604              		.file 4 "src/../h/syscall_c.h"
 605              		.file 5 "src/../h/./kern_threads.hpp"
 606              		.file 6 "src/../h/kern_semaphore.hpp"
 607              		.file 7 "src/../h/kern_memory.hpp"
 608              		.file 8 "src/../h/kern_interrupts.hpp"
 609              		.file 9 "src/../h/kern_console.hpp"
GAS LISTING /tmp/ccncZtRA.s 			page 16


DEFINED SYMBOLS
                            *ABS*:0000000000000000 main.cpp
     /tmp/ccncZtRA.s:10     .text._ZN6ThreadD2Ev:0000000000000000 _ZN6ThreadD2Ev
     /tmp/ccncZtRA.s:14     .text._ZN6ThreadD2Ev:0000000000000000 .L0 
     /tmp/ccncZtRA.s:16     .text._ZN6ThreadD2Ev:0000000000000000 .L0 
     /tmp/ccncZtRA.s:17     .text._ZN6ThreadD2Ev:0000000000000004 .L0 
     /tmp/ccncZtRA.s:19     .text._ZN6ThreadD2Ev:0000000000000008 .L0 
     /tmp/ccncZtRA.s:21     .text._ZN6ThreadD2Ev:000000000000000c .L0 
     /tmp/ccncZtRA.s:23     .text._ZN6ThreadD2Ev:000000000000000c .L0 
     /tmp/ccncZtRA.s:24     .text._ZN6ThreadD2Ev:0000000000000010 .L0 
     /tmp/ccncZtRA.s:25     .text._ZN6ThreadD2Ev:0000000000000010 .L0 
     /tmp/ccncZtRA.s:27     .text._ZN6ThreadD2Ev:0000000000000014 .L0 
     /tmp/ccncZtRA.s:29     .text._ZN6ThreadD2Ev:0000000000000018 .L0 
     /tmp/ccncZtRA.s:10     .text._ZN6ThreadD2Ev:0000000000000000 _ZN6ThreadD1Ev
     /tmp/ccncZtRA.s:38     .text._ZN6Thread3runEv:0000000000000000 _ZN6Thread3runEv
     /tmp/ccncZtRA.s:41     .text._ZN6Thread3runEv:0000000000000000 .L0 
     /tmp/ccncZtRA.s:43     .text._ZN6Thread3runEv:0000000000000000 .L0 
     /tmp/ccncZtRA.s:44     .text._ZN6Thread3runEv:0000000000000004 .L0 
     /tmp/ccncZtRA.s:46     .text._ZN6Thread3runEv:0000000000000008 .L0 
     /tmp/ccncZtRA.s:48     .text._ZN6Thread3runEv:000000000000000c .L0 
     /tmp/ccncZtRA.s:50     .text._ZN6Thread3runEv:000000000000000c .L0 
     /tmp/ccncZtRA.s:51     .text._ZN6Thread3runEv:0000000000000010 .L0 
     /tmp/ccncZtRA.s:52     .text._ZN6Thread3runEv:0000000000000010 .L0 
     /tmp/ccncZtRA.s:54     .text._ZN6Thread3runEv:0000000000000014 .L0 
     /tmp/ccncZtRA.s:56     .text._ZN6Thread3runEv:0000000000000018 .L0 
     /tmp/ccncZtRA.s:63     .text._ZN6Thread11threadEntryEPv:0000000000000000 _ZN6Thread11threadEntryEPv
     /tmp/ccncZtRA.s:66     .text._ZN6Thread11threadEntryEPv:0000000000000000 .L0 
     /tmp/ccncZtRA.s:68     .text._ZN6Thread11threadEntryEPv:0000000000000000 .L0 
     /tmp/ccncZtRA.s:69     .text._ZN6Thread11threadEntryEPv:0000000000000004 .L0 
     /tmp/ccncZtRA.s:72     .text._ZN6Thread11threadEntryEPv:000000000000000c .L0 
     /tmp/ccncZtRA.s:73     .text._ZN6Thread11threadEntryEPv:000000000000000c .L0 
     /tmp/ccncZtRA.s:75     .text._ZN6Thread11threadEntryEPv:0000000000000010 .L0 
     /tmp/ccncZtRA.s:78     .text._ZN6Thread11threadEntryEPv:0000000000000010 .L0 
     /tmp/ccncZtRA.s:79     .text._ZN6Thread11threadEntryEPv:0000000000000010 .L0 
     /tmp/ccncZtRA.s:80     .text._ZN6Thread11threadEntryEPv:0000000000000010 .L0 
     /tmp/ccncZtRA.s:83     .text._ZN6Thread11threadEntryEPv:0000000000000018 .L0 
     /tmp/ccncZtRA.s:86     .text._ZN6Thread11threadEntryEPv:000000000000001c .L0 
     /tmp/ccncZtRA.s:87     .text._ZN6Thread11threadEntryEPv:0000000000000020 .L0 
     /tmp/ccncZtRA.s:89     .text._ZN6Thread11threadEntryEPv:0000000000000024 .L0 
     /tmp/ccncZtRA.s:90     .text._ZN6Thread11threadEntryEPv:0000000000000024 .L0 
     /tmp/ccncZtRA.s:92     .text._ZN6Thread11threadEntryEPv:0000000000000028 .L0 
     /tmp/ccncZtRA.s:94     .text._ZN6Thread11threadEntryEPv:000000000000002c .L0 
     /tmp/ccncZtRA.s:101    .text:0000000000000000 _Z8bodyIdlePv
     /tmp/ccncZtRA.s:105    .text:0000000000000000 .L0 
     /tmp/ccncZtRA.s:107    .text:0000000000000000 .L0 
     /tmp/ccncZtRA.s:108    .text:0000000000000000 .L0 
     /tmp/ccncZtRA.s:109    .text:0000000000000000 .L0 
     /tmp/ccncZtRA.s:112    .text:000000000000000c .L0 
     /tmp/ccncZtRA.s:113    .text:0000000000000010 .L0 
     /tmp/ccncZtRA.s:116    .text:0000000000000018 .L0 
     /tmp/ccncZtRA.s:117    .text:0000000000000018 .L0 
     /tmp/ccncZtRA.s:119    .text:000000000000001c .L0 
     /tmp/ccncZtRA.s:123    .text:000000000000001c .L0 
     /tmp/ccncZtRA.s:124    .text:000000000000001c .L0 
     /tmp/ccncZtRA.s:127    .text:0000000000000024 .L0 
     /tmp/ccncZtRA.s:128    .text:0000000000000024 .L0 
     /tmp/ccncZtRA.s:131    .text:0000000000000030 .L0 
GAS LISTING /tmp/ccncZtRA.s 			page 17


     /tmp/ccncZtRA.s:132    .text:0000000000000034 .L0 
     /tmp/ccncZtRA.s:134    .text:0000000000000038 .L0 
     /tmp/ccncZtRA.s:135    .text:0000000000000038 .L0 
     /tmp/ccncZtRA.s:137    .text:000000000000003c .L0 
     /tmp/ccncZtRA.s:142    .text:0000000000000044 .L0 
     /tmp/ccncZtRA.s:149    .text._ZN6ThreadD0Ev:0000000000000000 _ZN6ThreadD0Ev
     /tmp/ccncZtRA.s:152    .text._ZN6ThreadD0Ev:0000000000000000 .L0 
     /tmp/ccncZtRA.s:154    .text._ZN6ThreadD0Ev:0000000000000000 .L0 
     /tmp/ccncZtRA.s:155    .text._ZN6ThreadD0Ev:0000000000000004 .L0 
     /tmp/ccncZtRA.s:158    .text._ZN6ThreadD0Ev:000000000000000c .L0 
     /tmp/ccncZtRA.s:159    .text._ZN6ThreadD0Ev:000000000000000c .L0 
     /tmp/ccncZtRA.s:161    .text._ZN6ThreadD0Ev:0000000000000010 .L0 
     /tmp/ccncZtRA.s:163    .text._ZN6ThreadD0Ev:0000000000000010 .L0 
     /tmp/ccncZtRA.s:166    .text._ZN6ThreadD0Ev:000000000000001c .L0 
     /tmp/ccncZtRA.s:168    .text._ZN6ThreadD0Ev:0000000000000020 .L0 
     /tmp/ccncZtRA.s:169    .text._ZN6ThreadD0Ev:0000000000000020 .L0 
     /tmp/ccncZtRA.s:171    .text._ZN6ThreadD0Ev:0000000000000024 .L0 
     /tmp/ccncZtRA.s:173    .text._ZN6ThreadD0Ev:0000000000000028 .L0 
     /tmp/ccncZtRA.s:180    .text:0000000000000044 _Z5bodyCPv
     /tmp/ccncZtRA.s:183    .text:0000000000000044 .L0 
     /tmp/ccncZtRA.s:185    .text:0000000000000044 .L0 
     /tmp/ccncZtRA.s:186    .text:0000000000000048 .L0 
     /tmp/ccncZtRA.s:191    .text:0000000000000058 .L0 
     /tmp/ccncZtRA.s:192    .text:0000000000000058 .L0 
     /tmp/ccncZtRA.s:193    .text:0000000000000058 .L0 
     /tmp/ccncZtRA.s:194    .text:0000000000000058 .L0 
     /tmp/ccncZtRA.s:196    .text:000000000000005c .L0 
     /tmp/ccncZtRA.s:200    .text:0000000000000060 .L0 
     /tmp/ccncZtRA.s:201    .text:0000000000000060 .L0 
     /tmp/ccncZtRA.s:202    .text:0000000000000060 .L0 
     /tmp/ccncZtRA.s:206    .text:0000000000000064 .L0 
     /tmp/ccncZtRA.s:207    .text:0000000000000064 .L0 
     /tmp/ccncZtRA.s:210    .text:000000000000006c .L0 
     /tmp/ccncZtRA.s:211    .text:000000000000006c .L0 
     /tmp/ccncZtRA.s:215    .text:0000000000000078 .L0 
     /tmp/ccncZtRA.s:216    .text:0000000000000078 .L0 
     /tmp/ccncZtRA.s:220    .text:0000000000000084 .L0 
     /tmp/ccncZtRA.s:221    .text:0000000000000084 .L0 
     /tmp/ccncZtRA.s:224    .text:0000000000000088 .L0 
     /tmp/ccncZtRA.s:228    .text:000000000000008c .L0 
     /tmp/ccncZtRA.s:229    .text:0000000000000090 .L0 
     /tmp/ccncZtRA.s:231    .text:0000000000000094 .L0 
     /tmp/ccncZtRA.s:232    .text:0000000000000094 .L0 
     /tmp/ccncZtRA.s:234    .text:0000000000000098 .L0 
     /tmp/ccncZtRA.s:237    .text:000000000000009c .L0 
     /tmp/ccncZtRA.s:240    .text:00000000000000a0 .L0 
     /tmp/ccncZtRA.s:242    .text:00000000000000a4 .L0 
     /tmp/ccncZtRA.s:248    .text:00000000000000a4 _Z5bodyAPv
     /tmp/ccncZtRA.s:251    .text:00000000000000a4 .L0 
     /tmp/ccncZtRA.s:253    .text:00000000000000a4 .L0 
     /tmp/ccncZtRA.s:254    .text:00000000000000a8 .L0 
     /tmp/ccncZtRA.s:259    .text:00000000000000b8 .L0 
     /tmp/ccncZtRA.s:260    .text:00000000000000b8 .L0 
     /tmp/ccncZtRA.s:261    .text:00000000000000b8 .L0 
     /tmp/ccncZtRA.s:262    .text:00000000000000b8 .L0 
     /tmp/ccncZtRA.s:264    .text:00000000000000bc .L0 
     /tmp/ccncZtRA.s:267    .text:00000000000000bc .L0 
GAS LISTING /tmp/ccncZtRA.s 			page 18


     /tmp/ccncZtRA.s:270    .text:00000000000000bc .L0 
     /tmp/ccncZtRA.s:271    .text:00000000000000bc .L0 
     /tmp/ccncZtRA.s:272    .text:00000000000000bc .L0 
     /tmp/ccncZtRA.s:280    .text:00000000000000d0 .L0 
     /tmp/ccncZtRA.s:282    .text:00000000000000d4 .L0 
     /tmp/ccncZtRA.s:287    .text:00000000000000d8 .L0 
     /tmp/ccncZtRA.s:288    .text:00000000000000d8 .L0 
     /tmp/ccncZtRA.s:294    .text:00000000000000e0 .L0 
     /tmp/ccncZtRA.s:300    .text:00000000000000e8 .L0 
     /tmp/ccncZtRA.s:301    .text:00000000000000e8 .L0 
     /tmp/ccncZtRA.s:305    .text:00000000000000f0 .L0 
     /tmp/ccncZtRA.s:306    .text:00000000000000f0 .L0 
     /tmp/ccncZtRA.s:309    .text:00000000000000f8 .L0 
     /tmp/ccncZtRA.s:313    .text:00000000000000fc .L0 
     /tmp/ccncZtRA.s:316    .text:0000000000000104 .L0 
     /tmp/ccncZtRA.s:317    .text:0000000000000104 .L0 
     /tmp/ccncZtRA.s:321    .text:0000000000000110 .L0 
     /tmp/ccncZtRA.s:327    .text:000000000000011c .L0 
     /tmp/ccncZtRA.s:328    .text:0000000000000120 .L0 
     /tmp/ccncZtRA.s:330    .text:0000000000000124 .L0 
     /tmp/ccncZtRA.s:331    .text:0000000000000124 .L0 
     /tmp/ccncZtRA.s:333    .text:0000000000000128 .L0 
     /tmp/ccncZtRA.s:336    .text:000000000000012c .L0 
     /tmp/ccncZtRA.s:339    .text:0000000000000130 .L0 
     /tmp/ccncZtRA.s:341    .text:0000000000000134 .L0 
     /tmp/ccncZtRA.s:347    .text:0000000000000134 _Z5bodyBPv
     /tmp/ccncZtRA.s:350    .text:0000000000000134 .L0 
     /tmp/ccncZtRA.s:352    .text:0000000000000134 .L0 
     /tmp/ccncZtRA.s:353    .text:0000000000000138 .L0 
     /tmp/ccncZtRA.s:357    .text:0000000000000144 .L0 
     /tmp/ccncZtRA.s:358    .text:0000000000000144 .L0 
     /tmp/ccncZtRA.s:359    .text:0000000000000144 .L0 
     /tmp/ccncZtRA.s:361    .text:0000000000000148 .L0 
     /tmp/ccncZtRA.s:363    .text:0000000000000148 .L0 
     /tmp/ccncZtRA.s:364    .text:0000000000000148 .L0 
     /tmp/ccncZtRA.s:370    .text:0000000000000154 .L0 
     /tmp/ccncZtRA.s:371    .text:0000000000000154 .L0 
     /tmp/ccncZtRA.s:379    .text:000000000000015c .L0 
     /tmp/ccncZtRA.s:383    .text:0000000000000160 .L0 
     /tmp/ccncZtRA.s:386    .text:0000000000000168 .L0 
     /tmp/ccncZtRA.s:387    .text:0000000000000168 .L0 
     /tmp/ccncZtRA.s:389    .text:000000000000016c .L0 
     /tmp/ccncZtRA.s:392    .text:0000000000000174 .L0 
     /tmp/ccncZtRA.s:394    .text:0000000000000178 .L0 
     /tmp/ccncZtRA.s:395    .text:0000000000000178 .L0 
     /tmp/ccncZtRA.s:403    .text:0000000000000190 .L0 
     /tmp/ccncZtRA.s:407    .text:0000000000000194 .L0 
     /tmp/ccncZtRA.s:412    .text:00000000000001a0 .L0 
     /tmp/ccncZtRA.s:419    .text:00000000000001a8 .L0 
     /tmp/ccncZtRA.s:423    .text:00000000000001ac .L0 
     /tmp/ccncZtRA.s:427    .text:00000000000001b4 .L0 
     /tmp/ccncZtRA.s:428    .text:00000000000001b4 .L0 
     /tmp/ccncZtRA.s:435    .text:00000000000001cc .L0 
     /tmp/ccncZtRA.s:436    .text:00000000000001cc .L0 
     /tmp/ccncZtRA.s:446    .text:00000000000001d4 .L0 
     /tmp/ccncZtRA.s:447    .text:00000000000001d4 .L0 
     /tmp/ccncZtRA.s:448    .text:00000000000001d4 .L0 
GAS LISTING /tmp/ccncZtRA.s 			page 19


     /tmp/ccncZtRA.s:455    .text:00000000000001e8 .L0 
     /tmp/ccncZtRA.s:456    .text:00000000000001ec .L0 
     /tmp/ccncZtRA.s:458    .text:00000000000001f0 .L0 
     /tmp/ccncZtRA.s:459    .text:00000000000001f0 .L0 
     /tmp/ccncZtRA.s:461    .text:00000000000001f4 .L0 
     /tmp/ccncZtRA.s:464    .text:00000000000001f8 .L0 
     /tmp/ccncZtRA.s:466    .text:00000000000001fc .L0 
     /tmp/ccncZtRA.s:472    .text:00000000000001fc main
     /tmp/ccncZtRA.s:475    .text:00000000000001fc .L0 
     /tmp/ccncZtRA.s:476    .text:00000000000001fc .L0 
     /tmp/ccncZtRA.s:477    .text:0000000000000200 .L0 
     /tmp/ccncZtRA.s:480    .text:0000000000000208 .L0 
     /tmp/ccncZtRA.s:481    .text:0000000000000208 .L0 
     /tmp/ccncZtRA.s:483    .text:000000000000020c .L0 
     /tmp/ccncZtRA.s:485    .text:000000000000020c .L0 
     /tmp/ccncZtRA.s:486    .text:000000000000020c .L0 
     /tmp/ccncZtRA.s:489    .text:0000000000000214 .L0 
     /tmp/ccncZtRA.s:490    .text:0000000000000214 .L0 
     /tmp/ccncZtRA.s:497    .text:0000000000000234 .L0 
     /tmp/ccncZtRA.s:498    .text:0000000000000234 .L0 
     /tmp/ccncZtRA.s:501    .text:000000000000023c .L0 
     /tmp/ccncZtRA.s:502    .text:000000000000023c .L0 
     /tmp/ccncZtRA.s:505    .text:0000000000000244 .L0 
     /tmp/ccncZtRA.s:506    .text:0000000000000244 .L0 
     /tmp/ccncZtRA.s:509    .text:000000000000024c .L0 
     /tmp/ccncZtRA.s:510    .text:000000000000024c .L0 
     /tmp/ccncZtRA.s:567    .data.rel.ro.local._ZTV6Thread:0000000000000000 _ZTV6Thread
     /tmp/ccncZtRA.s:516    .text:0000000000000258 .L0 
     /tmp/ccncZtRA.s:519    .text:0000000000000264 .L0 
     /tmp/ccncZtRA.s:520    .text:0000000000000264 .L0 
     /tmp/ccncZtRA.s:523    .text:0000000000000270 .L0 
     /tmp/ccncZtRA.s:524    .text:0000000000000270 .L0 
     /tmp/ccncZtRA.s:531    .text:0000000000000274 .L0 
     /tmp/ccncZtRA.s:532    .text:0000000000000274 .L0 
     /tmp/ccncZtRA.s:533    .text:0000000000000274 .L0 
     /tmp/ccncZtRA.s:534    .text:0000000000000274 .L0 
     /tmp/ccncZtRA.s:542    .text:0000000000000284 .L0 
     /tmp/ccncZtRA.s:543    .text:0000000000000284 .L0 
     /tmp/ccncZtRA.s:546    .text:000000000000028c .L0 
     /tmp/ccncZtRA.s:547    .text:000000000000028c .L0 
     /tmp/ccncZtRA.s:549    .text:0000000000000294 .L0 
     /tmp/ccncZtRA.s:550    .text:0000000000000294 .L0 
     /tmp/ccncZtRA.s:552    .text:000000000000029c .L0 
     /tmp/ccncZtRA.s:554    .text:00000000000002a0 .L0 
     /tmp/ccncZtRA.s:555    .text:00000000000002a0 .L0 
     /tmp/ccncZtRA.s:557    .text:00000000000002a4 .L0 
     /tmp/ccncZtRA.s:559    .text:00000000000002a8 .L0 
     /tmp/ccncZtRA.s:587    .data:0000000000000008 str
     /tmp/ccncZtRA.s:599    .bss:0000000000000008 g
     /tmp/ccncZtRA.s:582    .data:0000000000000000 idleAlive
     /tmp/ccncZtRA.s:595    .bss:0000000000000000 semTest
     /tmp/ccncZtRA.s:579    .data:0000000000000000 .LANCHOR0
     /tmp/ccncZtRA.s:592    .bss:0000000000000000 .LANCHOR1
     /tmp/ccncZtRA.s:34     .text._ZN6ThreadD2Ev:0000000000000018 .L0 
     /tmp/ccncZtRA.s:59     .text._ZN6Thread3runEv:0000000000000018 .L0 
     /tmp/ccncZtRA.s:97     .text._ZN6Thread11threadEntryEPv:000000000000002c .L0 
     /tmp/ccncZtRA.s:610    .text:00000000000002a8 .L0 
GAS LISTING /tmp/ccncZtRA.s 			page 20


     /tmp/ccncZtRA.s:176    .text._ZN6ThreadD0Ev:0000000000000028 .L0 
     /tmp/ccncZtRA.s:109    .text:0000000000000000 .L0 
     /tmp/ccncZtRA.s:128    .text:0000000000000024 .L0 
     /tmp/ccncZtRA.s:272    .text:00000000000000bc .L0 
     /tmp/ccncZtRA.s:395    .text:0000000000000178 .L0 
     /tmp/ccncZtRA.s:428    .text:00000000000001b4 .L0 
     /tmp/ccncZtRA.s:448    .text:00000000000001d4 .L0 
     /tmp/ccncZtRA.s:490    .text:0000000000000214 .L0 
     /tmp/ccncZtRA.s:492    .text:0000000000000220 .L0 
     /tmp/ccncZtRA.s:516    .text:0000000000000258 .L0 
     /tmp/ccncZtRA.s:520    .text:0000000000000264 .L0 
     /tmp/ccncZtRA.s:547    .text:000000000000028c .L0 
     /tmp/ccncZtRA.s:140    .text:0000000000000040 .L15
     /tmp/ccncZtRA.s:121    .text:000000000000001c .L12
     /tmp/ccncZtRA.s:226    .text:000000000000008c .L18
     /tmp/ccncZtRA.s:204    .text:0000000000000064 .L20
     /tmp/ccncZtRA.s:291    .text:00000000000000e0 .L27
     /tmp/ccncZtRA.s:311    .text:00000000000000fc .L26
     /tmp/ccncZtRA.s:283    .text:00000000000000d8 .L23
     /tmp/ccncZtRA.s:324    .text:000000000000011c .L22
     /tmp/ccncZtRA.s:303    .text:00000000000000f0 .L25
     /tmp/ccncZtRA.s:297    .text:00000000000000e8 .L29
     /tmp/ccncZtRA.s:421    .text:00000000000001ac .L37
     /tmp/ccncZtRA.s:400    .text:0000000000000190 .L33
     /tmp/ccncZtRA.s:374    .text:000000000000015c .L34
     /tmp/ccncZtRA.s:414    .text:00000000000001a8 .L32
     /tmp/ccncZtRA.s:381    .text:0000000000000160 .L35
     /tmp/ccncZtRA.s:439    .text:00000000000001d4 .L31
     /tmp/ccncZtRA.s:405    .text:0000000000000194 .L36
     /tmp/ccncZtRA.s:1824   .debug_abbrev:0000000000000000 .Ldebug_abbrev0
     /tmp/ccncZtRA.s:3318   .debug_str:000000000000052a .LASF114
     /tmp/ccncZtRA.s:3218   .debug_str:00000000000002ae .LASF115
     /tmp/ccncZtRA.s:3262   .debug_str:00000000000003d1 .LASF116
     /tmp/ccncZtRA.s:3074   .debug_ranges:0000000000000000 .Ldebug_ranges0
     /tmp/ccncZtRA.s:3106   .debug_line:0000000000000000 .Ldebug_line0
     /tmp/ccncZtRA.s:3238   .debug_str:0000000000000335 .LASF0
     /tmp/ccncZtRA.s:3252   .debug_str:000000000000038d .LASF1
     /tmp/ccncZtRA.s:3224   .debug_str:00000000000002d3 .LASF2
     /tmp/ccncZtRA.s:3210   .debug_str:0000000000000286 .LASF4
     /tmp/ccncZtRA.s:3304   .debug_str:00000000000004e1 .LASF3
     /tmp/ccncZtRA.s:3136   .debug_str:00000000000000ad .LASF5
     /tmp/ccncZtRA.s:3172   .debug_str:000000000000018b .LASF6
     /tmp/ccncZtRA.s:3258   .debug_str:00000000000003b9 .LASF7
     /tmp/ccncZtRA.s:3236   .debug_str:0000000000000322 .LASF8
     /tmp/ccncZtRA.s:3330   .debug_str:0000000000000647 .LASF9
     /tmp/ccncZtRA.s:3200   .debug_str:0000000000000231 .LASF10
     /tmp/ccncZtRA.s:3274   .debug_str:0000000000000416 .LASF11
     /tmp/ccncZtRA.s:3320   .debug_str:00000000000005ee .LASF12
     /tmp/ccncZtRA.s:3138   .debug_str:00000000000000b4 .LASF13
     /tmp/ccncZtRA.s:3112   .debug_str:0000000000000013 .LASF14
     /tmp/ccncZtRA.s:3152   .debug_str:0000000000000123 .LASF15
     /tmp/ccncZtRA.s:3294   .debug_str:00000000000004a8 .LASF16
     /tmp/ccncZtRA.s:3166   .debug_str:0000000000000160 .LASF17
     /tmp/ccncZtRA.s:3108   .debug_str:0000000000000000 .LASF18
     /tmp/ccncZtRA.s:3356   .debug_str:0000000000000707 .LASF28
     /tmp/ccncZtRA.s:3212   .debug_str:000000000000028d .LASF19
     /tmp/ccncZtRA.s:3242   .debug_str:000000000000034b .LASF20
GAS LISTING /tmp/ccncZtRA.s 			page 21


     /tmp/ccncZtRA.s:3194   .debug_str:0000000000000205 .LASF21
     /tmp/ccncZtRA.s:3302   .debug_str:00000000000004d9 .LASF22
     /tmp/ccncZtRA.s:3354   .debug_str:00000000000006fb .LASF23
     /tmp/ccncZtRA.s:3124   .debug_str:0000000000000064 .LASF24
     /tmp/ccncZtRA.s:3256   .debug_str:00000000000003b2 .LASF25
     /tmp/ccncZtRA.s:3342   .debug_str:000000000000069e .LASF26
     /tmp/ccncZtRA.s:3182   .debug_str:00000000000001c2 .LASF27
     /tmp/ccncZtRA.s:3180   .debug_str:00000000000001bc .LASF29
     /tmp/ccncZtRA.s:3216   .debug_str:000000000000029f .LASF30
     /tmp/ccncZtRA.s:3144   .debug_str:00000000000000ed .LASF39
     /tmp/ccncZtRA.s:3286   .debug_str:000000000000046a .LASF31
     /tmp/ccncZtRA.s:3266   .debug_str:00000000000003f3 .LASF32
     /tmp/ccncZtRA.s:3272   .debug_str:0000000000000410 .LASF33
     /tmp/ccncZtRA.s:3298   .debug_str:00000000000004c9 .LASF34
     /tmp/ccncZtRA.s:3170   .debug_str:0000000000000184 .LASF35
     /tmp/ccncZtRA.s:3122   .debug_str:000000000000005b .LASF36
     /tmp/ccncZtRA.s:3184   .debug_str:00000000000001c8 .LASF37
     /tmp/ccncZtRA.s:3270   .debug_str:0000000000000407 .LASF38
     /tmp/ccncZtRA.s:3324   .debug_str:000000000000060f .LASF40
     /tmp/ccncZtRA.s:3118   .debug_str:0000000000000043 .LASF41
     /tmp/ccncZtRA.s:3220   .debug_str:00000000000002bb .LASF42
     /tmp/ccncZtRA.s:3260   .debug_str:00000000000003cc .LASF43
     /tmp/ccncZtRA.s:3110   .debug_str:0000000000000009 .LASF51
     /tmp/ccncZtRA.s:3228   .debug_str:00000000000002e9 .LASF53
     /tmp/ccncZtRA.s:3322   .debug_str:00000000000005fd .LASF55
     /tmp/ccncZtRA.s:3292   .debug_str:000000000000049d .LASF57
     /tmp/ccncZtRA.s:3148   .debug_str:00000000000000ff .LASF59
     /tmp/ccncZtRA.s:3186   .debug_str:00000000000001d0 .LASF44
     /tmp/ccncZtRA.s:3288   .debug_str:0000000000000471 .LASF46
     /tmp/ccncZtRA.s:3164   .debug_str:0000000000000159 .LASF45
     /tmp/ccncZtRA.s:3290   .debug_str:0000000000000486 .LASF47
     /tmp/ccncZtRA.s:3350   .debug_str:00000000000006e4 .LASF48
     /tmp/ccncZtRA.s:3162   .debug_str:0000000000000151 .LASF49
     /tmp/ccncZtRA.s:3284   .debug_str:0000000000000460 .LASF50
     /tmp/ccncZtRA.s:3332   .debug_str:0000000000000657 .LASF117
     /tmp/ccncZtRA.s:3326   .debug_str:000000000000061a .LASF52
     /tmp/ccncZtRA.s:3254   .debug_str:00000000000003a0 .LASF118
     /tmp/ccncZtRA.s:3222   .debug_str:00000000000002c6 .LASF54
     /tmp/ccncZtRA.s:3278   .debug_str:000000000000042f .LASF56
     /tmp/ccncZtRA.s:3130   .debug_str:0000000000000081 .LASF58
     /tmp/ccncZtRA.s:3246   .debug_str:000000000000036a .LASF60
     /tmp/ccncZtRA.s:3250   .debug_str:0000000000000387 .LASF61
     /tmp/ccncZtRA.s:3196   .debug_str:000000000000020f .LASF62
     /tmp/ccncZtRA.s:3308   .debug_str:00000000000004f8 .LASF63
     /tmp/ccncZtRA.s:3206   .debug_str:000000000000025d .LASF64
     /tmp/ccncZtRA.s:3240   .debug_str:0000000000000342 .LASF119
     /tmp/ccncZtRA.s:3192   .debug_str:00000000000001ef .LASF120
     /tmp/ccncZtRA.s:3314   .debug_str:0000000000000515 .LASF65
     /tmp/ccncZtRA.s:3202   .debug_str:000000000000023f .LASF66
     /tmp/ccncZtRA.s:3198   .debug_str:0000000000000222 .LASF67
     /tmp/ccncZtRA.s:3188   .debug_str:00000000000001d5 .LASF121
     /tmp/ccncZtRA.s:3268   .debug_str:00000000000003fb .LASF122
     /tmp/ccncZtRA.s:3230   .debug_str:00000000000002f9 .LASF123
     /tmp/ccncZtRA.s:3146   .debug_str:00000000000000fa .LASF68
     /tmp/ccncZtRA.s:473    .text:00000000000001fc .LFB31
     /tmp/ccncZtRA.s:560    .text:00000000000002a8 .LFE31
     /tmp/ccncZtRA.s:3312   .debug_str:000000000000050d .LASF69
GAS LISTING /tmp/ccncZtRA.s 			page 22


     /tmp/ccncZtRA.s:2794   .debug_loc:0000000000000000 .LLST16
     /tmp/ccncZtRA.s:513    .text:0000000000000258 .LBB35
     /tmp/ccncZtRA.s:527    .text:0000000000000274 .LBE35
     /tmp/ccncZtRA.s:2807   .debug_loc:0000000000000038 .LLST17
     /tmp/ccncZtRA.s:2815   .debug_loc:000000000000005c .LLST18
     /tmp/ccncZtRA.s:2824   .debug_loc:0000000000000088 .LLST19
     /tmp/ccncZtRA.s:529    .text:0000000000000274 .LBB37
     /tmp/ccncZtRA.s:540    .text:0000000000000284 .LBE37
     /tmp/ccncZtRA.s:538    .text:0000000000000284 .LVL52
     /tmp/ccncZtRA.s:487    .text:0000000000000214 .LVL44
     /tmp/ccncZtRA.s:495    .text:0000000000000234 .LVL45
     /tmp/ccncZtRA.s:499    .text:000000000000023c .LVL46
     /tmp/ccncZtRA.s:503    .text:0000000000000244 .LVL47
     /tmp/ccncZtRA.s:507    .text:000000000000024c .LVL48
     /tmp/ccncZtRA.s:512    .text:0000000000000258 .LVL49
     /tmp/ccncZtRA.s:544    .text:000000000000028c .LVL53
     /tmp/ccncZtRA.s:3156   .debug_str:0000000000000135 .LASF70
     /tmp/ccncZtRA.s:3204   .debug_str:0000000000000252 .LASF71
     /tmp/ccncZtRA.s:348    .text:0000000000000134 .LFB30
     /tmp/ccncZtRA.s:467    .text:00000000000001fc .LFE30
     /tmp/ccncZtRA.s:2831   .debug_loc:00000000000000ab .LLST11
     /tmp/ccncZtRA.s:369    .text:0000000000000154 .LBB21
     /tmp/ccncZtRA.s:442    .text:00000000000001d4 .LBE21
     /tmp/ccncZtRA.s:2845   .debug_loc:00000000000000e4 .LLST12
     /tmp/ccncZtRA.s:2857   .debug_loc:000000000000011b .LLST13
     /tmp/ccncZtRA.s:2869   .debug_loc:0000000000000152 .LLST14
     /tmp/ccncZtRA.s:432    .text:00000000000001cc .LVL40
     /tmp/ccncZtRA.s:444    .text:00000000000001d4 .LBB28
     /tmp/ccncZtRA.s:453    .text:00000000000001e8 .LBE28
     /tmp/ccncZtRA.s:2876   .debug_loc:0000000000000175 .LLST15
     /tmp/ccncZtRA.s:451    .text:00000000000001e8 .LVL42
     /tmp/ccncZtRA.s:367    .text:0000000000000154 .LVL35
     /tmp/ccncZtRA.s:3154   .debug_str:000000000000012f .LASF72
     /tmp/ccncZtRA.s:3264   .debug_str:00000000000003e8 .LASF73
     /tmp/ccncZtRA.s:249    .text:00000000000000a4 .LFB29
     /tmp/ccncZtRA.s:342    .text:0000000000000134 .LFE29
     /tmp/ccncZtRA.s:2884   .debug_loc:00000000000001a0 .LLST7
     /tmp/ccncZtRA.s:2898   .debug_loc:00000000000001d9 .LLST8
     /tmp/ccncZtRA.s:2921   .debug_loc:0000000000000239 .LLST10
     /tmp/ccncZtRA.s:302    .text:00000000000000f0 .LVL27
     /tmp/ccncZtRA.s:307    .text:00000000000000f8 .LVL28
     /tmp/ccncZtRA.s:319    .text:0000000000000110 .LVL30
     /tmp/ccncZtRA.s:268    .text:00000000000000bc .LBB17
     /tmp/ccncZtRA.s:278    .text:00000000000000d0 .LBE17
     /tmp/ccncZtRA.s:2933   .debug_loc:0000000000000270 .LLST9
     /tmp/ccncZtRA.s:276    .text:00000000000000d0 .LVL23
     /tmp/ccncZtRA.s:3158   .debug_str:000000000000013b .LASF74
     /tmp/ccncZtRA.s:3174   .debug_str:0000000000000192 .LASF75
     /tmp/ccncZtRA.s:181    .text:0000000000000044 .LFB28
     /tmp/ccncZtRA.s:243    .text:00000000000000a4 .LFE28
     /tmp/ccncZtRA.s:2941   .debug_loc:000000000000029b .LLST4
     /tmp/ccncZtRA.s:3226   .debug_str:00000000000002e1 .LASF76
     /tmp/ccncZtRA.s:2959   .debug_loc:00000000000002e7 .LLST5
     /tmp/ccncZtRA.s:2975   .debug_loc:0000000000000331 .LLST6
     /tmp/ccncZtRA.s:213    .text:0000000000000078 .LVL14
     /tmp/ccncZtRA.s:218    .text:0000000000000084 .LVL15
     /tmp/ccncZtRA.s:3338   .debug_str:0000000000000688 .LASF77
GAS LISTING /tmp/ccncZtRA.s 			page 23


     /tmp/ccncZtRA.s:3176   .debug_str:000000000000019d .LASF78
     /tmp/ccncZtRA.s:102    .text:0000000000000000 .LFB27
     /tmp/ccncZtRA.s:143    .text:0000000000000044 .LFE27
     /tmp/ccncZtRA.s:2993   .debug_loc:000000000000037d .LLST2
     /tmp/ccncZtRA.s:125    .text:0000000000000024 .LVL7
     /tmp/ccncZtRA.s:3282   .debug_str:000000000000045b .LASF79
     /tmp/ccncZtRA.s:64     .text._ZN6Thread11threadEntryEPv:0000000000000000 .LFB15
     /tmp/ccncZtRA.s:95     .text._ZN6Thread11threadEntryEPv:000000000000002c .LFE15
     /tmp/ccncZtRA.s:3011   .debug_loc:00000000000003c9 .LLST0
     /tmp/ccncZtRA.s:3232   .debug_str:0000000000000314 .LASF80
     /tmp/ccncZtRA.s:3025   .debug_loc:0000000000000402 .LLST1
     /tmp/ccncZtRA.s:84     .text._ZN6Thread11threadEntryEPv:000000000000001c .LVL4
     /tmp/ccncZtRA.s:39     .text._ZN6Thread3runEv:0000000000000000 .LFB14
     /tmp/ccncZtRA.s:57     .text._ZN6Thread3runEv:0000000000000018 .LFE14
     /tmp/ccncZtRA.s:3276   .debug_str:0000000000000425 .LASF81
     /tmp/ccncZtRA.s:3120   .debug_str:000000000000004c .LASF82
     /tmp/ccncZtRA.s:150    .text._ZN6ThreadD0Ev:0000000000000000 .LFB6
     /tmp/ccncZtRA.s:174    .text._ZN6ThreadD0Ev:0000000000000028 .LFE6
     /tmp/ccncZtRA.s:3039   .debug_loc:000000000000043b .LLST3
     /tmp/ccncZtRA.s:164    .text._ZN6ThreadD0Ev:0000000000000018 .LVL10
     /tmp/ccncZtRA.s:3316   .debug_str:000000000000051b .LASF83
     /tmp/ccncZtRA.s:11     .text._ZN6ThreadD2Ev:0000000000000000 .LFB4
     /tmp/ccncZtRA.s:30     .text._ZN6ThreadD2Ev:0000000000000018 .LFE4
     /tmp/ccncZtRA.s:3208   .debug_str:000000000000026f .LASF124
     /tmp/ccncZtRA.s:3328   .debug_str:0000000000000621 .LASF84
     /tmp/ccncZtRA.s:3168   .debug_str:0000000000000176 .LASF86
     /tmp/ccncZtRA.s:3344   .debug_str:00000000000006a7 .LASF85
     /tmp/ccncZtRA.s:3134   .debug_str:000000000000009c .LASF87
     /tmp/ccncZtRA.s:3336   .debug_str:0000000000000672 .LASF88
     /tmp/ccncZtRA.s:3352   .debug_str:00000000000006ed .LASF89
     /tmp/ccncZtRA.s:3116   .debug_str:000000000000002a .LASF90
     /tmp/ccncZtRA.s:3244   .debug_str:0000000000000356 .LASF91
     /tmp/ccncZtRA.s:3142   .debug_str:00000000000000da .LASF92
     /tmp/ccncZtRA.s:3248   .debug_str:0000000000000379 .LASF93
     /tmp/ccncZtRA.s:3348   .debug_str:00000000000006cd .LASF94
     /tmp/ccncZtRA.s:3150   .debug_str:0000000000000111 .LASF95
     /tmp/ccncZtRA.s:3300   .debug_str:00000000000004d3 .LASF96
     /tmp/ccncZtRA.s:3340   .debug_str:0000000000000691 .LASF97
     /tmp/ccncZtRA.s:3214   .debug_str:0000000000000292 .LASF98
     /tmp/ccncZtRA.s:3128   .debug_str:0000000000000078 .LASF99
     /tmp/ccncZtRA.s:3190   .debug_str:00000000000001e6 .LASF100
     /tmp/ccncZtRA.s:3306   .debug_str:00000000000004f3 .LASF101
     /tmp/ccncZtRA.s:3140   .debug_str:00000000000000c4 .LASF102
     /tmp/ccncZtRA.s:3334   .debug_str:0000000000000667 .LASF103
     /tmp/ccncZtRA.s:3346   .debug_str:00000000000006bd .LASF104
     /tmp/ccncZtRA.s:3296   .debug_str:00000000000004be .LASF105
     /tmp/ccncZtRA.s:3178   .debug_str:00000000000001ab .LASF106
     /tmp/ccncZtRA.s:3126   .debug_str:000000000000006c .LASF107
     /tmp/ccncZtRA.s:3280   .debug_str:0000000000000446 .LASF108
     /tmp/ccncZtRA.s:3160   .debug_str:0000000000000141 .LASF109
     /tmp/ccncZtRA.s:3132   .debug_str:0000000000000089 .LASF110
     /tmp/ccncZtRA.s:3234   .debug_str:0000000000000319 .LASF111
     /tmp/ccncZtRA.s:3114   .debug_str:0000000000000023 .LASF112
     /tmp/ccncZtRA.s:3310   .debug_str:00000000000004fd .LASF113
     /tmp/ccncZtRA.s:525    .text:0000000000000274 .LVL50
     /tmp/ccncZtRA.s:536    .text:000000000000027c .LVL51
     /tmp/ccncZtRA.s:351    .text:0000000000000134 .LVL33
GAS LISTING /tmp/ccncZtRA.s 			page 24


     /tmp/ccncZtRA.s:365    .text:000000000000014c .LVL34
     /tmp/ccncZtRA.s:373    .text:000000000000015c .LVL36
     /tmp/ccncZtRA.s:462    .text:00000000000001f4 .LVL43
     /tmp/ccncZtRA.s:420    .text:00000000000001ac .LVL39
     /tmp/ccncZtRA.s:438    .text:00000000000001d4 .LVL41
     /tmp/ccncZtRA.s:404    .text:0000000000000194 .LVL38
     /tmp/ccncZtRA.s:252    .text:00000000000000a4 .LVL20
     /tmp/ccncZtRA.s:274    .text:00000000000000c8 .LVL22
     /tmp/ccncZtRA.s:266    .text:00000000000000bc .LVL21
     /tmp/ccncZtRA.s:284    .text:00000000000000d8 .LVL24
     /tmp/ccncZtRA.s:290    .text:00000000000000e0 .LVL25
     /tmp/ccncZtRA.s:296    .text:00000000000000e8 .LVL26
     /tmp/ccncZtRA.s:337    .text:000000000000012c .LVL32
     /tmp/ccncZtRA.s:334    .text:0000000000000128 .LVL31
     /tmp/ccncZtRA.s:184    .text:0000000000000044 .LVL11
     /tmp/ccncZtRA.s:203    .text:0000000000000064 .LVL13
     /tmp/ccncZtRA.s:238    .text:000000000000009c .LVL19
     /tmp/ccncZtRA.s:199    .text:0000000000000060 .LVL12
     /tmp/ccncZtRA.s:222    .text:0000000000000088 .LVL16
     /tmp/ccncZtRA.s:225    .text:000000000000008c .LVL17
     /tmp/ccncZtRA.s:235    .text:0000000000000098 .LVL18
     /tmp/ccncZtRA.s:106    .text:0000000000000000 .LVL5
     /tmp/ccncZtRA.s:120    .text:000000000000001c .LVL6
     /tmp/ccncZtRA.s:139    .text:0000000000000040 .LVL8
     /tmp/ccncZtRA.s:67     .text._ZN6Thread11threadEntryEPv:0000000000000000 .LVL2
     /tmp/ccncZtRA.s:77     .text._ZN6Thread11threadEntryEPv:0000000000000010 .LVL3
     /tmp/ccncZtRA.s:153    .text._ZN6ThreadD0Ev:0000000000000000 .LVL9
     /tmp/ccncZtRA.s:611    .debug_info:0000000000000000 .Ldebug_info0
     /tmp/ccncZtRA.s:5      .text:0000000000000000 .Ltext0
     /tmp/ccncZtRA.s:602    .text:00000000000002a8 .Letext0
     /tmp/ccncZtRA.s:286    .text:00000000000000d8 .LBB19
     /tmp/ccncZtRA.s:292    .text:00000000000000e0 .LBE19
     /tmp/ccncZtRA.s:298    .text:00000000000000e8 .LBB20
     /tmp/ccncZtRA.s:325    .text:000000000000011c .LBE20
     /tmp/ccncZtRA.s:376    .text:000000000000015c .LBB23
     /tmp/ccncZtRA.s:416    .text:00000000000001a8 .LBE23
     /tmp/ccncZtRA.s:434    .text:00000000000001cc .LBB26
     /tmp/ccncZtRA.s:440    .text:00000000000001d4 .LBE26
     /tmp/ccncZtRA.s:377    .text:000000000000015c .LBB24
     /tmp/ccncZtRA.s:401    .text:0000000000000190 .LBE24
     /tmp/ccncZtRA.s:410    .text:00000000000001a0 .LBB25
     /tmp/ccncZtRA.s:415    .text:00000000000001a8 .LBE25
                           .group:0000000000000000 _ZN6ThreadD5Ev

UNDEFINED SYMBOLS
_Z15thread_dispatchv
_ZdlPv
_Z4putcc
_Z10time_sleepm
_Z8sem_waitP5sem_s
_Z11thread_exitv
_Z10sem_signalP5sem_s
_Z16kern_thread_initv
HEAP_END_ADDR
HEAP_START_ADDR
_Z13kern_mem_initPvS_
_Z19kern_interrupt_initv
GAS LISTING /tmp/ccncZtRA.s 			page 25


_Z13kern_sem_initv
_Z17kern_console_initv
_Znwm
_Z13thread_createPP8thread_sPFvPvES2_
_Z8userMainv
