GAS LISTING /tmp/ccmw5GNo.s 			page 1


   1              		.file	"main.cpp"
   2              		.option pic
   3              		.option norelax
   4              		.text
   5              	.Ltext0:
   6              		.section	.text._ZN6ThreadD2Ev,"axG",@progbits,_ZN6ThreadD5Ev,comdat
   7              		.align	2
   8              		.weak	_ZN6ThreadD2Ev
  10              	_ZN6ThreadD2Ev:
  11              	.LFB4:
  12              		.file 1 "src/../h/syscall_cpp.hpp"
   1:src/../h/syscall_cpp.hpp **** //
   2:src/../h/syscall_cpp.hpp **** // Created by os on 6/5/23.
   3:src/../h/syscall_cpp.hpp **** //
   4:src/../h/syscall_cpp.hpp **** 
   5:src/../h/syscall_cpp.hpp **** #ifndef OS1_SYSCALL_CPP_HPP
   6:src/../h/syscall_cpp.hpp **** #define OS1_SYSCALL_CPP_HPP
   7:src/../h/syscall_cpp.hpp **** #ifndef _syscall_cpp
   8:src/../h/syscall_cpp.hpp **** #define _syscall_cpp
   9:src/../h/syscall_cpp.hpp **** 
  10:src/../h/syscall_cpp.hpp **** #include "syscall_c.h"
  11:src/../h/syscall_cpp.hpp **** #include "kern_semaphore.hpp"
  12:src/../h/syscall_cpp.hpp **** #include "kern_threads.hpp"
  13:src/../h/syscall_cpp.hpp **** #include "kern_memory.hpp"
  14:src/../h/syscall_cpp.hpp **** #include "syscall_c.h"
  15:src/../h/syscall_cpp.hpp **** #include "../lib/console.h"
  16:src/../h/syscall_cpp.hpp **** 
  17:src/../h/syscall_cpp.hpp **** 
  18:src/../h/syscall_cpp.hpp **** void* operator new(size_t size);
  19:src/../h/syscall_cpp.hpp **** void operator delete(void* ptr);
  20:src/../h/syscall_cpp.hpp **** 
  21:src/../h/syscall_cpp.hpp **** class Thread {
  22:src/../h/syscall_cpp.hpp ****         public:
  23:src/../h/syscall_cpp.hpp ****         Thread (void (*body)(void*), void* arg)
  24:src/../h/syscall_cpp.hpp ****         {
  25:src/../h/syscall_cpp.hpp ****             this->body=body;
  26:src/../h/syscall_cpp.hpp ****             this->arg=arg;
  27:src/../h/syscall_cpp.hpp ****         }
  28:src/../h/syscall_cpp.hpp ****         virtual ~Thread (){
  13              		.loc 1 28 17
  14              		.cfi_startproc
  15              	.LVL0:
  16 0000 130101FF 		addi	sp,sp,-16
  17              		.cfi_def_cfa_offset 16
  18 0004 23348100 		sd	s0,8(sp)
  19              		.cfi_offset 8, -8
  20 0008 13040101 		addi	s0,sp,16
  21              		.cfi_def_cfa 8, 0
  29:src/../h/syscall_cpp.hpp ****         }
  22              		.loc 1 29 9 is_stmt 0
  23 000c 03348100 		ld	s0,8(sp)
  24              		.cfi_restore 8
  25              		.cfi_def_cfa 2, 16
  26 0010 13010101 		addi	sp,sp,16
  27              		.cfi_def_cfa_offset 0
  28 0014 67800000 		jr	ra
  29              		.cfi_endproc
GAS LISTING /tmp/ccmw5GNo.s 			page 2


  30              	.LFE4:
  32              		.weak	_ZN6ThreadD1Ev
  33              		.set	_ZN6ThreadD1Ev,_ZN6ThreadD2Ev
  34              		.section	.text._ZN6Thread3runEv,"axG",@progbits,_ZN6Thread3runEv,comdat
  35              		.align	2
  36              		.weak	_ZN6Thread3runEv
  38              	_ZN6Thread3runEv:
  39              	.LFB14:
  30:src/../h/syscall_cpp.hpp ****         int start (){
  31:src/../h/syscall_cpp.hpp ****             if(body== nullptr) return thread_create(&myHandle,&threadEntry, this);
  32:src/../h/syscall_cpp.hpp ****             else return thread_create(&myHandle,body,arg);
  33:src/../h/syscall_cpp.hpp ****         }
  34:src/../h/syscall_cpp.hpp ****         void join(){
  35:src/../h/syscall_cpp.hpp ****             thread_join(myHandle);
  36:src/../h/syscall_cpp.hpp ****         }
  37:src/../h/syscall_cpp.hpp ****         static void dispatch (){
  38:src/../h/syscall_cpp.hpp ****             thread_dispatch();
  39:src/../h/syscall_cpp.hpp ****         }
  40:src/../h/syscall_cpp.hpp ****         static int sleep (uint64 time){
  41:src/../h/syscall_cpp.hpp ****             return time_sleep(time);
  42:src/../h/syscall_cpp.hpp ****         }
  43:src/../h/syscall_cpp.hpp ****         protected:
  44:src/../h/syscall_cpp.hpp ****         Thread (){
  45:src/../h/syscall_cpp.hpp ****             body= nullptr;
  46:src/../h/syscall_cpp.hpp ****             arg= nullptr;
  47:src/../h/syscall_cpp.hpp ****         }
  48:src/../h/syscall_cpp.hpp ****         virtual void run () {}
  40              		.loc 1 48 22 is_stmt 1
  41              		.cfi_startproc
  42              	.LVL1:
  43 0000 130101FF 		addi	sp,sp,-16
  44              		.cfi_def_cfa_offset 16
  45 0004 23348100 		sd	s0,8(sp)
  46              		.cfi_offset 8, -8
  47 0008 13040101 		addi	s0,sp,16
  48              		.cfi_def_cfa 8, 0
  49              		.loc 1 48 30 is_stmt 0
  50 000c 03348100 		ld	s0,8(sp)
  51              		.cfi_restore 8
  52              		.cfi_def_cfa 2, 16
  53 0010 13010101 		addi	sp,sp,16
  54              		.cfi_def_cfa_offset 0
  55 0014 67800000 		jr	ra
  56              		.cfi_endproc
  57              	.LFE14:
  59              		.section	.text._ZN6Thread11threadEntryEPv,"axG",@progbits,_ZN6Thread11threadEntryEPv,comdat
  60              		.align	2
  61              		.weak	_ZN6Thread11threadEntryEPv
  63              	_ZN6Thread11threadEntryEPv:
  64              	.LFB15:
  49:src/../h/syscall_cpp.hpp **** 
  50:src/../h/syscall_cpp.hpp ****         static void threadEntry(void* arg){
  65              		.loc 1 50 21 is_stmt 1
  66              		.cfi_startproc
  67              	.LVL2:
  68 0000 130101FF 		addi	sp,sp,-16
  69              		.cfi_def_cfa_offset 16
GAS LISTING /tmp/ccmw5GNo.s 			page 3


  70 0004 23341100 		sd	ra,8(sp)
  71 0008 23308100 		sd	s0,0(sp)
  72              		.cfi_offset 1, -8
  73              		.cfi_offset 8, -16
  74 000c 13040101 		addi	s0,sp,16
  75              		.cfi_def_cfa 8, 0
  51:src/../h/syscall_cpp.hpp ****             Thread* self = static_cast<Thread*>(arg);
  76              		.loc 1 51 13
  77              	.LVL3:
  52:src/../h/syscall_cpp.hpp ****             self->run();
  78              		.loc 1 52 13
  79              		.loc 1 52 23 is_stmt 0
  80 0010 83370500 		ld	a5,0(a0)
  81 0014 83B70701 		ld	a5,16(a5)
  82              		.loc 1 52 22
  83 0018 E7800700 		jalr	a5
  84              	.LVL4:
  53:src/../h/syscall_cpp.hpp ****         }
  85              		.loc 1 53 9
  86 001c 83308100 		ld	ra,8(sp)
  87              		.cfi_restore 1
  88 0020 03340100 		ld	s0,0(sp)
  89              		.cfi_restore 8
  90              		.cfi_def_cfa 2, 16
  91 0024 13010101 		addi	sp,sp,16
  92              		.cfi_def_cfa_offset 0
  93 0028 67800000 		jr	ra
  94              		.cfi_endproc
  95              	.LFE15:
  97              		.text
  98              		.align	2
  99              		.globl	_Z8bodyIdlePv
 101              	_Z8bodyIdlePv:
 102              	.LFB56:
 103              		.file 2 "src/main.cpp"
   1:src/main.cpp  **** //
   2:src/main.cpp  **** // Created by os on 5/18/23.
   3:src/main.cpp  **** //
   4:src/main.cpp  **** #include "../lib/console.h"
   5:src/main.cpp  **** #include "../h/syscall_cpp.hpp"
   6:src/main.cpp  **** #include "../h/syscall_c.h"
   7:src/main.cpp  **** #include "../lib/hw.h"
   8:src/main.cpp  **** 
   9:src/main.cpp  **** #include "../h/kern_threads.hpp"
  10:src/main.cpp  **** #include "../h/kern_memory.hpp"
  11:src/main.cpp  **** #include "../h/kern_interrupts.hpp"
  12:src/main.cpp  **** #include "../h/kern_semaphore.hpp"
  13:src/main.cpp  **** #include "../h/kern_console.hpp"
  14:src/main.cpp  **** #include "../h/printing.hpp"
  15:src/main.cpp  **** #include "../h/kern_slab.hpp"
  16:src/main.cpp  **** 
  17:src/main.cpp  **** Semaphore* semTest;
  18:src/main.cpp  **** 
  19:src/main.cpp  **** int idleAlive=1;
  20:src/main.cpp  **** void bodyIdle(void* arg){
 104              		.loc 2 20 25 is_stmt 1
 105              		.cfi_startproc
GAS LISTING /tmp/ccmw5GNo.s 			page 4


 106              	.LVL5:
  21:src/main.cpp  ****     while(idleAlive){
 107              		.loc 2 21 5
 108              		.loc 2 21 11
 109 0000 97070000 		lw	a5,.LANCHOR0
 109      83A70700 
 110 0008 638C0702 		beqz	a5,.L15
  20:src/main.cpp  ****     while(idleAlive){
 111              		.loc 2 20 25 is_stmt 0
 112 000c 130101FF 		addi	sp,sp,-16
 113              		.cfi_def_cfa_offset 16
 114 0010 23341100 		sd	ra,8(sp)
 115 0014 23308100 		sd	s0,0(sp)
 116              		.cfi_offset 1, -8
 117              		.cfi_offset 8, -16
 118 0018 13040101 		addi	s0,sp,16
 119              		.cfi_def_cfa 8, 0
 120              	.LVL6:
 121              	.L12:
  22:src/main.cpp  ****         thread_dispatch();
 122              		.loc 2 22 9 is_stmt 1
 123              		.loc 2 22 24 is_stmt 0
 124 001c 97000000 		call	_Z15thread_dispatchv@plt
 124      E7800000 
 125              	.LVL7:
  21:src/main.cpp  ****     while(idleAlive){
 126              		.loc 2 21 5 is_stmt 1
  21:src/main.cpp  ****     while(idleAlive){
 127              		.loc 2 21 11
 128 0024 97070000 		lw	a5,.LANCHOR0
 128      83A70700 
 129 002c E39807FE 		bnez	a5,.L12
  23:src/main.cpp  ****     };
  24:src/main.cpp  **** }
 130              		.loc 2 24 1 is_stmt 0
 131 0030 83308100 		ld	ra,8(sp)
 132              		.cfi_restore 1
 133 0034 03340100 		ld	s0,0(sp)
 134              		.cfi_restore 8
 135              		.cfi_def_cfa 2, 16
 136 0038 13010101 		addi	sp,sp,16
 137              		.cfi_def_cfa_offset 0
 138 003c 67800000 		jr	ra
 139              	.LVL8:
 140              	.L15:
 141 0040 67800000 		ret
 142              		.cfi_endproc
 143              	.LFE56:
 145              		.section	.text._ZN6ThreadD0Ev,"axG",@progbits,_ZN6ThreadD5Ev,comdat
 146              		.align	2
 147              		.weak	_ZN6ThreadD0Ev
 149              	_ZN6ThreadD0Ev:
 150              	.LFB6:
  28:src/../h/syscall_cpp.hpp ****         }
 151              		.loc 1 28 17 is_stmt 1
 152              		.cfi_startproc
 153              	.LVL9:
GAS LISTING /tmp/ccmw5GNo.s 			page 5


 154 0000 130101FF 		addi	sp,sp,-16
 155              		.cfi_def_cfa_offset 16
 156 0004 23341100 		sd	ra,8(sp)
 157 0008 23308100 		sd	s0,0(sp)
 158              		.cfi_offset 1, -8
 159              		.cfi_offset 8, -16
 160 000c 13040101 		addi	s0,sp,16
 161              		.cfi_def_cfa 8, 0
  29:src/../h/syscall_cpp.hpp ****         int start (){
 162              		.loc 1 29 9 is_stmt 0
 163 0010 97000000 		call	_ZdlPv@plt
 163      E7800000 
 164              	.LVL10:
 165 0018 83308100 		ld	ra,8(sp)
 166              		.cfi_restore 1
 167 001c 03340100 		ld	s0,0(sp)
 168              		.cfi_restore 8
 169              		.cfi_def_cfa 2, 16
 170 0020 13010101 		addi	sp,sp,16
 171              		.cfi_def_cfa_offset 0
 172 0024 67800000 		jr	ra
 173              		.cfi_endproc
 174              	.LFE6:
 176              		.text
 177              		.align	2
 178              		.globl	_Z5bodyCPv
 180              	_Z5bodyCPv:
 181              	.LFB57:
  25:src/main.cpp  **** 
  26:src/main.cpp  **** void bodyC(void* arg)
  27:src/main.cpp  **** {
 182              		.loc 2 27 1 is_stmt 1
 183              		.cfi_startproc
 184              	.LVL11:
 185 0044 130101FE 		addi	sp,sp,-32
 186              		.cfi_def_cfa_offset 32
 187 0048 233C1100 		sd	ra,24(sp)
 188 004c 23388100 		sd	s0,16(sp)
 189 0050 23349100 		sd	s1,8(sp)
 190 0054 23302101 		sd	s2,0(sp)
 191              		.cfi_offset 1, -8
 192              		.cfi_offset 8, -16
 193              		.cfi_offset 9, -24
 194              		.cfi_offset 18, -32
 195 0058 13040102 		addi	s0,sp,32
 196              		.cfi_def_cfa 8, 0
 197 005c 13090500 		mv	s2,a0
  28:src/main.cpp  ****     int counter=0;
 198              		.loc 2 28 5
 199              	.LVL12:
  29:src/main.cpp  ****     char*c = (char*)arg;
 200              		.loc 2 29 5
  28:src/main.cpp  ****     int counter=0;
 201              		.loc 2 28 9 is_stmt 0
 202 0060 93040000 		li	s1,0
 203              	.LVL13:
 204              	.L20:
GAS LISTING /tmp/ccmw5GNo.s 			page 6


  30:src/main.cpp  ****     while(counter<10){
 205              		.loc 2 30 5 is_stmt 1
 206              		.loc 2 30 18
 207 0064 93079000 		li	a5,9
 208 0068 63C29702 		bgt	s1,a5,.L18
  31:src/main.cpp  ****         //if(++counter>5) delete semTest;
  32:src/main.cpp  ****         putc(*c);
 209              		.loc 2 32 9
 210              		.loc 2 32 13 is_stmt 0
 211 006c 03450900 		lbu	a0,0(s2)
 212 0070 97000000 		call	_Z4putcc@plt
 212      E7800000 
 213              	.LVL14:
  33:src/main.cpp  ****         time_sleep(1);
 214              		.loc 2 33 9 is_stmt 1
 215              		.loc 2 33 19 is_stmt 0
 216 0078 13051000 		li	a0,1
 217 007c 97000000 		call	_Z10time_sleepm@plt
 217      E7800000 
 218              	.LVL15:
  34:src/main.cpp  ****         counter++;
 219              		.loc 2 34 9 is_stmt 1
 220              		.loc 2 34 16 is_stmt 0
 221 0084 9B841400 		addiw	s1,s1,1
 222              	.LVL16:
  30:src/main.cpp  ****         //if(++counter>5) delete semTest;
 223              		.loc 2 30 5
 224 0088 6FF0DFFD 		j	.L20
 225              	.LVL17:
 226              	.L18:
  35:src/main.cpp  ****     }
  36:src/main.cpp  ****     counter++;
  37:src/main.cpp  ****     //thread_exit();
  38:src/main.cpp  **** }
 227              		.loc 2 38 1
 228 008c 83308101 		ld	ra,24(sp)
 229              		.cfi_restore 1
 230 0090 03340101 		ld	s0,16(sp)
 231              		.cfi_restore 8
 232              		.cfi_def_cfa 2, 32
 233 0094 83348100 		ld	s1,8(sp)
 234              		.cfi_restore 9
 235              	.LVL18:
 236 0098 03390100 		ld	s2,0(sp)
 237              		.cfi_restore 18
 238              	.LVL19:
 239 009c 13010102 		addi	sp,sp,32
 240              		.cfi_def_cfa_offset 0
 241 00a0 67800000 		jr	ra
 242              		.cfi_endproc
 243              	.LFE57:
 245              		.align	2
 246              		.globl	_Z5bodyAPv
 248              	_Z5bodyAPv:
 249              	.LFB58:
  39:src/main.cpp  **** 
  40:src/main.cpp  **** void bodyA(void* arg)
GAS LISTING /tmp/ccmw5GNo.s 			page 7


  41:src/main.cpp  **** {
 250              		.loc 2 41 1 is_stmt 1
 251              		.cfi_startproc
 252              	.LVL20:
 253 00a4 130101FE 		addi	sp,sp,-32
 254              		.cfi_def_cfa_offset 32
 255 00a8 233C1100 		sd	ra,24(sp)
 256 00ac 23388100 		sd	s0,16(sp)
 257 00b0 23349100 		sd	s1,8(sp)
 258              		.cfi_offset 1, -8
 259              		.cfi_offset 8, -16
 260              		.cfi_offset 9, -24
 261 00b4 13040102 		addi	s0,sp,32
 262              		.cfi_def_cfa 8, 0
  42:src/main.cpp  ****     char c = 'a';
 263              		.loc 2 42 5
 264              	.LVL21:
  43:src/main.cpp  ****     //if(semTest->wait()) c='A';
  44:src/main.cpp  ****     for(int i=0;i<10;i++){
 265              		.loc 2 44 5
 266              	.LBB14:
 267              		.loc 2 44 13 is_stmt 0
 268 00b8 93040000 		li	s1,0
 269 00bc 6F008001 		j	.L25
 270              	.LVL22:
 271              	.L27:
  45:src/main.cpp  ****         putc(c);
  46:src/main.cpp  ****         if(i==5) thread_exit();
 272              		.loc 2 46 18 is_stmt 1 discriminator 1
 273              		.loc 2 46 29 is_stmt 0 discriminator 1
 274 00c0 97000000 		call	_Z11thread_exitv@plt
 274      E7800000 
 275              	.LVL23:
 276              	.L24:
  47:src/main.cpp  ****         thread_dispatch();
 277              		.loc 2 47 9 is_stmt 1 discriminator 2
 278              		.loc 2 47 24 is_stmt 0 discriminator 2
 279 00c8 97000000 		call	_Z15thread_dispatchv@plt
 279      E7800000 
 280              	.LVL24:
  44:src/main.cpp  ****         putc(c);
 281              		.loc 2 44 5 is_stmt 1 discriminator 2
 282 00d0 9B841400 		addiw	s1,s1,1
 283              	.LVL25:
 284              	.L25:
  44:src/main.cpp  ****         putc(c);
 285              		.loc 2 44 18 discriminator 1
 286 00d4 93079000 		li	a5,9
 287 00d8 63CE9700 		bgt	s1,a5,.L22
  45:src/main.cpp  ****         putc(c);
 288              		.loc 2 45 9
  45:src/main.cpp  ****         putc(c);
 289              		.loc 2 45 13 is_stmt 0
 290 00dc 13051006 		li	a0,97
 291 00e0 97000000 		call	_Z4putcc@plt
 291      E7800000 
 292              	.LVL26:
GAS LISTING /tmp/ccmw5GNo.s 			page 8


  46:src/main.cpp  ****         thread_dispatch();
 293              		.loc 2 46 9 is_stmt 1
 294 00e8 93075000 		li	a5,5
 295 00ec E39EF4FC 		bne	s1,a5,.L24
 296 00f0 6FF01FFD 		j	.L27
 297              	.L22:
 298              	.LBE14:
  48:src/main.cpp  ****     }
  49:src/main.cpp  **** }
 299              		.loc 2 49 1 is_stmt 0
 300 00f4 83308101 		ld	ra,24(sp)
 301              		.cfi_restore 1
 302 00f8 03340101 		ld	s0,16(sp)
 303              		.cfi_restore 8
 304              		.cfi_def_cfa 2, 32
 305 00fc 83348100 		ld	s1,8(sp)
 306              		.cfi_restore 9
 307              	.LVL27:
 308 0100 13010102 		addi	sp,sp,32
 309              		.cfi_def_cfa_offset 0
 310 0104 67800000 		jr	ra
 311              		.cfi_endproc
 312              	.LFE58:
 314              		.align	2
 315              		.globl	_Z5bodyBPv
 317              	_Z5bodyBPv:
 318              	.LFB59:
  50:src/main.cpp  **** 
  51:src/main.cpp  **** int g=0;
  52:src/main.cpp  **** 
  53:src/main.cpp  **** char str[15] = "tesa legenda";
  54:src/main.cpp  **** void bodyB(void* arg)
  55:src/main.cpp  **** {
 319              		.loc 2 55 1 is_stmt 1
 320              		.cfi_startproc
 321              	.LVL28:
 322 0108 130101FE 		addi	sp,sp,-32
 323              		.cfi_def_cfa_offset 32
 324 010c 233C1100 		sd	ra,24(sp)
 325 0110 23388100 		sd	s0,16(sp)
 326 0114 23349100 		sd	s1,8(sp)
 327              		.cfi_offset 1, -8
 328              		.cfi_offset 8, -16
 329              		.cfi_offset 9, -24
 330 0118 13040102 		addi	s0,sp,32
 331              		.cfi_def_cfa 8, 0
  56:src/main.cpp  **** 
  57:src/main.cpp  ****     //time_sleep(10);
  58:src/main.cpp  ****     for(int i=0;i<10;i++){
 332              		.loc 2 58 5
 333              	.LVL29:
 334              	.LBB15:
 335              		.loc 2 58 13 is_stmt 0
 336 011c 93040000 		li	s1,0
 337 0120 6F004005 		j	.L35
 338              	.LVL30:
 339              	.L32:
GAS LISTING /tmp/ccmw5GNo.s 			page 9


 340              	.LBB16:
 341              	.LBB17:
 342              	.LBB18:
  59:src/main.cpp  ****         putc(str[i]);
  60:src/main.cpp  ****         for(int k=0;k<10000;k++){
  61:src/main.cpp  ****             for(int m=0;m<1000;m++){
 343              		.loc 2 61 13 is_stmt 1 discriminator 2
 344 0124 1B071700 		addiw	a4,a4,1
 345              	.LVL31:
 346              	.L33:
 347              		.loc 2 61 26 discriminator 1
 348 0128 9307703E 		li	a5,999
 349 012c 63C6E702 		bgt	a4,a5,.L31
  62:src/main.cpp  ****                 if((m*k)%1337==0) g++;
 350              		.loc 2 62 17
 351              		.loc 2 62 22 is_stmt 0
 352 0130 BB07E602 		mulw	a5,a2,a4
 353              		.loc 2 62 25
 354 0134 93069053 		li	a3,1337
 355 0138 BBE7D702 		remw	a5,a5,a3
 356              		.loc 2 62 17
 357 013c E39407FE 		bnez	a5,.L32
 358              		.loc 2 62 35 is_stmt 1 discriminator 1
 359              		.loc 2 62 36 is_stmt 0 discriminator 1
 360 0140 97060000 		lla	a3,.LANCHOR1
 360      93860600 
 361 0148 83A70600 		lw	a5,0(a3)
 362 014c 9B871700 		addiw	a5,a5,1
 363 0150 23A0F600 		sw	a5,0(a3)
 364 0154 6FF01FFD 		j	.L32
 365              	.L31:
 366              	.LBE18:
  60:src/main.cpp  ****             for(int m=0;m<1000;m++){
 367              		.loc 2 60 9 is_stmt 1 discriminator 2
 368 0158 1B061600 		addiw	a2,a2,1
 369              	.LVL32:
 370              	.L34:
  60:src/main.cpp  ****             for(int m=0;m<1000;m++){
 371              		.loc 2 60 22 discriminator 1
 372 015c B7270000 		li	a5,8192
 373 0160 9387F770 		addi	a5,a5,1807
 374 0164 63C6C700 		bgt	a2,a5,.L30
 375              	.LBB19:
  61:src/main.cpp  ****                 if((m*k)%1337==0) g++;
 376              		.loc 2 61 21 is_stmt 0
 377 0168 13070000 		li	a4,0
 378 016c 6FF0DFFB 		j	.L33
 379              	.L30:
 380              	.LBE19:
 381              	.LBE17:
 382              	.LBE16:
  58:src/main.cpp  ****         putc(str[i]);
 383              		.loc 2 58 5 is_stmt 1 discriminator 2
 384 0170 9B841400 		addiw	s1,s1,1
 385              	.LVL33:
 386              	.L35:
  58:src/main.cpp  ****         putc(str[i]);
GAS LISTING /tmp/ccmw5GNo.s 			page 10


 387              		.loc 2 58 18 discriminator 1
 388 0174 93079000 		li	a5,9
 389 0178 63C29702 		bgt	s1,a5,.L29
 390              	.LBB21:
  59:src/main.cpp  ****         for(int k=0;k<10000;k++){
 391              		.loc 2 59 9
  59:src/main.cpp  ****         for(int k=0;k<10000;k++){
 392              		.loc 2 59 13 is_stmt 0
 393 017c 97070000 		lla	a5,.LANCHOR0
 393      93870700 
 394 0184 B3879700 		add	a5,a5,s1
 395 0188 03C58700 		lbu	a0,8(a5)
 396 018c 97000000 		call	_Z4putcc@plt
 396      E7800000 
 397              	.LVL34:
  60:src/main.cpp  ****             for(int m=0;m<1000;m++){
 398              		.loc 2 60 9 is_stmt 1
 399              	.LBB20:
  60:src/main.cpp  ****             for(int m=0;m<1000;m++){
 400              		.loc 2 60 17 is_stmt 0
 401 0194 13060000 		li	a2,0
 402 0198 6FF05FFC 		j	.L34
 403              	.LVL35:
 404              	.L29:
 405              	.LBE20:
 406              	.LBE21:
 407              	.LBE15:
  63:src/main.cpp  ****             }
  64:src/main.cpp  ****         }
  65:src/main.cpp  ****     }
  66:src/main.cpp  ****     semTest->signal();
 408              		.loc 2 66 5 is_stmt 1
 409              	.LBB22:
 410              	.LBB23:
  54:src/../h/syscall_cpp.hpp ****         private:
  55:src/../h/syscall_cpp.hpp ****         thread_t myHandle;
  56:src/../h/syscall_cpp.hpp ****         void (*body)(void*); void* arg;
  57:src/../h/syscall_cpp.hpp **** };
  58:src/../h/syscall_cpp.hpp **** 
  59:src/../h/syscall_cpp.hpp **** class PeriodicThread : public Thread {
  60:src/../h/syscall_cpp.hpp **** public:
  61:src/../h/syscall_cpp.hpp ****     void terminate (){
  62:src/../h/syscall_cpp.hpp ****         isThisPeriodicThreadTereminated=1;
  63:src/../h/syscall_cpp.hpp ****     }
  64:src/../h/syscall_cpp.hpp **** 
  65:src/../h/syscall_cpp.hpp **** protected:
  66:src/../h/syscall_cpp.hpp ****     PeriodicThread (uint64 period) {
  67:src/../h/syscall_cpp.hpp ****         this->period=period;
  68:src/../h/syscall_cpp.hpp ****         this->isThisPeriodicThreadTereminated=0;
  69:src/../h/syscall_cpp.hpp ****     }
  70:src/../h/syscall_cpp.hpp ****     virtual void periodicActivation () {}
  71:src/../h/syscall_cpp.hpp ****     void run() override {
  72:src/../h/syscall_cpp.hpp ****         while (isThisPeriodicThreadTereminated==0){
  73:src/../h/syscall_cpp.hpp ****             periodicActivation();
  74:src/../h/syscall_cpp.hpp ****             sleep(period);
  75:src/../h/syscall_cpp.hpp ****         }
  76:src/../h/syscall_cpp.hpp ****     }
GAS LISTING /tmp/ccmw5GNo.s 			page 11


  77:src/../h/syscall_cpp.hpp **** private:
  78:src/../h/syscall_cpp.hpp ****     int isThisPeriodicThreadTereminated;
  79:src/../h/syscall_cpp.hpp ****     uint64 period;
  80:src/../h/syscall_cpp.hpp **** };
  81:src/../h/syscall_cpp.hpp **** 
  82:src/../h/syscall_cpp.hpp **** 
  83:src/../h/syscall_cpp.hpp **** class Semaphore {
  84:src/../h/syscall_cpp.hpp ****         public:
  85:src/../h/syscall_cpp.hpp ****         Semaphore (unsigned init = 1){
  86:src/../h/syscall_cpp.hpp ****             sem_open(&myHandle,init);
  87:src/../h/syscall_cpp.hpp ****         }
  88:src/../h/syscall_cpp.hpp ****         virtual ~Semaphore (){
  89:src/../h/syscall_cpp.hpp ****             sem_close(myHandle);
  90:src/../h/syscall_cpp.hpp ****         }
  91:src/../h/syscall_cpp.hpp ****         int wait (){
  92:src/../h/syscall_cpp.hpp ****             return sem_wait(myHandle);
  93:src/../h/syscall_cpp.hpp ****         }
  94:src/../h/syscall_cpp.hpp ****         int signal (){
  95:src/../h/syscall_cpp.hpp ****             return sem_signal(myHandle);
 411              		.loc 1 95 13
 412              		.loc 1 95 30 is_stmt 0
 413 019c 97070000 		ld	a5,.LANCHOR1+8
 413      83B70700 
 414 01a4 03B58700 		ld	a0,8(a5)
 415 01a8 97000000 		call	_Z10sem_signalP5sem_s@plt
 415      E7800000 
 416              	.LVL36:
 417              	.LBE23:
 418              	.LBE22:
  67:src/main.cpp  **** }
 419              		.loc 2 67 1
 420 01b0 83308101 		ld	ra,24(sp)
 421              		.cfi_restore 1
 422 01b4 03340101 		ld	s0,16(sp)
 423              		.cfi_restore 8
 424              		.cfi_def_cfa 2, 32
 425 01b8 83348100 		ld	s1,8(sp)
 426              		.cfi_restore 9
 427              	.LVL37:
 428 01bc 13010102 		addi	sp,sp,32
 429              		.cfi_def_cfa_offset 0
 430 01c0 67800000 		jr	ra
 431              		.cfi_endproc
 432              	.LFE59:
 434              		.section	.rodata.str1.8,"aMS",@progbits,1
 435              		.align	3
 436              	.LC0:
 437 0000 5072696E 		.string	"Printf proba %d valjda radi %x, %p\n"
 437      74662070 
 437      726F6261 
 437      20256420 
 437      76616C6A 
 438              		.text
 439              		.align	2
 440              		.globl	main
 442              	main:
 443              	.LFB68:
GAS LISTING /tmp/ccmw5GNo.s 			page 12


  68:src/main.cpp  **** 
  69:src/main.cpp  **** extern void userMain();
  70:src/main.cpp  **** 
  71:src/main.cpp  **** class PeriodicTest : public PeriodicThread {
  72:src/main.cpp  **** public:
  73:src/main.cpp  ****     PeriodicTest(uint64 period, char c) : PeriodicThread(period){
  74:src/main.cpp  ****         this->c = c;
  75:src/main.cpp  ****     }
  76:src/main.cpp  **** protected:
  77:src/main.cpp  ****     char c;
  78:src/main.cpp  ****     void periodicActivation() override {
  79:src/main.cpp  ****         putc(c++);
  80:src/main.cpp  ****     }
  81:src/main.cpp  **** };
  82:src/main.cpp  **** 
  83:src/main.cpp  **** int main()
  84:src/main.cpp  **** {
 444              		.loc 2 84 1 is_stmt 1
 445              		.cfi_startproc
 446 01c4 130101FD 		addi	sp,sp,-48
 447              		.cfi_def_cfa_offset 48
 448 01c8 23341102 		sd	ra,40(sp)
 449 01cc 23308102 		sd	s0,32(sp)
 450 01d0 233C9100 		sd	s1,24(sp)
 451 01d4 23382101 		sd	s2,16(sp)
 452              		.cfi_offset 1, -8
 453              		.cfi_offset 8, -16
 454              		.cfi_offset 9, -24
 455              		.cfi_offset 18, -32
 456 01d8 13040103 		addi	s0,sp,48
 457              		.cfi_def_cfa 8, 0
  85:src/main.cpp  ****     char* buddy_start = (char*)HEAP_START_ADDR;
 458              		.loc 2 85 5
 459              		.loc 2 85 11 is_stmt 0
 460 01dc 97070000 		la	a5,HEAP_START_ADDR
 460      83B70700 
 461 01e4 03B50700 		ld	a0,0(a5)
 462              	.LVL38:
  86:src/main.cpp  ****     uint64 memory_size = ((char *)HEAP_END_ADDR-(char *)HEAP_START_ADDR);
 463              		.loc 2 86 5 is_stmt 1
 464              		.loc 2 86 27 is_stmt 0
 465 01e8 17090000 		la	s2,HEAP_END_ADDR
 465      03390900 
 466 01f0 83350900 		ld	a1,0(s2)
 467              		.loc 2 86 48
 468 01f4 B385A540 		sub	a1,a1,a0
 469              	.LVL39:
  87:src/main.cpp  ****     uint64 buddy_size_in_blocks = (memory_size/8)/BLOCK_SIZE+1;
 470              		.loc 2 87 5 is_stmt 1
 471              		.loc 2 87 61 is_stmt 0
 472 01f8 93D5F500 		srli	a1,a1,15
 473              	.LVL40:
 474              		.loc 2 87 12
 475 01fc 93851500 		addi	a1,a1,1
 476              	.LVL41:
  88:src/main.cpp  ****     char* buddy_end = buddy_start+buddy_size_in_blocks*BLOCK_SIZE;
 477              		.loc 2 88 5 is_stmt 1
GAS LISTING /tmp/ccmw5GNo.s 			page 13


 478              		.loc 2 88 55 is_stmt 0
 479 0200 9394C500 		slli	s1,a1,12
 480              		.loc 2 88 11
 481 0204 B3049500 		add	s1,a0,s1
 482              	.LVL42:
  89:src/main.cpp  ****     kmem_init(buddy_start,buddy_size_in_blocks);
 483              		.loc 2 89 5 is_stmt 1
 484              		.loc 2 89 14 is_stmt 0
 485 0208 9B850500 		sext.w	a1,a1
 486              	.LVL43:
 487 020c 97000000 		call	_Z9kmem_initPvi@plt
 487      E7800000 
 488              	.LVL44:
  90:src/main.cpp  ****     kern_mem_init((void*)buddy_end, (void*)HEAP_END_ADDR);
 489              		.loc 2 90 5 is_stmt 1
 490              		.loc 2 90 18 is_stmt 0
 491 0214 83350900 		ld	a1,0(s2)
 492 0218 13850400 		mv	a0,s1
 493 021c 97000000 		call	_Z13kern_mem_initPvS_@plt
 493      E7800000 
 494              	.LVL45:
  91:src/main.cpp  ****     kern_thread_init();
 495              		.loc 2 91 5 is_stmt 1
 496              		.loc 2 91 21 is_stmt 0
 497 0224 97000000 		call	_Z16kern_thread_initv@plt
 497      E7800000 
 498              	.LVL46:
  92:src/main.cpp  **** 
  93:src/main.cpp  ****     kern_interrupt_init();
 499              		.loc 2 93 5 is_stmt 1
 500              		.loc 2 93 24 is_stmt 0
 501 022c 97000000 		call	_Z19kern_interrupt_initv@plt
 501      E7800000 
 502              	.LVL47:
  94:src/main.cpp  ****     kern_sem_init();
 503              		.loc 2 94 5 is_stmt 1
 504              		.loc 2 94 18 is_stmt 0
 505 0234 97000000 		call	_Z13kern_sem_initv@plt
 505      E7800000 
 506              	.LVL48:
  95:src/main.cpp  ****     kern_console_init();
 507              		.loc 2 95 5 is_stmt 1
 508              		.loc 2 95 22 is_stmt 0
 509 023c 97000000 		call	_Z17kern_console_initv@plt
 509      E7800000 
 510              	.LVL49:
  96:src/main.cpp  **** 
  97:src/main.cpp  ****     Thread* thrIdle = new Thread(&bodyIdle,0);
 511              		.loc 2 97 5 is_stmt 1
 512              		.loc 2 97 45 is_stmt 0
 513 0244 13050002 		li	a0,32
 514 0248 97000000 		call	_Znwm@plt
 514      E7800000 
 515              	.LVL50:
 516              	.LBB29:
 517              	.LBB30:
  24:src/../h/syscall_cpp.hpp ****             this->body=body;
GAS LISTING /tmp/ccmw5GNo.s 			page 14


 518              		.loc 1 24 9
 519 0250 97070000 		lla	a5,_ZTV6Thread+16
 519      93870700 
 520 0258 2330F500 		sd	a5,0(a0)
  25:src/../h/syscall_cpp.hpp ****             this->arg=arg;
 521              		.loc 1 25 13 is_stmt 1
  25:src/../h/syscall_cpp.hpp ****             this->arg=arg;
 522              		.loc 1 25 23 is_stmt 0
 523 025c 97050000 		lla	a1,_Z8bodyIdlePv
 523      93850500 
 524 0264 2338B500 		sd	a1,16(a0)
  26:src/../h/syscall_cpp.hpp ****         }
 525              		.loc 1 26 13 is_stmt 1
  26:src/../h/syscall_cpp.hpp ****         }
 526              		.loc 1 26 22 is_stmt 0
 527 0268 233C0500 		sd	zero,24(a0)
 528              	.LVL51:
 529              	.LBE30:
 530              	.LBE29:
 531              		.loc 2 97 45
 532 026c 233CA4FC 		sd	a0,-40(s0)
  98:src/main.cpp  ****     thrIdle->start();
 533              		.loc 2 98 5 is_stmt 1
 534              	.LVL52:
 535              	.LBB31:
 536              	.LBB32:
  31:src/../h/syscall_cpp.hpp ****             else return thread_create(&myHandle,body,arg);
 537              		.loc 1 31 13
  32:src/../h/syscall_cpp.hpp ****         }
 538              		.loc 1 32 18
  32:src/../h/syscall_cpp.hpp ****         }
 539              		.loc 1 32 38 is_stmt 0
 540 0270 13060000 		li	a2,0
 541 0274 13058500 		addi	a0,a0,8
 542              	.LVL53:
 543 0278 97000000 		call	_Z13thread_createPP8thread_sPFvPvES2_@plt
 543      E7800000 
 544              	.LVL54:
 545              	.LBE32:
 546              	.LBE31:
  99:src/main.cpp  **** 
 100:src/main.cpp  ****     printf("Printf proba %d valjda radi %x, %p\n", &thrIdle, &thrIdle, &thrIdle);
 547              		.loc 2 100 5 is_stmt 1
 548              		.loc 2 100 11 is_stmt 0
 549 0280 930584FD 		addi	a1,s0,-40
 550 0284 93860500 		mv	a3,a1
 551 0288 13860500 		mv	a2,a1
 552 028c 17050000 		lla	a0,.LC0
 552      13050500 
 553 0294 97000000 		call	_Z6printfPKcz@plt
 553      E7800000 
 554              	.LVL55:
 101:src/main.cpp  ****     //bba_init((char*)HEAP_START_ADDR, (char*)HEAP_END_ADDR);
 102:src/main.cpp  ****     /*
 103:src/main.cpp  ****     semTest=new Semaphore(0);
 104:src/main.cpp  ****     Thread *thrA = new Thread(&bodyA,0);
 105:src/main.cpp  ****     Thread *thrB = new Thread(&bodyB,0);
GAS LISTING /tmp/ccmw5GNo.s 			page 15


 106:src/main.cpp  ****     thrB->start();
 107:src/main.cpp  ****     thrA->start();
 108:src/main.cpp  ****     thrB->join();
 109:src/main.cpp  ****     putc('S');
 110:src/main.cpp  ****      */
 111:src/main.cpp  ****     /*
 112:src/main.cpp  ****     char c='M';
 113:src/main.cpp  ****     c++;
 114:src/main.cpp  ****     Thread *thrCobj = new Thread(&bodyC,&c);
 115:src/main.cpp  ****     thrCobj->start();
 116:src/main.cpp  **** 
 117:src/main.cpp  ****     thrCobj->join();
 118:src/main.cpp  ****     */
 119:src/main.cpp  ****     //thrB->join();
 120:src/main.cpp  ****     //thrA->join();
 121:src/main.cpp  ****     /*
 122:src/main.cpp  ****     thrB->join();
 123:src/main.cpp  **** 
 124:src/main.cpp  ****     char o='O';
 125:src/main.cpp  ****     o++;
 126:src/main.cpp  ****     thread_t thrC;
 127:src/main.cpp  ****     thread_create(&thrC,&bodyC,&o);
 128:src/main.cpp  ****     thrCobj->join();
 129:src/main.cpp  ****     thread_join(thrC);
 130:src/main.cpp  ****     delete thrCobj;
 131:src/main.cpp  ****     thrB->start();
 132:src/main.cpp  ****     thrB->join();
 133:src/main.cpp  **** 
 134:src/main.cpp  **** */
 135:src/main.cpp  ****     /*char x = getc();
 136:src/main.cpp  ****     x=getc();
 137:src/main.cpp  ****     x++;
 138:src/main.cpp  ****     putc(x);*/
 139:src/main.cpp  ****     userMain();
 555              		.loc 2 139 5 is_stmt 1
 556              		.loc 2 139 13 is_stmt 0
 557 029c 97000000 		call	_Z8userMainv@plt
 557      E7800000 
 558              	.LVL56:
 140:src/main.cpp  **** /*
 141:src/main.cpp  ****     PeriodicTest* pt = new PeriodicTest(30, 'A');
 142:src/main.cpp  ****     PeriodicTest* pt2 = new PeriodicTest(10, 'a');
 143:src/main.cpp  ****     pt->start();
 144:src/main.cpp  ****     pt2->start();
 145:src/main.cpp  ****     putc('E');
 146:src/main.cpp  ****     char x = 'm';
 147:src/main.cpp  ****     while (x!='x'){
 148:src/main.cpp  ****         x=getc();
 149:src/main.cpp  ****         putc(x);
 150:src/main.cpp  ****     }
 151:src/main.cpp  **** 
 152:src/main.cpp  ****     pt->terminate();
 153:src/main.cpp  ****     pt2->terminate();
 154:src/main.cpp  ****     */
 155:src/main.cpp  ****     idleAlive=0;
 559              		.loc 2 155 5 is_stmt 1
 560              		.loc 2 155 14 is_stmt 0
GAS LISTING /tmp/ccmw5GNo.s 			page 16


 561 02a4 97070000 		sw	zero,.LANCHOR0,a5
 561      23A00700 
 156:src/main.cpp  ****     return 0;
 562              		.loc 2 156 5 is_stmt 1
 157:src/main.cpp  **** }...
 563              		.loc 2 157 1 is_stmt 0
 564 02ac 13050000 		li	a0,0
 565 02b0 83308102 		ld	ra,40(sp)
 566              		.cfi_restore 1
 567 02b4 03340102 		ld	s0,32(sp)
 568              		.cfi_restore 8
 569              		.cfi_def_cfa 2, 48
 570 02b8 83348101 		ld	s1,24(sp)
 571              		.cfi_restore 9
 572              	.LVL57:
 573 02bc 03390101 		ld	s2,16(sp)
 574              		.cfi_restore 18
 575 02c0 13010103 		addi	sp,sp,48
 576              		.cfi_def_cfa_offset 0
 577 02c4 67800000 		jr	ra
 578              		.cfi_endproc
 579              	.LFE68:
 581              		.weak	_ZTV6Thread
 582              		.section	.data.rel.ro.local._ZTV6Thread,"awG",@progbits,_ZTV6Thread,comdat
 583              		.align	3
 586              	_ZTV6Thread:
 587 0000 00000000 		.dword	0
 587      00000000 
 588 0008 00000000 		.dword	0
 588      00000000 
 589 0010 00000000 		.dword	_ZN6ThreadD1Ev
 589      00000000 
 590 0018 00000000 		.dword	_ZN6ThreadD0Ev
 590      00000000 
 591 0020 00000000 		.dword	_ZN6Thread3runEv
 591      00000000 
 592              		.globl	str
 593              		.globl	g
 594              		.globl	idleAlive
 595              		.globl	semTest
 596              		.data
 597              		.align	3
 598              		.set	.LANCHOR0,. + 0
 601              	idleAlive:
 602 0000 01000000 		.word	1
 603 0004 00000000 		.zero	4
 606              	str:
 607 0008 74657361 		.string	"tesa legenda"
 607      206C6567 
 607      656E6461 
 607      00
 608 0015 0000     		.zero	2
 609              		.bss
 610              		.align	3
 611              		.set	.LANCHOR1,. + 0
 614              	g:
 615 0000 00000000 		.zero	4
GAS LISTING /tmp/ccmw5GNo.s 			page 17


 616 0004 00000000 		.zero	4
 619              	semTest:
 620 0008 00000000 		.zero	8
 620      00000000 
 621              		.text
 622              	.Letext0:
 623              		.file 3 "src/../h/../lib/hw.h"
 624              		.file 4 "src/../h/syscall_c.h"
 625              		.file 5 "src/../h/./kern_threads.hpp"
 626              		.file 6 "src/../h/kern_semaphore.hpp"
 627              		.file 7 "/usr/riscv64-linux-gnu/include/c++/9/bits/std_abs.h"
 628              		.file 8 "/usr/riscv64-linux-gnu/include/c++/9/cstdlib"
 629              		.file 9 "/usr/riscv64-linux-gnu/include/c++/9/riscv64-linux-gnu/bits/c++config.h"
 630              		.file 10 "/usr/riscv64-linux-gnu/include/stdlib.h"
 631              		.file 11 "/usr/riscv64-linux-gnu/include/bits/stdlib-float.h"
 632              		.file 12 "/usr/riscv64-linux-gnu/include/bits/stdlib-bsearch.h"
 633              		.file 13 "/usr/riscv64-linux-gnu/include/bits/stdlib.h"
 634              		.file 14 "/usr/riscv64-linux-gnu/include/c++/9/stdlib.h"
 635              		.file 15 "src/../h/kern_slab.hpp"
 636              		.file 16 "src/../h/kern_memory.hpp"
 637              		.file 17 "src/../h/kern_interrupts.hpp"
 638              		.file 18 "src/../h/kern_console.hpp"
 639              		.file 19 "src/../h/printing.hpp"
 640              		.file 20 "<built-in>"
GAS LISTING /tmp/ccmw5GNo.s 			page 18


DEFINED SYMBOLS
                            *ABS*:0000000000000000 main.cpp
     /tmp/ccmw5GNo.s:10     .text._ZN6ThreadD2Ev:0000000000000000 _ZN6ThreadD2Ev
     /tmp/ccmw5GNo.s:14     .text._ZN6ThreadD2Ev:0000000000000000 .L0 
     /tmp/ccmw5GNo.s:16     .text._ZN6ThreadD2Ev:0000000000000000 .L0 
     /tmp/ccmw5GNo.s:17     .text._ZN6ThreadD2Ev:0000000000000004 .L0 
     /tmp/ccmw5GNo.s:19     .text._ZN6ThreadD2Ev:0000000000000008 .L0 
     /tmp/ccmw5GNo.s:21     .text._ZN6ThreadD2Ev:000000000000000c .L0 
     /tmp/ccmw5GNo.s:23     .text._ZN6ThreadD2Ev:000000000000000c .L0 
     /tmp/ccmw5GNo.s:24     .text._ZN6ThreadD2Ev:0000000000000010 .L0 
     /tmp/ccmw5GNo.s:25     .text._ZN6ThreadD2Ev:0000000000000010 .L0 
     /tmp/ccmw5GNo.s:27     .text._ZN6ThreadD2Ev:0000000000000014 .L0 
     /tmp/ccmw5GNo.s:29     .text._ZN6ThreadD2Ev:0000000000000018 .L0 
     /tmp/ccmw5GNo.s:10     .text._ZN6ThreadD2Ev:0000000000000000 _ZN6ThreadD1Ev
     /tmp/ccmw5GNo.s:38     .text._ZN6Thread3runEv:0000000000000000 _ZN6Thread3runEv
     /tmp/ccmw5GNo.s:41     .text._ZN6Thread3runEv:0000000000000000 .L0 
     /tmp/ccmw5GNo.s:43     .text._ZN6Thread3runEv:0000000000000000 .L0 
     /tmp/ccmw5GNo.s:44     .text._ZN6Thread3runEv:0000000000000004 .L0 
     /tmp/ccmw5GNo.s:46     .text._ZN6Thread3runEv:0000000000000008 .L0 
     /tmp/ccmw5GNo.s:48     .text._ZN6Thread3runEv:000000000000000c .L0 
     /tmp/ccmw5GNo.s:50     .text._ZN6Thread3runEv:000000000000000c .L0 
     /tmp/ccmw5GNo.s:51     .text._ZN6Thread3runEv:0000000000000010 .L0 
     /tmp/ccmw5GNo.s:52     .text._ZN6Thread3runEv:0000000000000010 .L0 
     /tmp/ccmw5GNo.s:54     .text._ZN6Thread3runEv:0000000000000014 .L0 
     /tmp/ccmw5GNo.s:56     .text._ZN6Thread3runEv:0000000000000018 .L0 
     /tmp/ccmw5GNo.s:63     .text._ZN6Thread11threadEntryEPv:0000000000000000 _ZN6Thread11threadEntryEPv
     /tmp/ccmw5GNo.s:66     .text._ZN6Thread11threadEntryEPv:0000000000000000 .L0 
     /tmp/ccmw5GNo.s:68     .text._ZN6Thread11threadEntryEPv:0000000000000000 .L0 
     /tmp/ccmw5GNo.s:69     .text._ZN6Thread11threadEntryEPv:0000000000000004 .L0 
     /tmp/ccmw5GNo.s:72     .text._ZN6Thread11threadEntryEPv:000000000000000c .L0 
     /tmp/ccmw5GNo.s:73     .text._ZN6Thread11threadEntryEPv:000000000000000c .L0 
     /tmp/ccmw5GNo.s:75     .text._ZN6Thread11threadEntryEPv:0000000000000010 .L0 
     /tmp/ccmw5GNo.s:78     .text._ZN6Thread11threadEntryEPv:0000000000000010 .L0 
     /tmp/ccmw5GNo.s:79     .text._ZN6Thread11threadEntryEPv:0000000000000010 .L0 
     /tmp/ccmw5GNo.s:80     .text._ZN6Thread11threadEntryEPv:0000000000000010 .L0 
     /tmp/ccmw5GNo.s:83     .text._ZN6Thread11threadEntryEPv:0000000000000018 .L0 
     /tmp/ccmw5GNo.s:86     .text._ZN6Thread11threadEntryEPv:000000000000001c .L0 
     /tmp/ccmw5GNo.s:87     .text._ZN6Thread11threadEntryEPv:0000000000000020 .L0 
     /tmp/ccmw5GNo.s:89     .text._ZN6Thread11threadEntryEPv:0000000000000024 .L0 
     /tmp/ccmw5GNo.s:90     .text._ZN6Thread11threadEntryEPv:0000000000000024 .L0 
     /tmp/ccmw5GNo.s:92     .text._ZN6Thread11threadEntryEPv:0000000000000028 .L0 
     /tmp/ccmw5GNo.s:94     .text._ZN6Thread11threadEntryEPv:000000000000002c .L0 
     /tmp/ccmw5GNo.s:101    .text:0000000000000000 _Z8bodyIdlePv
     /tmp/ccmw5GNo.s:105    .text:0000000000000000 .L0 
     /tmp/ccmw5GNo.s:107    .text:0000000000000000 .L0 
     /tmp/ccmw5GNo.s:108    .text:0000000000000000 .L0 
     /tmp/ccmw5GNo.s:109    .text:0000000000000000 .L0 
     /tmp/ccmw5GNo.s:112    .text:000000000000000c .L0 
     /tmp/ccmw5GNo.s:113    .text:0000000000000010 .L0 
     /tmp/ccmw5GNo.s:116    .text:0000000000000018 .L0 
     /tmp/ccmw5GNo.s:117    .text:0000000000000018 .L0 
     /tmp/ccmw5GNo.s:119    .text:000000000000001c .L0 
     /tmp/ccmw5GNo.s:123    .text:000000000000001c .L0 
     /tmp/ccmw5GNo.s:124    .text:000000000000001c .L0 
     /tmp/ccmw5GNo.s:127    .text:0000000000000024 .L0 
     /tmp/ccmw5GNo.s:128    .text:0000000000000024 .L0 
     /tmp/ccmw5GNo.s:131    .text:0000000000000030 .L0 
GAS LISTING /tmp/ccmw5GNo.s 			page 19


     /tmp/ccmw5GNo.s:132    .text:0000000000000034 .L0 
     /tmp/ccmw5GNo.s:134    .text:0000000000000038 .L0 
     /tmp/ccmw5GNo.s:135    .text:0000000000000038 .L0 
     /tmp/ccmw5GNo.s:137    .text:000000000000003c .L0 
     /tmp/ccmw5GNo.s:142    .text:0000000000000044 .L0 
     /tmp/ccmw5GNo.s:149    .text._ZN6ThreadD0Ev:0000000000000000 _ZN6ThreadD0Ev
     /tmp/ccmw5GNo.s:152    .text._ZN6ThreadD0Ev:0000000000000000 .L0 
     /tmp/ccmw5GNo.s:154    .text._ZN6ThreadD0Ev:0000000000000000 .L0 
     /tmp/ccmw5GNo.s:155    .text._ZN6ThreadD0Ev:0000000000000004 .L0 
     /tmp/ccmw5GNo.s:158    .text._ZN6ThreadD0Ev:000000000000000c .L0 
     /tmp/ccmw5GNo.s:159    .text._ZN6ThreadD0Ev:000000000000000c .L0 
     /tmp/ccmw5GNo.s:161    .text._ZN6ThreadD0Ev:0000000000000010 .L0 
     /tmp/ccmw5GNo.s:163    .text._ZN6ThreadD0Ev:0000000000000010 .L0 
     /tmp/ccmw5GNo.s:166    .text._ZN6ThreadD0Ev:000000000000001c .L0 
     /tmp/ccmw5GNo.s:168    .text._ZN6ThreadD0Ev:0000000000000020 .L0 
     /tmp/ccmw5GNo.s:169    .text._ZN6ThreadD0Ev:0000000000000020 .L0 
     /tmp/ccmw5GNo.s:171    .text._ZN6ThreadD0Ev:0000000000000024 .L0 
     /tmp/ccmw5GNo.s:173    .text._ZN6ThreadD0Ev:0000000000000028 .L0 
     /tmp/ccmw5GNo.s:180    .text:0000000000000044 _Z5bodyCPv
     /tmp/ccmw5GNo.s:183    .text:0000000000000044 .L0 
     /tmp/ccmw5GNo.s:185    .text:0000000000000044 .L0 
     /tmp/ccmw5GNo.s:186    .text:0000000000000048 .L0 
     /tmp/ccmw5GNo.s:191    .text:0000000000000058 .L0 
     /tmp/ccmw5GNo.s:192    .text:0000000000000058 .L0 
     /tmp/ccmw5GNo.s:193    .text:0000000000000058 .L0 
     /tmp/ccmw5GNo.s:194    .text:0000000000000058 .L0 
     /tmp/ccmw5GNo.s:196    .text:000000000000005c .L0 
     /tmp/ccmw5GNo.s:200    .text:0000000000000060 .L0 
     /tmp/ccmw5GNo.s:201    .text:0000000000000060 .L0 
     /tmp/ccmw5GNo.s:202    .text:0000000000000060 .L0 
     /tmp/ccmw5GNo.s:206    .text:0000000000000064 .L0 
     /tmp/ccmw5GNo.s:207    .text:0000000000000064 .L0 
     /tmp/ccmw5GNo.s:210    .text:000000000000006c .L0 
     /tmp/ccmw5GNo.s:211    .text:000000000000006c .L0 
     /tmp/ccmw5GNo.s:215    .text:0000000000000078 .L0 
     /tmp/ccmw5GNo.s:216    .text:0000000000000078 .L0 
     /tmp/ccmw5GNo.s:220    .text:0000000000000084 .L0 
     /tmp/ccmw5GNo.s:221    .text:0000000000000084 .L0 
     /tmp/ccmw5GNo.s:224    .text:0000000000000088 .L0 
     /tmp/ccmw5GNo.s:228    .text:000000000000008c .L0 
     /tmp/ccmw5GNo.s:229    .text:0000000000000090 .L0 
     /tmp/ccmw5GNo.s:231    .text:0000000000000094 .L0 
     /tmp/ccmw5GNo.s:232    .text:0000000000000094 .L0 
     /tmp/ccmw5GNo.s:234    .text:0000000000000098 .L0 
     /tmp/ccmw5GNo.s:237    .text:000000000000009c .L0 
     /tmp/ccmw5GNo.s:240    .text:00000000000000a0 .L0 
     /tmp/ccmw5GNo.s:242    .text:00000000000000a4 .L0 
     /tmp/ccmw5GNo.s:248    .text:00000000000000a4 _Z5bodyAPv
     /tmp/ccmw5GNo.s:251    .text:00000000000000a4 .L0 
     /tmp/ccmw5GNo.s:253    .text:00000000000000a4 .L0 
     /tmp/ccmw5GNo.s:254    .text:00000000000000a8 .L0 
     /tmp/ccmw5GNo.s:258    .text:00000000000000b4 .L0 
     /tmp/ccmw5GNo.s:259    .text:00000000000000b4 .L0 
     /tmp/ccmw5GNo.s:260    .text:00000000000000b4 .L0 
     /tmp/ccmw5GNo.s:262    .text:00000000000000b8 .L0 
     /tmp/ccmw5GNo.s:265    .text:00000000000000b8 .L0 
     /tmp/ccmw5GNo.s:267    .text:00000000000000b8 .L0 
GAS LISTING /tmp/ccmw5GNo.s 			page 20


     /tmp/ccmw5GNo.s:268    .text:00000000000000b8 .L0 
     /tmp/ccmw5GNo.s:273    .text:00000000000000c0 .L0 
     /tmp/ccmw5GNo.s:274    .text:00000000000000c0 .L0 
     /tmp/ccmw5GNo.s:278    .text:00000000000000c8 .L0 
     /tmp/ccmw5GNo.s:279    .text:00000000000000c8 .L0 
     /tmp/ccmw5GNo.s:282    .text:00000000000000d0 .L0 
     /tmp/ccmw5GNo.s:286    .text:00000000000000d4 .L0 
     /tmp/ccmw5GNo.s:289    .text:00000000000000dc .L0 
     /tmp/ccmw5GNo.s:290    .text:00000000000000dc .L0 
     /tmp/ccmw5GNo.s:294    .text:00000000000000e8 .L0 
     /tmp/ccmw5GNo.s:300    .text:00000000000000f4 .L0 
     /tmp/ccmw5GNo.s:301    .text:00000000000000f8 .L0 
     /tmp/ccmw5GNo.s:303    .text:00000000000000fc .L0 
     /tmp/ccmw5GNo.s:304    .text:00000000000000fc .L0 
     /tmp/ccmw5GNo.s:306    .text:0000000000000100 .L0 
     /tmp/ccmw5GNo.s:309    .text:0000000000000104 .L0 
     /tmp/ccmw5GNo.s:311    .text:0000000000000108 .L0 
     /tmp/ccmw5GNo.s:317    .text:0000000000000108 _Z5bodyBPv
     /tmp/ccmw5GNo.s:320    .text:0000000000000108 .L0 
     /tmp/ccmw5GNo.s:322    .text:0000000000000108 .L0 
     /tmp/ccmw5GNo.s:323    .text:000000000000010c .L0 
     /tmp/ccmw5GNo.s:327    .text:0000000000000118 .L0 
     /tmp/ccmw5GNo.s:328    .text:0000000000000118 .L0 
     /tmp/ccmw5GNo.s:329    .text:0000000000000118 .L0 
     /tmp/ccmw5GNo.s:331    .text:000000000000011c .L0 
     /tmp/ccmw5GNo.s:335    .text:000000000000011c .L0 
     /tmp/ccmw5GNo.s:336    .text:000000000000011c .L0 
     /tmp/ccmw5GNo.s:344    .text:0000000000000124 .L0 
     /tmp/ccmw5GNo.s:348    .text:0000000000000128 .L0 
     /tmp/ccmw5GNo.s:351    .text:0000000000000130 .L0 
     /tmp/ccmw5GNo.s:352    .text:0000000000000130 .L0 
     /tmp/ccmw5GNo.s:354    .text:0000000000000134 .L0 
     /tmp/ccmw5GNo.s:357    .text:000000000000013c .L0 
     /tmp/ccmw5GNo.s:359    .text:0000000000000140 .L0 
     /tmp/ccmw5GNo.s:360    .text:0000000000000140 .L0 
     /tmp/ccmw5GNo.s:368    .text:0000000000000158 .L0 
     /tmp/ccmw5GNo.s:372    .text:000000000000015c .L0 
     /tmp/ccmw5GNo.s:377    .text:0000000000000168 .L0 
     /tmp/ccmw5GNo.s:384    .text:0000000000000170 .L0 
     /tmp/ccmw5GNo.s:388    .text:0000000000000174 .L0 
     /tmp/ccmw5GNo.s:392    .text:000000000000017c .L0 
     /tmp/ccmw5GNo.s:393    .text:000000000000017c .L0 
     /tmp/ccmw5GNo.s:400    .text:0000000000000194 .L0 
     /tmp/ccmw5GNo.s:401    .text:0000000000000194 .L0 
     /tmp/ccmw5GNo.s:411    .text:000000000000019c .L0 
     /tmp/ccmw5GNo.s:412    .text:000000000000019c .L0 
     /tmp/ccmw5GNo.s:413    .text:000000000000019c .L0 
     /tmp/ccmw5GNo.s:420    .text:00000000000001b0 .L0 
     /tmp/ccmw5GNo.s:421    .text:00000000000001b4 .L0 
     /tmp/ccmw5GNo.s:423    .text:00000000000001b8 .L0 
     /tmp/ccmw5GNo.s:424    .text:00000000000001b8 .L0 
     /tmp/ccmw5GNo.s:426    .text:00000000000001bc .L0 
     /tmp/ccmw5GNo.s:429    .text:00000000000001c0 .L0 
     /tmp/ccmw5GNo.s:431    .text:00000000000001c4 .L0 
     /tmp/ccmw5GNo.s:442    .text:00000000000001c4 main
     /tmp/ccmw5GNo.s:445    .text:00000000000001c4 .L0 
     /tmp/ccmw5GNo.s:446    .text:00000000000001c4 .L0 
GAS LISTING /tmp/ccmw5GNo.s 			page 21


     /tmp/ccmw5GNo.s:447    .text:00000000000001c8 .L0 
     /tmp/ccmw5GNo.s:452    .text:00000000000001d8 .L0 
     /tmp/ccmw5GNo.s:453    .text:00000000000001d8 .L0 
     /tmp/ccmw5GNo.s:454    .text:00000000000001d8 .L0 
     /tmp/ccmw5GNo.s:455    .text:00000000000001d8 .L0 
     /tmp/ccmw5GNo.s:457    .text:00000000000001dc .L0 
     /tmp/ccmw5GNo.s:459    .text:00000000000001dc .L0 
     /tmp/ccmw5GNo.s:460    .text:00000000000001dc .L0 
     /tmp/ccmw5GNo.s:464    .text:00000000000001e8 .L0 
     /tmp/ccmw5GNo.s:465    .text:00000000000001e8 .L0 
     /tmp/ccmw5GNo.s:468    .text:00000000000001f4 .L0 
     /tmp/ccmw5GNo.s:471    .text:00000000000001f8 .L0 
     /tmp/ccmw5GNo.s:472    .text:00000000000001f8 .L0 
     /tmp/ccmw5GNo.s:475    .text:00000000000001fc .L0 
     /tmp/ccmw5GNo.s:478    .text:0000000000000200 .L0 
     /tmp/ccmw5GNo.s:479    .text:0000000000000200 .L0 
     /tmp/ccmw5GNo.s:481    .text:0000000000000204 .L0 
     /tmp/ccmw5GNo.s:484    .text:0000000000000208 .L0 
     /tmp/ccmw5GNo.s:485    .text:0000000000000208 .L0 
     /tmp/ccmw5GNo.s:490    .text:0000000000000214 .L0 
     /tmp/ccmw5GNo.s:491    .text:0000000000000214 .L0 
     /tmp/ccmw5GNo.s:496    .text:0000000000000224 .L0 
     /tmp/ccmw5GNo.s:497    .text:0000000000000224 .L0 
     /tmp/ccmw5GNo.s:500    .text:000000000000022c .L0 
     /tmp/ccmw5GNo.s:501    .text:000000000000022c .L0 
     /tmp/ccmw5GNo.s:504    .text:0000000000000234 .L0 
     /tmp/ccmw5GNo.s:505    .text:0000000000000234 .L0 
     /tmp/ccmw5GNo.s:508    .text:000000000000023c .L0 
     /tmp/ccmw5GNo.s:509    .text:000000000000023c .L0 
     /tmp/ccmw5GNo.s:512    .text:0000000000000244 .L0 
     /tmp/ccmw5GNo.s:513    .text:0000000000000244 .L0 
     /tmp/ccmw5GNo.s:586    .data.rel.ro.local._ZTV6Thread:0000000000000000 _ZTV6Thread
     /tmp/ccmw5GNo.s:519    .text:0000000000000250 .L0 
     /tmp/ccmw5GNo.s:522    .text:000000000000025c .L0 
     /tmp/ccmw5GNo.s:523    .text:000000000000025c .L0 
     /tmp/ccmw5GNo.s:526    .text:0000000000000268 .L0 
     /tmp/ccmw5GNo.s:527    .text:0000000000000268 .L0 
     /tmp/ccmw5GNo.s:532    .text:000000000000026c .L0 
     /tmp/ccmw5GNo.s:537    .text:0000000000000270 .L0 
     /tmp/ccmw5GNo.s:538    .text:0000000000000270 .L0 
     /tmp/ccmw5GNo.s:539    .text:0000000000000270 .L0 
     /tmp/ccmw5GNo.s:540    .text:0000000000000270 .L0 
     /tmp/ccmw5GNo.s:548    .text:0000000000000280 .L0 
     /tmp/ccmw5GNo.s:549    .text:0000000000000280 .L0 
     /tmp/ccmw5GNo.s:556    .text:000000000000029c .L0 
     /tmp/ccmw5GNo.s:557    .text:000000000000029c .L0 
     /tmp/ccmw5GNo.s:560    .text:00000000000002a4 .L0 
     /tmp/ccmw5GNo.s:561    .text:00000000000002a4 .L0 
     /tmp/ccmw5GNo.s:563    .text:00000000000002ac .L0 
     /tmp/ccmw5GNo.s:564    .text:00000000000002ac .L0 
     /tmp/ccmw5GNo.s:566    .text:00000000000002b4 .L0 
     /tmp/ccmw5GNo.s:568    .text:00000000000002b8 .L0 
     /tmp/ccmw5GNo.s:569    .text:00000000000002b8 .L0 
     /tmp/ccmw5GNo.s:571    .text:00000000000002bc .L0 
     /tmp/ccmw5GNo.s:574    .text:00000000000002c0 .L0 
     /tmp/ccmw5GNo.s:576    .text:00000000000002c4 .L0 
     /tmp/ccmw5GNo.s:578    .text:00000000000002c8 .L0 
GAS LISTING /tmp/ccmw5GNo.s 			page 22


     /tmp/ccmw5GNo.s:606    .data:0000000000000008 str
     /tmp/ccmw5GNo.s:614    .bss:0000000000000000 g
     /tmp/ccmw5GNo.s:601    .data:0000000000000000 idleAlive
     /tmp/ccmw5GNo.s:619    .bss:0000000000000008 semTest
     /tmp/ccmw5GNo.s:598    .data:0000000000000000 .LANCHOR0
     /tmp/ccmw5GNo.s:611    .bss:0000000000000000 .LANCHOR1
     /tmp/ccmw5GNo.s:34     .text._ZN6ThreadD2Ev:0000000000000018 .L0 
     /tmp/ccmw5GNo.s:59     .text._ZN6Thread3runEv:0000000000000018 .L0 
     /tmp/ccmw5GNo.s:97     .text._ZN6Thread11threadEntryEPv:000000000000002c .L0 
     /tmp/ccmw5GNo.s:641    .text:00000000000002c8 .L0 
     /tmp/ccmw5GNo.s:176    .text._ZN6ThreadD0Ev:0000000000000028 .L0 
     /tmp/ccmw5GNo.s:109    .text:0000000000000000 .L0 
     /tmp/ccmw5GNo.s:128    .text:0000000000000024 .L0 
     /tmp/ccmw5GNo.s:360    .text:0000000000000140 .L0 
     /tmp/ccmw5GNo.s:393    .text:000000000000017c .L0 
     /tmp/ccmw5GNo.s:413    .text:000000000000019c .L0 
     /tmp/ccmw5GNo.s:460    .text:00000000000001dc .L0 
     /tmp/ccmw5GNo.s:465    .text:00000000000001e8 .L0 
     /tmp/ccmw5GNo.s:519    .text:0000000000000250 .L0 
     /tmp/ccmw5GNo.s:523    .text:000000000000025c .L0 
     /tmp/ccmw5GNo.s:436    .rodata.str1.8:0000000000000000 .LC0
     /tmp/ccmw5GNo.s:552    .text:000000000000028c .L0 
     /tmp/ccmw5GNo.s:561    .text:00000000000002a4 .L0 
     /tmp/ccmw5GNo.s:140    .text:0000000000000040 .L15
     /tmp/ccmw5GNo.s:121    .text:000000000000001c .L12
     /tmp/ccmw5GNo.s:226    .text:000000000000008c .L18
     /tmp/ccmw5GNo.s:204    .text:0000000000000064 .L20
     /tmp/ccmw5GNo.s:284    .text:00000000000000d4 .L25
     /tmp/ccmw5GNo.s:297    .text:00000000000000f4 .L22
     /tmp/ccmw5GNo.s:276    .text:00000000000000c8 .L24
     /tmp/ccmw5GNo.s:271    .text:00000000000000c0 .L27
     /tmp/ccmw5GNo.s:386    .text:0000000000000174 .L35
     /tmp/ccmw5GNo.s:365    .text:0000000000000158 .L31
     /tmp/ccmw5GNo.s:339    .text:0000000000000124 .L32
     /tmp/ccmw5GNo.s:379    .text:0000000000000170 .L30
     /tmp/ccmw5GNo.s:346    .text:0000000000000128 .L33
     /tmp/ccmw5GNo.s:404    .text:000000000000019c .L29
     /tmp/ccmw5GNo.s:370    .text:000000000000015c .L34
     /tmp/ccmw5GNo.s:3035   .debug_abbrev:0000000000000000 .Ldebug_abbrev0
     /tmp/ccmw5GNo.s:4995   .debug_str:0000000000000734 .LASF181
     /tmp/ccmw5GNo.s:5003   .debug_str:000000000000081e .LASF182
     /tmp/ccmw5GNo.s:4921   .debug_str:00000000000005a3 .LASF183
     /tmp/ccmw5GNo.s:4657   .debug_ranges:0000000000000000 .Ldebug_ranges0
     /tmp/ccmw5GNo.s:4683   .debug_line:0000000000000000 .Ldebug_line0
     /tmp/ccmw5GNo.s:4709   .debug_str:000000000000007c .LASF0
     /tmp/ccmw5GNo.s:5031   .debug_str:0000000000000898 .LASF1
     /tmp/ccmw5GNo.s:4999   .debug_str:00000000000007fe .LASF2
     /tmp/ccmw5GNo.s:4975   .debug_str:00000000000006c1 .LASF4
     /tmp/ccmw5GNo.s:4985   .debug_str:00000000000006f3 .LASF3
     /tmp/ccmw5GNo.s:4807   .debug_str:00000000000002d1 .LASF5
     /tmp/ccmw5GNo.s:4849   .debug_str:0000000000000402 .LASF6
     /tmp/ccmw5GNo.s:4949   .debug_str:0000000000000634 .LASF7
     /tmp/ccmw5GNo.s:4725   .debug_str:00000000000000f0 .LASF8
     /tmp/ccmw5GNo.s:5025   .debug_str:0000000000000875 .LASF9
     /tmp/ccmw5GNo.s:4811   .debug_str:00000000000002de .LASF10
     /tmp/ccmw5GNo.s:4753   .debug_str:000000000000019b .LASF11
     /tmp/ccmw5GNo.s:4869   .debug_str:000000000000046a .LASF12
GAS LISTING /tmp/ccmw5GNo.s 			page 23


     /tmp/ccmw5GNo.s:4813   .debug_str:00000000000002ed .LASF13
     /tmp/ccmw5GNo.s:4967   .debug_str:000000000000069a .LASF14
     /tmp/ccmw5GNo.s:4817   .debug_str:0000000000000308 .LASF15
     /tmp/ccmw5GNo.s:4783   .debug_str:000000000000025b .LASF16
     /tmp/ccmw5GNo.s:4799   .debug_str:00000000000002b4 .LASF17
     /tmp/ccmw5GNo.s:4797   .debug_str:00000000000002ab .LASF28
     /tmp/ccmw5GNo.s:4991   .debug_str:000000000000071d .LASF18
     /tmp/ccmw5GNo.s:4989   .debug_str:0000000000000712 .LASF19
     /tmp/ccmw5GNo.s:4981   .debug_str:00000000000006e1 .LASF20
     /tmp/ccmw5GNo.s:5017   .debug_str:0000000000000857 .LASF21
     /tmp/ccmw5GNo.s:5057   .debug_str:000000000000091f .LASF22
     /tmp/ccmw5GNo.s:5065   .debug_str:000000000000094b .LASF23
     /tmp/ccmw5GNo.s:4863   .debug_str:0000000000000452 .LASF24
     /tmp/ccmw5GNo.s:5019   .debug_str:000000000000085f .LASF25
     /tmp/ccmw5GNo.s:4877   .debug_str:000000000000049e .LASF26
     /tmp/ccmw5GNo.s:4925   .debug_str:00000000000005c0 .LASF27
     /tmp/ccmw5GNo.s:4923   .debug_str:00000000000005ba .LASF29
     /tmp/ccmw5GNo.s:4717   .debug_str:00000000000000a9 .LASF30
     /tmp/ccmw5GNo.s:4775   .debug_str:0000000000000236 .LASF38
     /tmp/ccmw5GNo.s:4791   .debug_str:000000000000028d .LASF31
     /tmp/ccmw5GNo.s:4919   .debug_str:000000000000059b .LASF32
     /tmp/ccmw5GNo.s:4893   .debug_str:00000000000004f9 .LASF33
     /tmp/ccmw5GNo.s:5051   .debug_str:00000000000008f6 .LASF34
     /tmp/ccmw5GNo.s:4855   .debug_str:000000000000042b .LASF35
     /tmp/ccmw5GNo.s:5063   .debug_str:0000000000000942 .LASF36
     /tmp/ccmw5GNo.s:5049   .debug_str:00000000000008ee .LASF37
     /tmp/ccmw5GNo.s:4693   .debug_str:0000000000000030 .LASF39
     /tmp/ccmw5GNo.s:5053   .debug_str:0000000000000900 .LASF40
     /tmp/ccmw5GNo.s:4889   .debug_str:00000000000004d7 .LASF41
     /tmp/ccmw5GNo.s:4843   .debug_str:00000000000003e7 .LASF42
     /tmp/ccmw5GNo.s:4899   .debug_str:0000000000000516 .LASF48
     /tmp/ccmw5GNo.s:4741   .debug_str:0000000000000163 .LASF43
     /tmp/ccmw5GNo.s:4743   .debug_str:000000000000016d .LASF44
     /tmp/ccmw5GNo.s:4739   .debug_str:0000000000000159 .LASF45
     /tmp/ccmw5GNo.s:4751   .debug_str:0000000000000191 .LASF46
     /tmp/ccmw5GNo.s:4745   .debug_str:0000000000000177 .LASF47
     /tmp/ccmw5GNo.s:4697   .debug_str:0000000000000042 .LASF49
     /tmp/ccmw5GNo.s:4713   .debug_str:0000000000000097 .LASF184
     /tmp/ccmw5GNo.s:4721   .debug_str:00000000000000cf .LASF50
     /tmp/ccmw5GNo.s:4929   .debug_str:00000000000005d3 .LASF51
     /tmp/ccmw5GNo.s:4759   .debug_str:00000000000001c0 .LASF52
     /tmp/ccmw5GNo.s:5045   .debug_str:00000000000008dd .LASF53
     /tmp/ccmw5GNo.s:4845   .debug_str:00000000000003ec .LASF56
     /tmp/ccmw5GNo.s:4865   .debug_str:0000000000000459 .LASF54
     /tmp/ccmw5GNo.s:4997   .debug_str:00000000000007f8 .LASF55
     /tmp/ccmw5GNo.s:5015   .debug_str:000000000000084f .LASF57
     /tmp/ccmw5GNo.s:4951   .debug_str:0000000000000647 .LASF58
     /tmp/ccmw5GNo.s:4961   .debug_str:0000000000000685 .LASF59
     /tmp/ccmw5GNo.s:5027   .debug_str:0000000000000883 .LASF60
     /tmp/ccmw5GNo.s:4879   .debug_str:00000000000004aa .LASF61
     /tmp/ccmw5GNo.s:5033   .debug_str:00000000000008ab .LASF62
     /tmp/ccmw5GNo.s:5029   .debug_str:000000000000088c .LASF63
     /tmp/ccmw5GNo.s:4945   .debug_str:0000000000000619 .LASF64
     /tmp/ccmw5GNo.s:4771   .debug_str:000000000000020a .LASF65
     /tmp/ccmw5GNo.s:4909   .debug_str:000000000000055f .LASF66
     /tmp/ccmw5GNo.s:4801   .debug_str:00000000000002bd .LASF86
     /tmp/ccmw5GNo.s:4955   .debug_str:0000000000000661 .LASF67
GAS LISTING /tmp/ccmw5GNo.s 			page 24


     /tmp/ccmw5GNo.s:4833   .debug_str:0000000000000383 .LASF68
     /tmp/ccmw5GNo.s:5037   .debug_str:00000000000008c6 .LASF69
     /tmp/ccmw5GNo.s:5039   .debug_str:00000000000008cb .LASF70
     /tmp/ccmw5GNo.s:5043   .debug_str:00000000000008d8 .LASF71
     /tmp/ccmw5GNo.s:4819   .debug_str:000000000000031e .LASF72
     /tmp/ccmw5GNo.s:4735   .debug_str:0000000000000144 .LASF73
     /tmp/ccmw5GNo.s:4857   .debug_str:0000000000000432 .LASF74
     /tmp/ccmw5GNo.s:4823   .debug_str:0000000000000331 .LASF83
     /tmp/ccmw5GNo.s:4685   .debug_str:0000000000000000 .LASF75
     /tmp/ccmw5GNo.s:5023   .debug_str:0000000000000870 .LASF76
     /tmp/ccmw5GNo.s:4907   .debug_str:000000000000055a .LASF77
     /tmp/ccmw5GNo.s:4765   .debug_str:00000000000001e5 .LASF78
     /tmp/ccmw5GNo.s:4707   .debug_str:0000000000000076 .LASF79
     /tmp/ccmw5GNo.s:4873   .debug_str:000000000000048c .LASF80
     /tmp/ccmw5GNo.s:4715   .debug_str:00000000000000a1 .LASF81
     /tmp/ccmw5GNo.s:4755   .debug_str:00000000000001aa .LASF82
     /tmp/ccmw5GNo.s:5067   .debug_str:0000000000000953 .LASF84
     /tmp/ccmw5GNo.s:4861   .debug_str:0000000000000447 .LASF85
     /tmp/ccmw5GNo.s:4691   .debug_str:000000000000002b .LASF87
     /tmp/ccmw5GNo.s:5021   .debug_str:0000000000000868 .LASF88
     /tmp/ccmw5GNo.s:4809   .debug_str:00000000000002d8 .LASF89
     /tmp/ccmw5GNo.s:5005   .debug_str:000000000000082b .LASF90
     /tmp/ccmw5GNo.s:5011   .debug_str:0000000000000842 .LASF91
     /tmp/ccmw5GNo.s:4983   .debug_str:00000000000006eb .LASF92
     /tmp/ccmw5GNo.s:4695   .debug_str:000000000000003b .LASF93
     /tmp/ccmw5GNo.s:5009   .debug_str:0000000000000839 .LASF94
     /tmp/ccmw5GNo.s:4781   .debug_str:0000000000000254 .LASF95
     /tmp/ccmw5GNo.s:4779   .debug_str:000000000000024e .LASF96
     /tmp/ccmw5GNo.s:4933   .debug_str:00000000000005ea .LASF97
     /tmp/ccmw5GNo.s:4787   .debug_str:0000000000000281 .LASF98
     /tmp/ccmw5GNo.s:4789   .debug_str:0000000000000287 .LASF99
     /tmp/ccmw5GNo.s:4749   .debug_str:0000000000000189 .LASF100
     /tmp/ccmw5GNo.s:4729   .debug_str:0000000000000110 .LASF101
     /tmp/ccmw5GNo.s:5007   .debug_str:0000000000000832 .LASF102
     /tmp/ccmw5GNo.s:4747   .debug_str:0000000000000181 .LASF103
     /tmp/ccmw5GNo.s:4915   .debug_str:000000000000058c .LASF111
     /tmp/ccmw5GNo.s:4727   .debug_str:0000000000000100 .LASF113
     /tmp/ccmw5GNo.s:4767   .debug_str:00000000000001ec .LASF115
     /tmp/ccmw5GNo.s:4931   .debug_str:00000000000005df .LASF117
     /tmp/ccmw5GNo.s:4993   .debug_str:0000000000000722 .LASF119
     /tmp/ccmw5GNo.s:4917   .debug_str:0000000000000596 .LASF104
     /tmp/ccmw5GNo.s:4689   .debug_str:0000000000000016 .LASF106
     /tmp/ccmw5GNo.s:4699   .debug_str:000000000000004d .LASF105
     /tmp/ccmw5GNo.s:4703   .debug_str:0000000000000059 .LASF107
     /tmp/ccmw5GNo.s:4911   .debug_str:000000000000056d .LASF108
     /tmp/ccmw5GNo.s:5041   .debug_str:00000000000008d0 .LASF109
     /tmp/ccmw5GNo.s:5059   .debug_str:000000000000092b .LASF110
     /tmp/ccmw5GNo.s:4853   .debug_str:0000000000000424 .LASF112
     /tmp/ccmw5GNo.s:4795   .debug_str:0000000000000299 .LASF185
     /tmp/ccmw5GNo.s:4987   .debug_str:0000000000000705 .LASF114
     /tmp/ccmw5GNo.s:4719   .debug_str:00000000000000b8 .LASF116
     /tmp/ccmw5GNo.s:4941   .debug_str:0000000000000608 .LASF118
     /tmp/ccmw5GNo.s:4687   .debug_str:0000000000000007 .LASF120
     /tmp/ccmw5GNo.s:4969   .debug_str:00000000000006a6 .LASF121
     /tmp/ccmw5GNo.s:4959   .debug_str:0000000000000672 .LASF122
     /tmp/ccmw5GNo.s:4965   .debug_str:0000000000000695 .LASF123
     /tmp/ccmw5GNo.s:5001   .debug_str:000000000000080c .LASF124
GAS LISTING /tmp/ccmw5GNo.s 			page 25


     /tmp/ccmw5GNo.s:4875   .debug_str:0000000000000495 .LASF186
     /tmp/ccmw5GNo.s:4913   .debug_str:0000000000000576 .LASF187
     /tmp/ccmw5GNo.s:5013   .debug_str:0000000000000849 .LASF125
     /tmp/ccmw5GNo.s:5035   .debug_str:00000000000008b3 .LASF126
     /tmp/ccmw5GNo.s:4851   .debug_str:0000000000000415 .LASF127
     /tmp/ccmw5GNo.s:4953   .debug_str:0000000000000650 .LASF188
     /tmp/ccmw5GNo.s:4881   .debug_str:00000000000004b8 .LASF128
     /tmp/ccmw5GNo.s:4731   .debug_str:0000000000000119 .LASF189
     /tmp/ccmw5GNo.s:4733   .debug_str:0000000000000134 .LASF190
     /tmp/ccmw5GNo.s:4979   .debug_str:00000000000006dc .LASF129
     /tmp/ccmw5GNo.s:443    .text:00000000000001c4 .LFB68
     /tmp/ccmw5GNo.s:579    .text:00000000000002c8 .LFE68
     /tmp/ccmw5GNo.s:4867   .debug_str:000000000000045e .LASF130
     /tmp/ccmw5GNo.s:4357   .debug_loc:0000000000000000 .LLST14
     /tmp/ccmw5GNo.s:4769   .debug_str:00000000000001fe .LASF131
     /tmp/ccmw5GNo.s:4364   .debug_loc:0000000000000023 .LLST15
     /tmp/ccmw5GNo.s:4905   .debug_str:0000000000000545 .LASF132
     /tmp/ccmw5GNo.s:4381   .debug_loc:000000000000005f .LLST16
     /tmp/ccmw5GNo.s:5047   .debug_str:00000000000008e4 .LASF133
     /tmp/ccmw5GNo.s:4402   .debug_loc:000000000000009f .LLST17
     /tmp/ccmw5GNo.s:4937   .debug_str:00000000000005f5 .LASF134
     /tmp/ccmw5GNo.s:516    .text:0000000000000250 .LBB29
     /tmp/ccmw5GNo.s:530    .text:000000000000026c .LBE29
     /tmp/ccmw5GNo.s:4409   .debug_loc:00000000000000c2 .LLST18
     /tmp/ccmw5GNo.s:4417   .debug_loc:00000000000000e6 .LLST19
     /tmp/ccmw5GNo.s:4426   .debug_loc:0000000000000112 .LLST20
     /tmp/ccmw5GNo.s:535    .text:0000000000000270 .LBB31
     /tmp/ccmw5GNo.s:546    .text:0000000000000280 .LBE31
     /tmp/ccmw5GNo.s:4433   .debug_loc:0000000000000135 .LLST21
     /tmp/ccmw5GNo.s:544    .text:0000000000000280 .LVL54
     /tmp/ccmw5GNo.s:488    .text:0000000000000214 .LVL44
     /tmp/ccmw5GNo.s:494    .text:0000000000000224 .LVL45
     /tmp/ccmw5GNo.s:498    .text:000000000000022c .LVL46
     /tmp/ccmw5GNo.s:502    .text:0000000000000234 .LVL47
     /tmp/ccmw5GNo.s:506    .text:000000000000023c .LVL48
     /tmp/ccmw5GNo.s:510    .text:0000000000000244 .LVL49
     /tmp/ccmw5GNo.s:515    .text:0000000000000250 .LVL50
     /tmp/ccmw5GNo.s:554    .text:000000000000029c .LVL55
     /tmp/ccmw5GNo.s:558    .text:00000000000002a4 .LVL56
     /tmp/ccmw5GNo.s:4887   .debug_str:00000000000004d1 .LASF135
     /tmp/ccmw5GNo.s:4777   .debug_str:0000000000000243 .LASF136
     /tmp/ccmw5GNo.s:318    .text:0000000000000108 .LFB59
     /tmp/ccmw5GNo.s:432    .text:00000000000001c4 .LFE59
     /tmp/ccmw5GNo.s:4445   .debug_loc:000000000000016c .LLST9
     /tmp/ccmw5GNo.s:334    .text:000000000000011c .LBB15
     /tmp/ccmw5GNo.s:407    .text:000000000000019c .LBE15
     /tmp/ccmw5GNo.s:4459   .debug_loc:00000000000001a5 .LLST10
     /tmp/ccmw5GNo.s:4471   .debug_loc:00000000000001dc .LLST11
     /tmp/ccmw5GNo.s:4483   .debug_loc:0000000000000213 .LLST12
     /tmp/ccmw5GNo.s:397    .text:0000000000000194 .LVL34
     /tmp/ccmw5GNo.s:409    .text:000000000000019c .LBB22
     /tmp/ccmw5GNo.s:418    .text:00000000000001b0 .LBE22
     /tmp/ccmw5GNo.s:4490   .debug_loc:0000000000000236 .LLST13
     /tmp/ccmw5GNo.s:416    .text:00000000000001b0 .LVL36
     /tmp/ccmw5GNo.s:4885   .debug_str:00000000000004cb .LASF137
     /tmp/ccmw5GNo.s:4971   .debug_str:00000000000006ac .LASF138
     /tmp/ccmw5GNo.s:249    .text:00000000000000a4 .LFB58
GAS LISTING /tmp/ccmw5GNo.s 			page 26


     /tmp/ccmw5GNo.s:312    .text:0000000000000108 .LFE58
     /tmp/ccmw5GNo.s:4498   .debug_loc:0000000000000261 .LLST7
     /tmp/ccmw5GNo.s:266    .text:00000000000000b8 .LBB14
     /tmp/ccmw5GNo.s:298    .text:00000000000000f4 .LBE14
     /tmp/ccmw5GNo.s:4512   .debug_loc:000000000000029a .LLST8
     /tmp/ccmw5GNo.s:275    .text:00000000000000c8 .LVL23
     /tmp/ccmw5GNo.s:280    .text:00000000000000d0 .LVL24
     /tmp/ccmw5GNo.s:292    .text:00000000000000e8 .LVL26
     /tmp/ccmw5GNo.s:4705   .debug_str:0000000000000070 .LASF139
     /tmp/ccmw5GNo.s:4939   .debug_str:00000000000005fd .LASF140
     /tmp/ccmw5GNo.s:181    .text:0000000000000044 .LFB57
     /tmp/ccmw5GNo.s:243    .text:00000000000000a4 .LFE57
     /tmp/ccmw5GNo.s:4524   .debug_loc:00000000000002d1 .LLST4
     /tmp/ccmw5GNo.s:4805   .debug_str:00000000000002c9 .LASF141
     /tmp/ccmw5GNo.s:4542   .debug_loc:000000000000031d .LLST5
     /tmp/ccmw5GNo.s:4558   .debug_loc:0000000000000367 .LLST6
     /tmp/ccmw5GNo.s:213    .text:0000000000000078 .LVL14
     /tmp/ccmw5GNo.s:218    .text:0000000000000084 .LVL15
     /tmp/ccmw5GNo.s:4963   .debug_str:000000000000068c .LASF142
     /tmp/ccmw5GNo.s:4737   .debug_str:000000000000014b .LASF143
     /tmp/ccmw5GNo.s:102    .text:0000000000000000 .LFB56
     /tmp/ccmw5GNo.s:143    .text:0000000000000044 .LFE56
     /tmp/ccmw5GNo.s:4576   .debug_loc:00000000000003b3 .LLST2
     /tmp/ccmw5GNo.s:125    .text:0000000000000024 .LVL7
     /tmp/ccmw5GNo.s:4935   .debug_str:00000000000005f0 .LASF145
     /tmp/ccmw5GNo.s:64     .text._ZN6Thread11threadEntryEPv:0000000000000000 .LFB15
     /tmp/ccmw5GNo.s:95     .text._ZN6Thread11threadEntryEPv:000000000000002c .LFE15
     /tmp/ccmw5GNo.s:4594   .debug_loc:00000000000003ff .LLST0
     /tmp/ccmw5GNo.s:4701   .debug_str:0000000000000054 .LASF144
     /tmp/ccmw5GNo.s:4608   .debug_loc:0000000000000438 .LLST1
     /tmp/ccmw5GNo.s:84     .text._ZN6Thread11threadEntryEPv:000000000000001c .LVL4
     /tmp/ccmw5GNo.s:39     .text._ZN6Thread3runEv:0000000000000000 .LFB14
     /tmp/ccmw5GNo.s:57     .text._ZN6Thread3runEv:0000000000000018 .LFE14
     /tmp/ccmw5GNo.s:4973   .debug_str:00000000000006b7 .LASF146
     /tmp/ccmw5GNo.s:4847   .debug_str:00000000000003f3 .LASF147
     /tmp/ccmw5GNo.s:150    .text._ZN6ThreadD0Ev:0000000000000000 .LFB6
     /tmp/ccmw5GNo.s:174    .text._ZN6ThreadD0Ev:0000000000000028 .LFE6
     /tmp/ccmw5GNo.s:4622   .debug_loc:0000000000000471 .LLST3
     /tmp/ccmw5GNo.s:164    .text._ZN6ThreadD0Ev:0000000000000018 .LVL10
     /tmp/ccmw5GNo.s:4757   .debug_str:00000000000001b1 .LASF148
     /tmp/ccmw5GNo.s:11     .text._ZN6ThreadD2Ev:0000000000000000 .LFB4
     /tmp/ccmw5GNo.s:30     .text._ZN6ThreadD2Ev:0000000000000018 .LFE4
     /tmp/ccmw5GNo.s:4891   .debug_str:00000000000004e2 .LASF191
     /tmp/ccmw5GNo.s:4839   .debug_str:00000000000003b8 .LASF149
     /tmp/ccmw5GNo.s:4711   .debug_str:0000000000000089 .LASF151
     /tmp/ccmw5GNo.s:4859   .debug_str:0000000000000437 .LASF150
     /tmp/ccmw5GNo.s:4957   .debug_str:0000000000000668 .LASF152
     /tmp/ccmw5GNo.s:4831   .debug_str:000000000000036d .LASF153
     /tmp/ccmw5GNo.s:4763   .debug_str:00000000000001d7 .LASF154
     /tmp/ccmw5GNo.s:4825   .debug_str:0000000000000336 .LASF155
     /tmp/ccmw5GNo.s:4947   .debug_str:0000000000000623 .LASF156
     /tmp/ccmw5GNo.s:4901   .debug_str:000000000000051e .LASF157
     /tmp/ccmw5GNo.s:4977   .debug_str:00000000000006c8 .LASF158
     /tmp/ccmw5GNo.s:4827   .debug_str:000000000000034c .LASF159
     /tmp/ccmw5GNo.s:4829   .debug_str:000000000000035f .LASF160
     /tmp/ccmw5GNo.s:4835   .debug_str:0000000000000391 .LASF161
     /tmp/ccmw5GNo.s:4871   .debug_str:000000000000047a .LASF162
GAS LISTING /tmp/ccmw5GNo.s 			page 27


     /tmp/ccmw5GNo.s:4803   .debug_str:00000000000002c3 .LASF163
     /tmp/ccmw5GNo.s:4927   .debug_str:00000000000005c6 .LASF164
     /tmp/ccmw5GNo.s:4903   .debug_str:0000000000000537 .LASF165
     /tmp/ccmw5GNo.s:4883   .debug_str:00000000000004c4 .LASF166
     /tmp/ccmw5GNo.s:5061   .debug_str:0000000000000935 .LASF167
     /tmp/ccmw5GNo.s:4841   .debug_str:00000000000003de .LASF168
     /tmp/ccmw5GNo.s:4943   .debug_str:0000000000000610 .LASF169
     /tmp/ccmw5GNo.s:4793   .debug_str:0000000000000294 .LASF170
     /tmp/ccmw5GNo.s:5055   .debug_str:0000000000000909 .LASF171
     /tmp/ccmw5GNo.s:4821   .debug_str:0000000000000326 .LASF172
     /tmp/ccmw5GNo.s:4761   .debug_str:00000000000001c6 .LASF173
     /tmp/ccmw5GNo.s:4723   .debug_str:00000000000000e4 .LASF174
     /tmp/ccmw5GNo.s:4773   .debug_str:0000000000000221 .LASF175
     /tmp/ccmw5GNo.s:4785   .debug_str:0000000000000271 .LASF176
     /tmp/ccmw5GNo.s:4837   .debug_str:00000000000003a8 .LASF177
     /tmp/ccmw5GNo.s:4815   .debug_str:00000000000002fd .LASF178
     /tmp/ccmw5GNo.s:4895   .debug_str:00000000000004ff .LASF179
     /tmp/ccmw5GNo.s:4897   .debug_str:0000000000000506 .LASF180
     /tmp/ccmw5GNo.s:462    .text:00000000000001e8 .LVL38
     /tmp/ccmw5GNo.s:469    .text:00000000000001f8 .LVL39
     /tmp/ccmw5GNo.s:473    .text:00000000000001fc .LVL40
     /tmp/ccmw5GNo.s:476    .text:0000000000000200 .LVL41
     /tmp/ccmw5GNo.s:486    .text:000000000000020c .LVL43
     /tmp/ccmw5GNo.s:482    .text:0000000000000208 .LVL42
     /tmp/ccmw5GNo.s:572    .text:00000000000002bc .LVL57
     /tmp/ccmw5GNo.s:528    .text:000000000000026c .LVL51
     /tmp/ccmw5GNo.s:534    .text:0000000000000270 .LVL52
     /tmp/ccmw5GNo.s:542    .text:0000000000000278 .LVL53
     /tmp/ccmw5GNo.s:321    .text:0000000000000108 .LVL28
     /tmp/ccmw5GNo.s:338    .text:0000000000000124 .LVL30
     /tmp/ccmw5GNo.s:333    .text:000000000000011c .LVL29
     /tmp/ccmw5GNo.s:427    .text:00000000000001bc .LVL37
     /tmp/ccmw5GNo.s:385    .text:0000000000000174 .LVL33
     /tmp/ccmw5GNo.s:403    .text:000000000000019c .LVL35
     /tmp/ccmw5GNo.s:369    .text:000000000000015c .LVL32
     /tmp/ccmw5GNo.s:252    .text:00000000000000a4 .LVL20
     /tmp/ccmw5GNo.s:270    .text:00000000000000c0 .LVL22
     /tmp/ccmw5GNo.s:264    .text:00000000000000b8 .LVL21
     /tmp/ccmw5GNo.s:307    .text:0000000000000100 .LVL27
     /tmp/ccmw5GNo.s:184    .text:0000000000000044 .LVL11
     /tmp/ccmw5GNo.s:203    .text:0000000000000064 .LVL13
     /tmp/ccmw5GNo.s:238    .text:000000000000009c .LVL19
     /tmp/ccmw5GNo.s:199    .text:0000000000000060 .LVL12
     /tmp/ccmw5GNo.s:222    .text:0000000000000088 .LVL16
     /tmp/ccmw5GNo.s:225    .text:000000000000008c .LVL17
     /tmp/ccmw5GNo.s:235    .text:0000000000000098 .LVL18
     /tmp/ccmw5GNo.s:106    .text:0000000000000000 .LVL5
     /tmp/ccmw5GNo.s:120    .text:000000000000001c .LVL6
     /tmp/ccmw5GNo.s:139    .text:0000000000000040 .LVL8
     /tmp/ccmw5GNo.s:67     .text._ZN6Thread11threadEntryEPv:0000000000000000 .LVL2
     /tmp/ccmw5GNo.s:77     .text._ZN6Thread11threadEntryEPv:0000000000000010 .LVL3
     /tmp/ccmw5GNo.s:153    .text._ZN6ThreadD0Ev:0000000000000000 .LVL9
     /tmp/ccmw5GNo.s:642    .debug_info:0000000000000000 .Ldebug_info0
     /tmp/ccmw5GNo.s:5      .text:0000000000000000 .Ltext0
     /tmp/ccmw5GNo.s:622    .text:00000000000002c8 .Letext0
     /tmp/ccmw5GNo.s:341    .text:0000000000000124 .LBB17
     /tmp/ccmw5GNo.s:381    .text:0000000000000170 .LBE17
GAS LISTING /tmp/ccmw5GNo.s 			page 28


     /tmp/ccmw5GNo.s:399    .text:0000000000000194 .LBB20
     /tmp/ccmw5GNo.s:405    .text:000000000000019c .LBE20
     /tmp/ccmw5GNo.s:342    .text:0000000000000124 .LBB18
     /tmp/ccmw5GNo.s:366    .text:0000000000000158 .LBE18
     /tmp/ccmw5GNo.s:375    .text:0000000000000168 .LBB19
     /tmp/ccmw5GNo.s:380    .text:0000000000000170 .LBE19
                           .group:0000000000000000 _ZN6ThreadD5Ev

UNDEFINED SYMBOLS
_Z15thread_dispatchv
_ZdlPv
_Z4putcc
_Z10time_sleepm
_Z11thread_exitv
_Z10sem_signalP5sem_s
HEAP_START_ADDR
HEAP_END_ADDR
_Z9kmem_initPvi
_Z13kern_mem_initPvS_
_Z16kern_thread_initv
_Z19kern_interrupt_initv
_Z13kern_sem_initv
_Z17kern_console_initv
_Znwm
_Z13thread_createPP8thread_sPFvPvES2_
_Z6printfPKcz
_Z8userMainv
