GAS LISTING /tmp/cc1O35bA.s 			page 1


   1              		.file	"main.cpp"
   2              		.option pic
   3              		.option norelax
   4              		.text
   5              	.Ltext0:
   6              		.section	.text._ZN6ThreadD2Ev,"axG",@progbits,_ZN6ThreadD5Ev,comdat
   7              		.align	2
   8              		.weak	_ZN6ThreadD2Ev
  10              	_ZN6ThreadD2Ev:
  11              	.LFB4:
  12              		.file 1 "src/../h/syscall_cpp.hpp"
   1:src/../h/syscall_cpp.hpp **** //
   2:src/../h/syscall_cpp.hpp **** // Created by os on 6/5/23.
   3:src/../h/syscall_cpp.hpp **** //
   4:src/../h/syscall_cpp.hpp **** 
   5:src/../h/syscall_cpp.hpp **** #ifndef OS1_SYSCALL_CPP_HPP
   6:src/../h/syscall_cpp.hpp **** #define OS1_SYSCALL_CPP_HPP
   7:src/../h/syscall_cpp.hpp **** #ifndef _syscall_cpp
   8:src/../h/syscall_cpp.hpp **** #define _syscall_cpp
   9:src/../h/syscall_cpp.hpp **** 
  10:src/../h/syscall_cpp.hpp **** #include "syscall_c.h"
  11:src/../h/syscall_cpp.hpp **** #include "kern_semaphore.hpp"
  12:src/../h/syscall_cpp.hpp **** #include "kern_threads.hpp"
  13:src/../h/syscall_cpp.hpp **** #include "kern_memory.hpp"
  14:src/../h/syscall_cpp.hpp **** #include "syscall_c.h"
  15:src/../h/syscall_cpp.hpp **** #include "../lib/console.h"
  16:src/../h/syscall_cpp.hpp **** 
  17:src/../h/syscall_cpp.hpp **** 
  18:src/../h/syscall_cpp.hpp **** void* operator new(size_t size);
  19:src/../h/syscall_cpp.hpp **** void operator delete(void* ptr);
  20:src/../h/syscall_cpp.hpp **** 
  21:src/../h/syscall_cpp.hpp **** class Thread {
  22:src/../h/syscall_cpp.hpp ****         public:
  23:src/../h/syscall_cpp.hpp ****         Thread (void (*body)(void*), void* arg)
  24:src/../h/syscall_cpp.hpp ****         {
  25:src/../h/syscall_cpp.hpp ****             this->body=body;
  26:src/../h/syscall_cpp.hpp ****             this->arg=arg;
  27:src/../h/syscall_cpp.hpp ****         }
  28:src/../h/syscall_cpp.hpp ****         virtual ~Thread (){
  13              		.loc 1 28 17
  14              		.cfi_startproc
  15              	.LVL0:
  16 0000 130101FF 		addi	sp,sp,-16
  17              		.cfi_def_cfa_offset 16
  18 0004 23348100 		sd	s0,8(sp)
  19              		.cfi_offset 8, -8
  20 0008 13040101 		addi	s0,sp,16
  21              		.cfi_def_cfa 8, 0
  29:src/../h/syscall_cpp.hpp ****         }
  22              		.loc 1 29 9 is_stmt 0
  23 000c 03348100 		ld	s0,8(sp)
  24              		.cfi_restore 8
  25              		.cfi_def_cfa 2, 16
  26 0010 13010101 		addi	sp,sp,16
  27              		.cfi_def_cfa_offset 0
  28 0014 67800000 		jr	ra
  29              		.cfi_endproc
GAS LISTING /tmp/cc1O35bA.s 			page 2


  30              	.LFE4:
  32              		.weak	_ZN6ThreadD1Ev
  33              		.set	_ZN6ThreadD1Ev,_ZN6ThreadD2Ev
  34              		.section	.text._ZN6Thread3runEv,"axG",@progbits,_ZN6Thread3runEv,comdat
  35              		.align	2
  36              		.weak	_ZN6Thread3runEv
  38              	_ZN6Thread3runEv:
  39              	.LFB14:
  30:src/../h/syscall_cpp.hpp ****         int start (){
  31:src/../h/syscall_cpp.hpp ****             if(body== nullptr) return thread_create(&myHandle,&threadEntry, this);
  32:src/../h/syscall_cpp.hpp ****             else return thread_create(&myHandle,body,arg);
  33:src/../h/syscall_cpp.hpp ****         }
  34:src/../h/syscall_cpp.hpp ****         void join(){
  35:src/../h/syscall_cpp.hpp ****             thread_join(myHandle);
  36:src/../h/syscall_cpp.hpp ****         }
  37:src/../h/syscall_cpp.hpp ****         static void dispatch (){
  38:src/../h/syscall_cpp.hpp ****             thread_dispatch();
  39:src/../h/syscall_cpp.hpp ****         }
  40:src/../h/syscall_cpp.hpp ****         static int sleep (uint64 time){
  41:src/../h/syscall_cpp.hpp ****             return time_sleep(time);
  42:src/../h/syscall_cpp.hpp ****         }
  43:src/../h/syscall_cpp.hpp ****         protected:
  44:src/../h/syscall_cpp.hpp ****         Thread (){
  45:src/../h/syscall_cpp.hpp ****             body= nullptr;
  46:src/../h/syscall_cpp.hpp ****             arg= nullptr;
  47:src/../h/syscall_cpp.hpp ****         }
  48:src/../h/syscall_cpp.hpp ****         virtual void run () {}
  40              		.loc 1 48 22 is_stmt 1
  41              		.cfi_startproc
  42              	.LVL1:
  43 0000 130101FF 		addi	sp,sp,-16
  44              		.cfi_def_cfa_offset 16
  45 0004 23348100 		sd	s0,8(sp)
  46              		.cfi_offset 8, -8
  47 0008 13040101 		addi	s0,sp,16
  48              		.cfi_def_cfa 8, 0
  49              		.loc 1 48 30 is_stmt 0
  50 000c 03348100 		ld	s0,8(sp)
  51              		.cfi_restore 8
  52              		.cfi_def_cfa 2, 16
  53 0010 13010101 		addi	sp,sp,16
  54              		.cfi_def_cfa_offset 0
  55 0014 67800000 		jr	ra
  56              		.cfi_endproc
  57              	.LFE14:
  59              		.section	.text._ZN6Thread11threadEntryEPv,"axG",@progbits,_ZN6Thread11threadEntryEPv,comdat
  60              		.align	2
  61              		.weak	_ZN6Thread11threadEntryEPv
  63              	_ZN6Thread11threadEntryEPv:
  64              	.LFB15:
  49:src/../h/syscall_cpp.hpp **** 
  50:src/../h/syscall_cpp.hpp ****         static void threadEntry(void* arg){
  65              		.loc 1 50 21 is_stmt 1
  66              		.cfi_startproc
  67              	.LVL2:
  68 0000 130101FF 		addi	sp,sp,-16
  69              		.cfi_def_cfa_offset 16
GAS LISTING /tmp/cc1O35bA.s 			page 3


  70 0004 23341100 		sd	ra,8(sp)
  71 0008 23308100 		sd	s0,0(sp)
  72              		.cfi_offset 1, -8
  73              		.cfi_offset 8, -16
  74 000c 13040101 		addi	s0,sp,16
  75              		.cfi_def_cfa 8, 0
  51:src/../h/syscall_cpp.hpp ****             Thread* self = static_cast<Thread*>(arg);
  76              		.loc 1 51 13
  77              	.LVL3:
  52:src/../h/syscall_cpp.hpp ****             self->run();
  78              		.loc 1 52 13
  79              		.loc 1 52 23 is_stmt 0
  80 0010 83370500 		ld	a5,0(a0)
  81 0014 83B70701 		ld	a5,16(a5)
  82              		.loc 1 52 22
  83 0018 E7800700 		jalr	a5
  84              	.LVL4:
  53:src/../h/syscall_cpp.hpp ****         }
  85              		.loc 1 53 9
  86 001c 83308100 		ld	ra,8(sp)
  87              		.cfi_restore 1
  88 0020 03340100 		ld	s0,0(sp)
  89              		.cfi_restore 8
  90              		.cfi_def_cfa 2, 16
  91 0024 13010101 		addi	sp,sp,16
  92              		.cfi_def_cfa_offset 0
  93 0028 67800000 		jr	ra
  94              		.cfi_endproc
  95              	.LFE15:
  97              		.text
  98              		.align	2
  99              		.globl	_Z8bodyIdlePv
 101              	_Z8bodyIdlePv:
 102              	.LFB33:
 103              		.file 2 "src/main.cpp"
   1:src/main.cpp  **** //
   2:src/main.cpp  **** // Created by os on 5/18/23.
   3:src/main.cpp  **** //
   4:src/main.cpp  **** #include "../lib/console.h"
   5:src/main.cpp  **** #include "../h/syscall_cpp.hpp"
   6:src/main.cpp  **** #include "../h/syscall_c.h"
   7:src/main.cpp  **** #include "../lib/hw.h"
   8:src/main.cpp  **** 
   9:src/main.cpp  **** #include "../h/kern_threads.hpp"
  10:src/main.cpp  **** #include "../h/kern_memory.hpp"
  11:src/main.cpp  **** #include "../h/kern_interrupts.hpp"
  12:src/main.cpp  **** #include "../h/kern_semaphore.hpp"
  13:src/main.cpp  **** #include "../h/kern_console.hpp"
  14:src/main.cpp  **** #include "../h/printing.hpp"
  15:src/main.cpp  **** #include "../h/kern_buddyAllocator.hpp"
  16:src/main.cpp  **** 
  17:src/main.cpp  **** Semaphore* semTest;
  18:src/main.cpp  **** 
  19:src/main.cpp  **** int idleAlive=1;
  20:src/main.cpp  **** void bodyIdle(void* arg){
 104              		.loc 2 20 25 is_stmt 1
 105              		.cfi_startproc
GAS LISTING /tmp/cc1O35bA.s 			page 4


 106              	.LVL5:
  21:src/main.cpp  ****     while(idleAlive){
 107              		.loc 2 21 5
 108              		.loc 2 21 11
 109 0000 97070000 		lw	a5,.LANCHOR0
 109      83A70700 
 110 0008 638C0702 		beqz	a5,.L15
  20:src/main.cpp  ****     while(idleAlive){
 111              		.loc 2 20 25 is_stmt 0
 112 000c 130101FF 		addi	sp,sp,-16
 113              		.cfi_def_cfa_offset 16
 114 0010 23341100 		sd	ra,8(sp)
 115 0014 23308100 		sd	s0,0(sp)
 116              		.cfi_offset 1, -8
 117              		.cfi_offset 8, -16
 118 0018 13040101 		addi	s0,sp,16
 119              		.cfi_def_cfa 8, 0
 120              	.LVL6:
 121              	.L12:
  22:src/main.cpp  ****         thread_dispatch();
 122              		.loc 2 22 9 is_stmt 1
 123              		.loc 2 22 24 is_stmt 0
 124 001c 97000000 		call	_Z15thread_dispatchv@plt
 124      E7800000 
 125              	.LVL7:
  21:src/main.cpp  ****     while(idleAlive){
 126              		.loc 2 21 5 is_stmt 1
  21:src/main.cpp  ****     while(idleAlive){
 127              		.loc 2 21 11
 128 0024 97070000 		lw	a5,.LANCHOR0
 128      83A70700 
 129 002c E39807FE 		bnez	a5,.L12
  23:src/main.cpp  ****     };
  24:src/main.cpp  **** }
 130              		.loc 2 24 1 is_stmt 0
 131 0030 83308100 		ld	ra,8(sp)
 132              		.cfi_restore 1
 133 0034 03340100 		ld	s0,0(sp)
 134              		.cfi_restore 8
 135              		.cfi_def_cfa 2, 16
 136 0038 13010101 		addi	sp,sp,16
 137              		.cfi_def_cfa_offset 0
 138 003c 67800000 		jr	ra
 139              	.LVL8:
 140              	.L15:
 141 0040 67800000 		ret
 142              		.cfi_endproc
 143              	.LFE33:
 145              		.section	.text._ZN6ThreadD0Ev,"axG",@progbits,_ZN6ThreadD5Ev,comdat
 146              		.align	2
 147              		.weak	_ZN6ThreadD0Ev
 149              	_ZN6ThreadD0Ev:
 150              	.LFB6:
  28:src/../h/syscall_cpp.hpp ****         }
 151              		.loc 1 28 17 is_stmt 1
 152              		.cfi_startproc
 153              	.LVL9:
GAS LISTING /tmp/cc1O35bA.s 			page 5


 154 0000 130101FF 		addi	sp,sp,-16
 155              		.cfi_def_cfa_offset 16
 156 0004 23341100 		sd	ra,8(sp)
 157 0008 23308100 		sd	s0,0(sp)
 158              		.cfi_offset 1, -8
 159              		.cfi_offset 8, -16
 160 000c 13040101 		addi	s0,sp,16
 161              		.cfi_def_cfa 8, 0
  29:src/../h/syscall_cpp.hpp ****         int start (){
 162              		.loc 1 29 9 is_stmt 0
 163 0010 97000000 		call	_ZdlPv@plt
 163      E7800000 
 164              	.LVL10:
 165 0018 83308100 		ld	ra,8(sp)
 166              		.cfi_restore 1
 167 001c 03340100 		ld	s0,0(sp)
 168              		.cfi_restore 8
 169              		.cfi_def_cfa 2, 16
 170 0020 13010101 		addi	sp,sp,16
 171              		.cfi_def_cfa_offset 0
 172 0024 67800000 		jr	ra
 173              		.cfi_endproc
 174              	.LFE6:
 176              		.text
 177              		.align	2
 178              		.globl	_Z5bodyCPv
 180              	_Z5bodyCPv:
 181              	.LFB34:
  25:src/main.cpp  **** 
  26:src/main.cpp  **** void bodyC(void* arg)
  27:src/main.cpp  **** {
 182              		.loc 2 27 1 is_stmt 1
 183              		.cfi_startproc
 184              	.LVL11:
 185 0044 130101FE 		addi	sp,sp,-32
 186              		.cfi_def_cfa_offset 32
 187 0048 233C1100 		sd	ra,24(sp)
 188 004c 23388100 		sd	s0,16(sp)
 189 0050 23349100 		sd	s1,8(sp)
 190 0054 23302101 		sd	s2,0(sp)
 191              		.cfi_offset 1, -8
 192              		.cfi_offset 8, -16
 193              		.cfi_offset 9, -24
 194              		.cfi_offset 18, -32
 195 0058 13040102 		addi	s0,sp,32
 196              		.cfi_def_cfa 8, 0
 197 005c 13090500 		mv	s2,a0
  28:src/main.cpp  ****     int counter=0;
 198              		.loc 2 28 5
 199              	.LVL12:
  29:src/main.cpp  ****     char*c = (char*)arg;
 200              		.loc 2 29 5
  28:src/main.cpp  ****     int counter=0;
 201              		.loc 2 28 9 is_stmt 0
 202 0060 93040000 		li	s1,0
 203              	.LVL13:
 204              	.L20:
GAS LISTING /tmp/cc1O35bA.s 			page 6


  30:src/main.cpp  ****     while(counter<10){
 205              		.loc 2 30 5 is_stmt 1
 206              		.loc 2 30 18
 207 0064 93079000 		li	a5,9
 208 0068 63C29702 		bgt	s1,a5,.L18
  31:src/main.cpp  ****         //if(++counter>5) delete semTest;
  32:src/main.cpp  ****         putc(*c);
 209              		.loc 2 32 9
 210              		.loc 2 32 13 is_stmt 0
 211 006c 03450900 		lbu	a0,0(s2)
 212 0070 97000000 		call	_Z4putcc@plt
 212      E7800000 
 213              	.LVL14:
  33:src/main.cpp  ****         time_sleep(1);
 214              		.loc 2 33 9 is_stmt 1
 215              		.loc 2 33 19 is_stmt 0
 216 0078 13051000 		li	a0,1
 217 007c 97000000 		call	_Z10time_sleepm@plt
 217      E7800000 
 218              	.LVL15:
  34:src/main.cpp  ****         counter++;
 219              		.loc 2 34 9 is_stmt 1
 220              		.loc 2 34 16 is_stmt 0
 221 0084 9B841400 		addiw	s1,s1,1
 222              	.LVL16:
  30:src/main.cpp  ****         //if(++counter>5) delete semTest;
 223              		.loc 2 30 5
 224 0088 6FF0DFFD 		j	.L20
 225              	.LVL17:
 226              	.L18:
  35:src/main.cpp  ****     }
  36:src/main.cpp  ****     counter++;
  37:src/main.cpp  ****     //thread_exit();
  38:src/main.cpp  **** }
 227              		.loc 2 38 1
 228 008c 83308101 		ld	ra,24(sp)
 229              		.cfi_restore 1
 230 0090 03340101 		ld	s0,16(sp)
 231              		.cfi_restore 8
 232              		.cfi_def_cfa 2, 32
 233 0094 83348100 		ld	s1,8(sp)
 234              		.cfi_restore 9
 235              	.LVL18:
 236 0098 03390100 		ld	s2,0(sp)
 237              		.cfi_restore 18
 238              	.LVL19:
 239 009c 13010102 		addi	sp,sp,32
 240              		.cfi_def_cfa_offset 0
 241 00a0 67800000 		jr	ra
 242              		.cfi_endproc
 243              	.LFE34:
 245              		.align	2
 246              		.globl	_Z5bodyAPv
 248              	_Z5bodyAPv:
 249              	.LFB35:
  39:src/main.cpp  **** 
  40:src/main.cpp  **** void bodyA(void* arg)
GAS LISTING /tmp/cc1O35bA.s 			page 7


  41:src/main.cpp  **** {
 250              		.loc 2 41 1 is_stmt 1
 251              		.cfi_startproc
 252              	.LVL20:
 253 00a4 130101FE 		addi	sp,sp,-32
 254              		.cfi_def_cfa_offset 32
 255 00a8 233C1100 		sd	ra,24(sp)
 256 00ac 23388100 		sd	s0,16(sp)
 257 00b0 23349100 		sd	s1,8(sp)
 258              		.cfi_offset 1, -8
 259              		.cfi_offset 8, -16
 260              		.cfi_offset 9, -24
 261 00b4 13040102 		addi	s0,sp,32
 262              		.cfi_def_cfa 8, 0
  42:src/main.cpp  ****     char c = 'a';
 263              		.loc 2 42 5
 264              	.LVL21:
  43:src/main.cpp  ****     //if(semTest->wait()) c='A';
  44:src/main.cpp  ****     for(int i=0;i<10;i++){
 265              		.loc 2 44 5
 266              	.LBB14:
 267              		.loc 2 44 13 is_stmt 0
 268 00b8 93040000 		li	s1,0
 269 00bc 6F008001 		j	.L25
 270              	.LVL22:
 271              	.L27:
  45:src/main.cpp  ****         putc(c);
  46:src/main.cpp  ****         if(i==5) thread_exit();
 272              		.loc 2 46 18 is_stmt 1 discriminator 1
 273              		.loc 2 46 29 is_stmt 0 discriminator 1
 274 00c0 97000000 		call	_Z11thread_exitv@plt
 274      E7800000 
 275              	.LVL23:
 276              	.L24:
  47:src/main.cpp  ****         thread_dispatch();
 277              		.loc 2 47 9 is_stmt 1 discriminator 2
 278              		.loc 2 47 24 is_stmt 0 discriminator 2
 279 00c8 97000000 		call	_Z15thread_dispatchv@plt
 279      E7800000 
 280              	.LVL24:
  44:src/main.cpp  ****         putc(c);
 281              		.loc 2 44 5 is_stmt 1 discriminator 2
 282 00d0 9B841400 		addiw	s1,s1,1
 283              	.LVL25:
 284              	.L25:
  44:src/main.cpp  ****         putc(c);
 285              		.loc 2 44 18 discriminator 1
 286 00d4 93079000 		li	a5,9
 287 00d8 63CE9700 		bgt	s1,a5,.L22
  45:src/main.cpp  ****         putc(c);
 288              		.loc 2 45 9
  45:src/main.cpp  ****         putc(c);
 289              		.loc 2 45 13 is_stmt 0
 290 00dc 13051006 		li	a0,97
 291 00e0 97000000 		call	_Z4putcc@plt
 291      E7800000 
 292              	.LVL26:
GAS LISTING /tmp/cc1O35bA.s 			page 8


  46:src/main.cpp  ****         thread_dispatch();
 293              		.loc 2 46 9 is_stmt 1
 294 00e8 93075000 		li	a5,5
 295 00ec E39EF4FC 		bne	s1,a5,.L24
 296 00f0 6FF01FFD 		j	.L27
 297              	.L22:
 298              	.LBE14:
  48:src/main.cpp  ****     }
  49:src/main.cpp  **** }
 299              		.loc 2 49 1 is_stmt 0
 300 00f4 83308101 		ld	ra,24(sp)
 301              		.cfi_restore 1
 302 00f8 03340101 		ld	s0,16(sp)
 303              		.cfi_restore 8
 304              		.cfi_def_cfa 2, 32
 305 00fc 83348100 		ld	s1,8(sp)
 306              		.cfi_restore 9
 307              	.LVL27:
 308 0100 13010102 		addi	sp,sp,32
 309              		.cfi_def_cfa_offset 0
 310 0104 67800000 		jr	ra
 311              		.cfi_endproc
 312              	.LFE35:
 314              		.align	2
 315              		.globl	_Z5bodyBPv
 317              	_Z5bodyBPv:
 318              	.LFB36:
  50:src/main.cpp  **** 
  51:src/main.cpp  **** int g=0;
  52:src/main.cpp  **** 
  53:src/main.cpp  **** char str[15] = "tesa legenda";
  54:src/main.cpp  **** void bodyB(void* arg)
  55:src/main.cpp  **** {
 319              		.loc 2 55 1 is_stmt 1
 320              		.cfi_startproc
 321              	.LVL28:
 322 0108 130101FE 		addi	sp,sp,-32
 323              		.cfi_def_cfa_offset 32
 324 010c 233C1100 		sd	ra,24(sp)
 325 0110 23388100 		sd	s0,16(sp)
 326 0114 23349100 		sd	s1,8(sp)
 327              		.cfi_offset 1, -8
 328              		.cfi_offset 8, -16
 329              		.cfi_offset 9, -24
 330 0118 13040102 		addi	s0,sp,32
 331              		.cfi_def_cfa 8, 0
  56:src/main.cpp  **** 
  57:src/main.cpp  ****     //time_sleep(10);
  58:src/main.cpp  ****     for(int i=0;i<10;i++){
 332              		.loc 2 58 5
 333              	.LVL29:
 334              	.LBB15:
 335              		.loc 2 58 13 is_stmt 0
 336 011c 93040000 		li	s1,0
 337 0120 6F004005 		j	.L35
 338              	.LVL30:
 339              	.L32:
GAS LISTING /tmp/cc1O35bA.s 			page 9


 340              	.LBB16:
 341              	.LBB17:
 342              	.LBB18:
  59:src/main.cpp  ****         putc(str[i]);
  60:src/main.cpp  ****         for(int k=0;k<10000;k++){
  61:src/main.cpp  ****             for(int m=0;m<1000;m++){
 343              		.loc 2 61 13 is_stmt 1 discriminator 2
 344 0124 1B071700 		addiw	a4,a4,1
 345              	.LVL31:
 346              	.L33:
 347              		.loc 2 61 26 discriminator 1
 348 0128 9307703E 		li	a5,999
 349 012c 63C6E702 		bgt	a4,a5,.L31
  62:src/main.cpp  ****                 if((m*k)%1337==0) g++;
 350              		.loc 2 62 17
 351              		.loc 2 62 22 is_stmt 0
 352 0130 BB07E602 		mulw	a5,a2,a4
 353              		.loc 2 62 25
 354 0134 93069053 		li	a3,1337
 355 0138 BBE7D702 		remw	a5,a5,a3
 356              		.loc 2 62 17
 357 013c E39407FE 		bnez	a5,.L32
 358              		.loc 2 62 35 is_stmt 1 discriminator 1
 359              		.loc 2 62 36 is_stmt 0 discriminator 1
 360 0140 97060000 		lla	a3,.LANCHOR1
 360      93860600 
 361 0148 83A70600 		lw	a5,0(a3)
 362 014c 9B871700 		addiw	a5,a5,1
 363 0150 23A0F600 		sw	a5,0(a3)
 364 0154 6FF01FFD 		j	.L32
 365              	.L31:
 366              	.LBE18:
  60:src/main.cpp  ****             for(int m=0;m<1000;m++){
 367              		.loc 2 60 9 is_stmt 1 discriminator 2
 368 0158 1B061600 		addiw	a2,a2,1
 369              	.LVL32:
 370              	.L34:
  60:src/main.cpp  ****             for(int m=0;m<1000;m++){
 371              		.loc 2 60 22 discriminator 1
 372 015c B7270000 		li	a5,8192
 373 0160 9387F770 		addi	a5,a5,1807
 374 0164 63C6C700 		bgt	a2,a5,.L30
 375              	.LBB19:
  61:src/main.cpp  ****                 if((m*k)%1337==0) g++;
 376              		.loc 2 61 21 is_stmt 0
 377 0168 13070000 		li	a4,0
 378 016c 6FF0DFFB 		j	.L33
 379              	.L30:
 380              	.LBE19:
 381              	.LBE17:
 382              	.LBE16:
  58:src/main.cpp  ****         putc(str[i]);
 383              		.loc 2 58 5 is_stmt 1 discriminator 2
 384 0170 9B841400 		addiw	s1,s1,1
 385              	.LVL33:
 386              	.L35:
  58:src/main.cpp  ****         putc(str[i]);
GAS LISTING /tmp/cc1O35bA.s 			page 10


 387              		.loc 2 58 18 discriminator 1
 388 0174 93079000 		li	a5,9
 389 0178 63C29702 		bgt	s1,a5,.L29
 390              	.LBB21:
  59:src/main.cpp  ****         for(int k=0;k<10000;k++){
 391              		.loc 2 59 9
  59:src/main.cpp  ****         for(int k=0;k<10000;k++){
 392              		.loc 2 59 13 is_stmt 0
 393 017c 97070000 		lla	a5,.LANCHOR0
 393      93870700 
 394 0184 B3879700 		add	a5,a5,s1
 395 0188 03C58700 		lbu	a0,8(a5)
 396 018c 97000000 		call	_Z4putcc@plt
 396      E7800000 
 397              	.LVL34:
  60:src/main.cpp  ****             for(int m=0;m<1000;m++){
 398              		.loc 2 60 9 is_stmt 1
 399              	.LBB20:
  60:src/main.cpp  ****             for(int m=0;m<1000;m++){
 400              		.loc 2 60 17 is_stmt 0
 401 0194 13060000 		li	a2,0
 402 0198 6FF05FFC 		j	.L34
 403              	.LVL35:
 404              	.L29:
 405              	.LBE20:
 406              	.LBE21:
 407              	.LBE15:
  63:src/main.cpp  ****             }
  64:src/main.cpp  ****         }
  65:src/main.cpp  ****     }
  66:src/main.cpp  ****     semTest->signal();
 408              		.loc 2 66 5 is_stmt 1
 409              	.LBB22:
 410              	.LBB23:
  54:src/../h/syscall_cpp.hpp ****         private:
  55:src/../h/syscall_cpp.hpp ****         thread_t myHandle;
  56:src/../h/syscall_cpp.hpp ****         void (*body)(void*); void* arg;
  57:src/../h/syscall_cpp.hpp **** };
  58:src/../h/syscall_cpp.hpp **** 
  59:src/../h/syscall_cpp.hpp **** class PeriodicThread : public Thread {
  60:src/../h/syscall_cpp.hpp **** public:
  61:src/../h/syscall_cpp.hpp ****     void terminate (){
  62:src/../h/syscall_cpp.hpp ****         isThisPeriodicThreadTereminated=1;
  63:src/../h/syscall_cpp.hpp ****     }
  64:src/../h/syscall_cpp.hpp **** 
  65:src/../h/syscall_cpp.hpp **** protected:
  66:src/../h/syscall_cpp.hpp ****     PeriodicThread (uint64 period) {
  67:src/../h/syscall_cpp.hpp ****         this->period=period;
  68:src/../h/syscall_cpp.hpp ****         this->isThisPeriodicThreadTereminated=0;
  69:src/../h/syscall_cpp.hpp ****     }
  70:src/../h/syscall_cpp.hpp ****     virtual void periodicActivation () {}
  71:src/../h/syscall_cpp.hpp ****     void run() override {
  72:src/../h/syscall_cpp.hpp ****         while (isThisPeriodicThreadTereminated==0){
  73:src/../h/syscall_cpp.hpp ****             periodicActivation();
  74:src/../h/syscall_cpp.hpp ****             sleep(period);
  75:src/../h/syscall_cpp.hpp ****         }
  76:src/../h/syscall_cpp.hpp ****     }
GAS LISTING /tmp/cc1O35bA.s 			page 11


  77:src/../h/syscall_cpp.hpp **** private:
  78:src/../h/syscall_cpp.hpp ****     int isThisPeriodicThreadTereminated;
  79:src/../h/syscall_cpp.hpp ****     uint64 period;
  80:src/../h/syscall_cpp.hpp **** };
  81:src/../h/syscall_cpp.hpp **** 
  82:src/../h/syscall_cpp.hpp **** 
  83:src/../h/syscall_cpp.hpp **** class Semaphore {
  84:src/../h/syscall_cpp.hpp ****         public:
  85:src/../h/syscall_cpp.hpp ****         Semaphore (unsigned init = 1){
  86:src/../h/syscall_cpp.hpp ****             sem_open(&myHandle,init);
  87:src/../h/syscall_cpp.hpp ****         }
  88:src/../h/syscall_cpp.hpp ****         virtual ~Semaphore (){
  89:src/../h/syscall_cpp.hpp ****             sem_close(myHandle);
  90:src/../h/syscall_cpp.hpp ****         }
  91:src/../h/syscall_cpp.hpp ****         int wait (){
  92:src/../h/syscall_cpp.hpp ****             return sem_wait(myHandle);
  93:src/../h/syscall_cpp.hpp ****         }
  94:src/../h/syscall_cpp.hpp ****         int signal (){
  95:src/../h/syscall_cpp.hpp ****             return sem_signal(myHandle);
 411              		.loc 1 95 13
 412              		.loc 1 95 30 is_stmt 0
 413 019c 97070000 		ld	a5,.LANCHOR1+8
 413      83B70700 
 414 01a4 03B58700 		ld	a0,8(a5)
 415 01a8 97000000 		call	_Z10sem_signalP5sem_s@plt
 415      E7800000 
 416              	.LVL36:
 417              	.LBE23:
 418              	.LBE22:
  67:src/main.cpp  **** }
 419              		.loc 2 67 1
 420 01b0 83308101 		ld	ra,24(sp)
 421              		.cfi_restore 1
 422 01b4 03340101 		ld	s0,16(sp)
 423              		.cfi_restore 8
 424              		.cfi_def_cfa 2, 32
 425 01b8 83348100 		ld	s1,8(sp)
 426              		.cfi_restore 9
 427              	.LVL37:
 428 01bc 13010102 		addi	sp,sp,32
 429              		.cfi_def_cfa_offset 0
 430 01c0 67800000 		jr	ra
 431              		.cfi_endproc
 432              	.LFE36:
 434              		.section	.rodata.str1.8,"aMS",@progbits,1
 435              		.align	3
 436              	.LC0:
 437 0000 5072696E 		.string	"Printf proba %d valjda radi %x, %p\n"
 437      74662070 
 437      726F6261 
 437      20256420 
 437      76616C6A 
 438              		.text
 439              		.align	2
 440              		.globl	main
 442              	main:
 443              	.LFB45:
GAS LISTING /tmp/cc1O35bA.s 			page 12


  68:src/main.cpp  **** 
  69:src/main.cpp  **** extern void userMain();
  70:src/main.cpp  **** 
  71:src/main.cpp  **** class PeriodicTest : public PeriodicThread {
  72:src/main.cpp  **** public:
  73:src/main.cpp  ****     PeriodicTest(uint64 period, char c) : PeriodicThread(period){
  74:src/main.cpp  ****         this->c = c;
  75:src/main.cpp  ****     }
  76:src/main.cpp  **** protected:
  77:src/main.cpp  ****     char c;
  78:src/main.cpp  ****     void periodicActivation() override {
  79:src/main.cpp  ****         putc(c++);
  80:src/main.cpp  ****     }
  81:src/main.cpp  **** };
  82:src/main.cpp  **** 
  83:src/main.cpp  **** int main()
  84:src/main.cpp  **** {
 444              		.loc 2 84 1 is_stmt 1
 445              		.cfi_startproc
 446 01c4 130101FE 		addi	sp,sp,-32
 447              		.cfi_def_cfa_offset 32
 448 01c8 233C1100 		sd	ra,24(sp)
 449 01cc 23388100 		sd	s0,16(sp)
 450              		.cfi_offset 1, -8
 451              		.cfi_offset 8, -16
 452 01d0 13040102 		addi	s0,sp,32
 453              		.cfi_def_cfa 8, 0
  85:src/main.cpp  ****     kern_thread_init();
 454              		.loc 2 85 5
 455              		.loc 2 85 21 is_stmt 0
 456 01d4 97000000 		call	_Z16kern_thread_initv@plt
 456      E7800000 
 457              	.LVL38:
  86:src/main.cpp  **** 
  87:src/main.cpp  ****     kern_mem_init((void*)HEAP_START_ADDR, (void*)HEAP_END_ADDR);
 458              		.loc 2 87 5 is_stmt 1
 459              		.loc 2 87 18 is_stmt 0
 460 01dc 97070000 		la	a5,HEAP_END_ADDR
 460      83B70700 
 461 01e4 83B50700 		ld	a1,0(a5)
 462 01e8 97070000 		la	a5,HEAP_START_ADDR
 462      83B70700 
 463 01f0 03B50700 		ld	a0,0(a5)
 464 01f4 97000000 		call	_Z13kern_mem_initPvS_@plt
 464      E7800000 
 465              	.LVL39:
  88:src/main.cpp  ****     kern_interrupt_init();
 466              		.loc 2 88 5 is_stmt 1
 467              		.loc 2 88 24 is_stmt 0
 468 01fc 97000000 		call	_Z19kern_interrupt_initv@plt
 468      E7800000 
 469              	.LVL40:
  89:src/main.cpp  ****     kern_sem_init();
 470              		.loc 2 89 5 is_stmt 1
 471              		.loc 2 89 18 is_stmt 0
 472 0204 97000000 		call	_Z13kern_sem_initv@plt
 472      E7800000 
GAS LISTING /tmp/cc1O35bA.s 			page 13


 473              	.LVL41:
  90:src/main.cpp  ****     kern_console_init();
 474              		.loc 2 90 5 is_stmt 1
 475              		.loc 2 90 22 is_stmt 0
 476 020c 97000000 		call	_Z17kern_console_initv@plt
 476      E7800000 
 477              	.LVL42:
  91:src/main.cpp  **** 
  92:src/main.cpp  ****     Thread* thrIdle = new Thread(&bodyIdle,0);
 478              		.loc 2 92 5 is_stmt 1
 479              		.loc 2 92 45 is_stmt 0
 480 0214 13050002 		li	a0,32
 481 0218 97000000 		call	_Znwm@plt
 481      E7800000 
 482              	.LVL43:
 483              	.LBB29:
 484              	.LBB30:
  24:src/../h/syscall_cpp.hpp ****             this->body=body;
 485              		.loc 1 24 9
 486 0220 97070000 		lla	a5,_ZTV6Thread+16
 486      93870700 
 487 0228 2330F500 		sd	a5,0(a0)
  25:src/../h/syscall_cpp.hpp ****             this->arg=arg;
 488              		.loc 1 25 13 is_stmt 1
  25:src/../h/syscall_cpp.hpp ****             this->arg=arg;
 489              		.loc 1 25 23 is_stmt 0
 490 022c 97050000 		lla	a1,_Z8bodyIdlePv
 490      93850500 
 491 0234 2338B500 		sd	a1,16(a0)
  26:src/../h/syscall_cpp.hpp ****         }
 492              		.loc 1 26 13 is_stmt 1
  26:src/../h/syscall_cpp.hpp ****         }
 493              		.loc 1 26 22 is_stmt 0
 494 0238 233C0500 		sd	zero,24(a0)
 495              	.LVL44:
 496              	.LBE30:
 497              	.LBE29:
 498              		.loc 2 92 45
 499 023c 2334A4FE 		sd	a0,-24(s0)
  93:src/main.cpp  ****     thrIdle->start();
 500              		.loc 2 93 5 is_stmt 1
 501              	.LVL45:
 502              	.LBB31:
 503              	.LBB32:
  31:src/../h/syscall_cpp.hpp ****             else return thread_create(&myHandle,body,arg);
 504              		.loc 1 31 13
  32:src/../h/syscall_cpp.hpp ****         }
 505              		.loc 1 32 18
  32:src/../h/syscall_cpp.hpp ****         }
 506              		.loc 1 32 38 is_stmt 0
 507 0240 13060000 		li	a2,0
 508 0244 13058500 		addi	a0,a0,8
 509              	.LVL46:
 510 0248 97000000 		call	_Z13thread_createPP8thread_sPFvPvES2_@plt
 510      E7800000 
 511              	.LVL47:
 512              	.LBE32:
GAS LISTING /tmp/cc1O35bA.s 			page 14


 513              	.LBE31:
  94:src/main.cpp  **** 
  95:src/main.cpp  ****     printf("Printf proba %d valjda radi %x, %p\n", &thrIdle, &thrIdle, &thrIdle);
 514              		.loc 2 95 5 is_stmt 1
 515              		.loc 2 95 11 is_stmt 0
 516 0250 930584FE 		addi	a1,s0,-24
 517 0254 93860500 		mv	a3,a1
 518 0258 13860500 		mv	a2,a1
 519 025c 17050000 		lla	a0,.LC0
 519      13050500 
 520 0264 97000000 		call	_Z6printfPKcz@plt
 520      E7800000 
 521              	.LVL48:
  96:src/main.cpp  ****     //bba_init((char*)HEAP_START_ADDR, (char*)HEAP_END_ADDR);
  97:src/main.cpp  ****     /*
  98:src/main.cpp  ****     semTest=new Semaphore(0);
  99:src/main.cpp  ****     Thread *thrA = new Thread(&bodyA,0);
 100:src/main.cpp  ****     Thread *thrB = new Thread(&bodyB,0);
 101:src/main.cpp  ****     thrB->start();
 102:src/main.cpp  ****     thrA->start();
 103:src/main.cpp  ****     putc('S');
 104:src/main.cpp  ****      */
 105:src/main.cpp  ****     /*
 106:src/main.cpp  ****     char c='M';
 107:src/main.cpp  ****     c++;
 108:src/main.cpp  ****     Thread *thrCobj = new Thread(&bodyC,&c);
 109:src/main.cpp  ****     thrCobj->start();
 110:src/main.cpp  **** 
 111:src/main.cpp  ****     thrCobj->join();
 112:src/main.cpp  ****     */
 113:src/main.cpp  ****     //thrB->join();
 114:src/main.cpp  ****     //thrA->join();
 115:src/main.cpp  ****     /*
 116:src/main.cpp  ****     thrB->join();
 117:src/main.cpp  **** 
 118:src/main.cpp  ****     char o='O';
 119:src/main.cpp  ****     o++;
 120:src/main.cpp  ****     thread_t thrC;
 121:src/main.cpp  ****     thread_create(&thrC,&bodyC,&o);
 122:src/main.cpp  ****     thrCobj->join();
 123:src/main.cpp  ****     thread_join(thrC);
 124:src/main.cpp  ****     delete thrCobj;
 125:src/main.cpp  ****     thrB->start();
 126:src/main.cpp  ****     thrB->join();
 127:src/main.cpp  **** 
 128:src/main.cpp  **** */
 129:src/main.cpp  ****     /*char x = getc();
 130:src/main.cpp  ****     x=getc();
 131:src/main.cpp  ****     x++;
 132:src/main.cpp  ****     putc(x);*/
 133:src/main.cpp  ****     userMain();
 522              		.loc 2 133 5 is_stmt 1
 523              		.loc 2 133 13 is_stmt 0
 524 026c 97000000 		call	_Z8userMainv@plt
 524      E7800000 
 525              	.LVL49:
 134:src/main.cpp  **** 
GAS LISTING /tmp/cc1O35bA.s 			page 15


 135:src/main.cpp  **** /*
 136:src/main.cpp  ****     PeriodicTest* pt = new PeriodicTest(30, 'A');
 137:src/main.cpp  ****     PeriodicTest* pt2 = new PeriodicTest(10, 'a');
 138:src/main.cpp  ****     pt->start();
 139:src/main.cpp  ****     pt2->start();
 140:src/main.cpp  ****     putc('E');
 141:src/main.cpp  ****     char x = 'm';
 142:src/main.cpp  ****     while (x!='x'){
 143:src/main.cpp  ****         x=getc();
 144:src/main.cpp  ****         putc(x);
 145:src/main.cpp  ****     }
 146:src/main.cpp  **** 
 147:src/main.cpp  ****     pt->terminate();
 148:src/main.cpp  ****     pt2->terminate();
 149:src/main.cpp  ****     */
 150:src/main.cpp  ****     idleAlive=0;
 526              		.loc 2 150 5 is_stmt 1
 527              		.loc 2 150 14 is_stmt 0
 528 0274 97070000 		sw	zero,.LANCHOR0,a5
 528      23A00700 
 151:src/main.cpp  ****     return 0;
 529              		.loc 2 151 5 is_stmt 1
 152:src/main.cpp  **** }...
 530              		.loc 2 152 1 is_stmt 0
 531 027c 13050000 		li	a0,0
 532 0280 83308101 		ld	ra,24(sp)
 533              		.cfi_restore 1
 534 0284 03340101 		ld	s0,16(sp)
 535              		.cfi_restore 8
 536              		.cfi_def_cfa 2, 32
 537 0288 13010102 		addi	sp,sp,32
 538              		.cfi_def_cfa_offset 0
 539 028c 67800000 		jr	ra
 540              		.cfi_endproc
 541              	.LFE45:
 543              		.weak	_ZTV6Thread
 544              		.section	.data.rel.ro.local._ZTV6Thread,"awG",@progbits,_ZTV6Thread,comdat
 545              		.align	3
 548              	_ZTV6Thread:
 549 0000 00000000 		.dword	0
 549      00000000 
 550 0008 00000000 		.dword	0
 550      00000000 
 551 0010 00000000 		.dword	_ZN6ThreadD1Ev
 551      00000000 
 552 0018 00000000 		.dword	_ZN6ThreadD0Ev
 552      00000000 
 553 0020 00000000 		.dword	_ZN6Thread3runEv
 553      00000000 
 554              		.globl	str
 555              		.globl	g
 556              		.globl	idleAlive
 557              		.globl	semTest
 558              		.data
 559              		.align	3
 560              		.set	.LANCHOR0,. + 0
 563              	idleAlive:
GAS LISTING /tmp/cc1O35bA.s 			page 16


 564 0000 01000000 		.word	1
 565 0004 00000000 		.zero	4
 568              	str:
 569 0008 74657361 		.string	"tesa legenda"
 569      206C6567 
 569      656E6461 
 569      00
 570 0015 0000     		.zero	2
 571              		.bss
 572              		.align	3
 573              		.set	.LANCHOR1,. + 0
 576              	g:
 577 0000 00000000 		.zero	4
 578 0004 00000000 		.zero	4
 581              	semTest:
 582 0008 00000000 		.zero	8
 582      00000000 
 583              		.text
 584              	.Letext0:
 585              		.file 3 "src/../h/../lib/hw.h"
 586              		.file 4 "src/../h/syscall_c.h"
 587              		.file 5 "src/../h/./kern_threads.hpp"
 588              		.file 6 "src/../h/kern_semaphore.hpp"
 589              		.file 7 "src/../h/kern_memory.hpp"
 590              		.file 8 "src/../h/kern_interrupts.hpp"
 591              		.file 9 "src/../h/kern_console.hpp"
 592              		.file 10 "src/../h/printing.hpp"
GAS LISTING /tmp/cc1O35bA.s 			page 17


DEFINED SYMBOLS
                            *ABS*:0000000000000000 main.cpp
     /tmp/cc1O35bA.s:10     .text._ZN6ThreadD2Ev:0000000000000000 _ZN6ThreadD2Ev
     /tmp/cc1O35bA.s:14     .text._ZN6ThreadD2Ev:0000000000000000 .L0 
     /tmp/cc1O35bA.s:16     .text._ZN6ThreadD2Ev:0000000000000000 .L0 
     /tmp/cc1O35bA.s:17     .text._ZN6ThreadD2Ev:0000000000000004 .L0 
     /tmp/cc1O35bA.s:19     .text._ZN6ThreadD2Ev:0000000000000008 .L0 
     /tmp/cc1O35bA.s:21     .text._ZN6ThreadD2Ev:000000000000000c .L0 
     /tmp/cc1O35bA.s:23     .text._ZN6ThreadD2Ev:000000000000000c .L0 
     /tmp/cc1O35bA.s:24     .text._ZN6ThreadD2Ev:0000000000000010 .L0 
     /tmp/cc1O35bA.s:25     .text._ZN6ThreadD2Ev:0000000000000010 .L0 
     /tmp/cc1O35bA.s:27     .text._ZN6ThreadD2Ev:0000000000000014 .L0 
     /tmp/cc1O35bA.s:29     .text._ZN6ThreadD2Ev:0000000000000018 .L0 
     /tmp/cc1O35bA.s:10     .text._ZN6ThreadD2Ev:0000000000000000 _ZN6ThreadD1Ev
     /tmp/cc1O35bA.s:38     .text._ZN6Thread3runEv:0000000000000000 _ZN6Thread3runEv
     /tmp/cc1O35bA.s:41     .text._ZN6Thread3runEv:0000000000000000 .L0 
     /tmp/cc1O35bA.s:43     .text._ZN6Thread3runEv:0000000000000000 .L0 
     /tmp/cc1O35bA.s:44     .text._ZN6Thread3runEv:0000000000000004 .L0 
     /tmp/cc1O35bA.s:46     .text._ZN6Thread3runEv:0000000000000008 .L0 
     /tmp/cc1O35bA.s:48     .text._ZN6Thread3runEv:000000000000000c .L0 
     /tmp/cc1O35bA.s:50     .text._ZN6Thread3runEv:000000000000000c .L0 
     /tmp/cc1O35bA.s:51     .text._ZN6Thread3runEv:0000000000000010 .L0 
     /tmp/cc1O35bA.s:52     .text._ZN6Thread3runEv:0000000000000010 .L0 
     /tmp/cc1O35bA.s:54     .text._ZN6Thread3runEv:0000000000000014 .L0 
     /tmp/cc1O35bA.s:56     .text._ZN6Thread3runEv:0000000000000018 .L0 
     /tmp/cc1O35bA.s:63     .text._ZN6Thread11threadEntryEPv:0000000000000000 _ZN6Thread11threadEntryEPv
     /tmp/cc1O35bA.s:66     .text._ZN6Thread11threadEntryEPv:0000000000000000 .L0 
     /tmp/cc1O35bA.s:68     .text._ZN6Thread11threadEntryEPv:0000000000000000 .L0 
     /tmp/cc1O35bA.s:69     .text._ZN6Thread11threadEntryEPv:0000000000000004 .L0 
     /tmp/cc1O35bA.s:72     .text._ZN6Thread11threadEntryEPv:000000000000000c .L0 
     /tmp/cc1O35bA.s:73     .text._ZN6Thread11threadEntryEPv:000000000000000c .L0 
     /tmp/cc1O35bA.s:75     .text._ZN6Thread11threadEntryEPv:0000000000000010 .L0 
     /tmp/cc1O35bA.s:78     .text._ZN6Thread11threadEntryEPv:0000000000000010 .L0 
     /tmp/cc1O35bA.s:79     .text._ZN6Thread11threadEntryEPv:0000000000000010 .L0 
     /tmp/cc1O35bA.s:80     .text._ZN6Thread11threadEntryEPv:0000000000000010 .L0 
     /tmp/cc1O35bA.s:83     .text._ZN6Thread11threadEntryEPv:0000000000000018 .L0 
     /tmp/cc1O35bA.s:86     .text._ZN6Thread11threadEntryEPv:000000000000001c .L0 
     /tmp/cc1O35bA.s:87     .text._ZN6Thread11threadEntryEPv:0000000000000020 .L0 
     /tmp/cc1O35bA.s:89     .text._ZN6Thread11threadEntryEPv:0000000000000024 .L0 
     /tmp/cc1O35bA.s:90     .text._ZN6Thread11threadEntryEPv:0000000000000024 .L0 
     /tmp/cc1O35bA.s:92     .text._ZN6Thread11threadEntryEPv:0000000000000028 .L0 
     /tmp/cc1O35bA.s:94     .text._ZN6Thread11threadEntryEPv:000000000000002c .L0 
     /tmp/cc1O35bA.s:101    .text:0000000000000000 _Z8bodyIdlePv
     /tmp/cc1O35bA.s:105    .text:0000000000000000 .L0 
     /tmp/cc1O35bA.s:107    .text:0000000000000000 .L0 
     /tmp/cc1O35bA.s:108    .text:0000000000000000 .L0 
     /tmp/cc1O35bA.s:109    .text:0000000000000000 .L0 
     /tmp/cc1O35bA.s:112    .text:000000000000000c .L0 
     /tmp/cc1O35bA.s:113    .text:0000000000000010 .L0 
     /tmp/cc1O35bA.s:116    .text:0000000000000018 .L0 
     /tmp/cc1O35bA.s:117    .text:0000000000000018 .L0 
     /tmp/cc1O35bA.s:119    .text:000000000000001c .L0 
     /tmp/cc1O35bA.s:123    .text:000000000000001c .L0 
     /tmp/cc1O35bA.s:124    .text:000000000000001c .L0 
     /tmp/cc1O35bA.s:127    .text:0000000000000024 .L0 
     /tmp/cc1O35bA.s:128    .text:0000000000000024 .L0 
     /tmp/cc1O35bA.s:131    .text:0000000000000030 .L0 
GAS LISTING /tmp/cc1O35bA.s 			page 18


     /tmp/cc1O35bA.s:132    .text:0000000000000034 .L0 
     /tmp/cc1O35bA.s:134    .text:0000000000000038 .L0 
     /tmp/cc1O35bA.s:135    .text:0000000000000038 .L0 
     /tmp/cc1O35bA.s:137    .text:000000000000003c .L0 
     /tmp/cc1O35bA.s:142    .text:0000000000000044 .L0 
     /tmp/cc1O35bA.s:149    .text._ZN6ThreadD0Ev:0000000000000000 _ZN6ThreadD0Ev
     /tmp/cc1O35bA.s:152    .text._ZN6ThreadD0Ev:0000000000000000 .L0 
     /tmp/cc1O35bA.s:154    .text._ZN6ThreadD0Ev:0000000000000000 .L0 
     /tmp/cc1O35bA.s:155    .text._ZN6ThreadD0Ev:0000000000000004 .L0 
     /tmp/cc1O35bA.s:158    .text._ZN6ThreadD0Ev:000000000000000c .L0 
     /tmp/cc1O35bA.s:159    .text._ZN6ThreadD0Ev:000000000000000c .L0 
     /tmp/cc1O35bA.s:161    .text._ZN6ThreadD0Ev:0000000000000010 .L0 
     /tmp/cc1O35bA.s:163    .text._ZN6ThreadD0Ev:0000000000000010 .L0 
     /tmp/cc1O35bA.s:166    .text._ZN6ThreadD0Ev:000000000000001c .L0 
     /tmp/cc1O35bA.s:168    .text._ZN6ThreadD0Ev:0000000000000020 .L0 
     /tmp/cc1O35bA.s:169    .text._ZN6ThreadD0Ev:0000000000000020 .L0 
     /tmp/cc1O35bA.s:171    .text._ZN6ThreadD0Ev:0000000000000024 .L0 
     /tmp/cc1O35bA.s:173    .text._ZN6ThreadD0Ev:0000000000000028 .L0 
     /tmp/cc1O35bA.s:180    .text:0000000000000044 _Z5bodyCPv
     /tmp/cc1O35bA.s:183    .text:0000000000000044 .L0 
     /tmp/cc1O35bA.s:185    .text:0000000000000044 .L0 
     /tmp/cc1O35bA.s:186    .text:0000000000000048 .L0 
     /tmp/cc1O35bA.s:191    .text:0000000000000058 .L0 
     /tmp/cc1O35bA.s:192    .text:0000000000000058 .L0 
     /tmp/cc1O35bA.s:193    .text:0000000000000058 .L0 
     /tmp/cc1O35bA.s:194    .text:0000000000000058 .L0 
     /tmp/cc1O35bA.s:196    .text:000000000000005c .L0 
     /tmp/cc1O35bA.s:200    .text:0000000000000060 .L0 
     /tmp/cc1O35bA.s:201    .text:0000000000000060 .L0 
     /tmp/cc1O35bA.s:202    .text:0000000000000060 .L0 
     /tmp/cc1O35bA.s:206    .text:0000000000000064 .L0 
     /tmp/cc1O35bA.s:207    .text:0000000000000064 .L0 
     /tmp/cc1O35bA.s:210    .text:000000000000006c .L0 
     /tmp/cc1O35bA.s:211    .text:000000000000006c .L0 
     /tmp/cc1O35bA.s:215    .text:0000000000000078 .L0 
     /tmp/cc1O35bA.s:216    .text:0000000000000078 .L0 
     /tmp/cc1O35bA.s:220    .text:0000000000000084 .L0 
     /tmp/cc1O35bA.s:221    .text:0000000000000084 .L0 
     /tmp/cc1O35bA.s:224    .text:0000000000000088 .L0 
     /tmp/cc1O35bA.s:228    .text:000000000000008c .L0 
     /tmp/cc1O35bA.s:229    .text:0000000000000090 .L0 
     /tmp/cc1O35bA.s:231    .text:0000000000000094 .L0 
     /tmp/cc1O35bA.s:232    .text:0000000000000094 .L0 
     /tmp/cc1O35bA.s:234    .text:0000000000000098 .L0 
     /tmp/cc1O35bA.s:237    .text:000000000000009c .L0 
     /tmp/cc1O35bA.s:240    .text:00000000000000a0 .L0 
     /tmp/cc1O35bA.s:242    .text:00000000000000a4 .L0 
     /tmp/cc1O35bA.s:248    .text:00000000000000a4 _Z5bodyAPv
     /tmp/cc1O35bA.s:251    .text:00000000000000a4 .L0 
     /tmp/cc1O35bA.s:253    .text:00000000000000a4 .L0 
     /tmp/cc1O35bA.s:254    .text:00000000000000a8 .L0 
     /tmp/cc1O35bA.s:258    .text:00000000000000b4 .L0 
     /tmp/cc1O35bA.s:259    .text:00000000000000b4 .L0 
     /tmp/cc1O35bA.s:260    .text:00000000000000b4 .L0 
     /tmp/cc1O35bA.s:262    .text:00000000000000b8 .L0 
     /tmp/cc1O35bA.s:265    .text:00000000000000b8 .L0 
     /tmp/cc1O35bA.s:267    .text:00000000000000b8 .L0 
GAS LISTING /tmp/cc1O35bA.s 			page 19


     /tmp/cc1O35bA.s:268    .text:00000000000000b8 .L0 
     /tmp/cc1O35bA.s:273    .text:00000000000000c0 .L0 
     /tmp/cc1O35bA.s:274    .text:00000000000000c0 .L0 
     /tmp/cc1O35bA.s:278    .text:00000000000000c8 .L0 
     /tmp/cc1O35bA.s:279    .text:00000000000000c8 .L0 
     /tmp/cc1O35bA.s:282    .text:00000000000000d0 .L0 
     /tmp/cc1O35bA.s:286    .text:00000000000000d4 .L0 
     /tmp/cc1O35bA.s:289    .text:00000000000000dc .L0 
     /tmp/cc1O35bA.s:290    .text:00000000000000dc .L0 
     /tmp/cc1O35bA.s:294    .text:00000000000000e8 .L0 
     /tmp/cc1O35bA.s:300    .text:00000000000000f4 .L0 
     /tmp/cc1O35bA.s:301    .text:00000000000000f8 .L0 
     /tmp/cc1O35bA.s:303    .text:00000000000000fc .L0 
     /tmp/cc1O35bA.s:304    .text:00000000000000fc .L0 
     /tmp/cc1O35bA.s:306    .text:0000000000000100 .L0 
     /tmp/cc1O35bA.s:309    .text:0000000000000104 .L0 
     /tmp/cc1O35bA.s:311    .text:0000000000000108 .L0 
     /tmp/cc1O35bA.s:317    .text:0000000000000108 _Z5bodyBPv
     /tmp/cc1O35bA.s:320    .text:0000000000000108 .L0 
     /tmp/cc1O35bA.s:322    .text:0000000000000108 .L0 
     /tmp/cc1O35bA.s:323    .text:000000000000010c .L0 
     /tmp/cc1O35bA.s:327    .text:0000000000000118 .L0 
     /tmp/cc1O35bA.s:328    .text:0000000000000118 .L0 
     /tmp/cc1O35bA.s:329    .text:0000000000000118 .L0 
     /tmp/cc1O35bA.s:331    .text:000000000000011c .L0 
     /tmp/cc1O35bA.s:335    .text:000000000000011c .L0 
     /tmp/cc1O35bA.s:336    .text:000000000000011c .L0 
     /tmp/cc1O35bA.s:344    .text:0000000000000124 .L0 
     /tmp/cc1O35bA.s:348    .text:0000000000000128 .L0 
     /tmp/cc1O35bA.s:351    .text:0000000000000130 .L0 
     /tmp/cc1O35bA.s:352    .text:0000000000000130 .L0 
     /tmp/cc1O35bA.s:354    .text:0000000000000134 .L0 
     /tmp/cc1O35bA.s:357    .text:000000000000013c .L0 
     /tmp/cc1O35bA.s:359    .text:0000000000000140 .L0 
     /tmp/cc1O35bA.s:360    .text:0000000000000140 .L0 
     /tmp/cc1O35bA.s:368    .text:0000000000000158 .L0 
     /tmp/cc1O35bA.s:372    .text:000000000000015c .L0 
     /tmp/cc1O35bA.s:377    .text:0000000000000168 .L0 
     /tmp/cc1O35bA.s:384    .text:0000000000000170 .L0 
     /tmp/cc1O35bA.s:388    .text:0000000000000174 .L0 
     /tmp/cc1O35bA.s:392    .text:000000000000017c .L0 
     /tmp/cc1O35bA.s:393    .text:000000000000017c .L0 
     /tmp/cc1O35bA.s:400    .text:0000000000000194 .L0 
     /tmp/cc1O35bA.s:401    .text:0000000000000194 .L0 
     /tmp/cc1O35bA.s:411    .text:000000000000019c .L0 
     /tmp/cc1O35bA.s:412    .text:000000000000019c .L0 
     /tmp/cc1O35bA.s:413    .text:000000000000019c .L0 
     /tmp/cc1O35bA.s:420    .text:00000000000001b0 .L0 
     /tmp/cc1O35bA.s:421    .text:00000000000001b4 .L0 
     /tmp/cc1O35bA.s:423    .text:00000000000001b8 .L0 
     /tmp/cc1O35bA.s:424    .text:00000000000001b8 .L0 
     /tmp/cc1O35bA.s:426    .text:00000000000001bc .L0 
     /tmp/cc1O35bA.s:429    .text:00000000000001c0 .L0 
     /tmp/cc1O35bA.s:431    .text:00000000000001c4 .L0 
     /tmp/cc1O35bA.s:442    .text:00000000000001c4 main
     /tmp/cc1O35bA.s:445    .text:00000000000001c4 .L0 
     /tmp/cc1O35bA.s:446    .text:00000000000001c4 .L0 
GAS LISTING /tmp/cc1O35bA.s 			page 20


     /tmp/cc1O35bA.s:447    .text:00000000000001c8 .L0 
     /tmp/cc1O35bA.s:450    .text:00000000000001d0 .L0 
     /tmp/cc1O35bA.s:451    .text:00000000000001d0 .L0 
     /tmp/cc1O35bA.s:453    .text:00000000000001d4 .L0 
     /tmp/cc1O35bA.s:455    .text:00000000000001d4 .L0 
     /tmp/cc1O35bA.s:456    .text:00000000000001d4 .L0 
     /tmp/cc1O35bA.s:459    .text:00000000000001dc .L0 
     /tmp/cc1O35bA.s:460    .text:00000000000001dc .L0 
     /tmp/cc1O35bA.s:467    .text:00000000000001fc .L0 
     /tmp/cc1O35bA.s:468    .text:00000000000001fc .L0 
     /tmp/cc1O35bA.s:471    .text:0000000000000204 .L0 
     /tmp/cc1O35bA.s:472    .text:0000000000000204 .L0 
     /tmp/cc1O35bA.s:475    .text:000000000000020c .L0 
     /tmp/cc1O35bA.s:476    .text:000000000000020c .L0 
     /tmp/cc1O35bA.s:479    .text:0000000000000214 .L0 
     /tmp/cc1O35bA.s:480    .text:0000000000000214 .L0 
     /tmp/cc1O35bA.s:548    .data.rel.ro.local._ZTV6Thread:0000000000000000 _ZTV6Thread
     /tmp/cc1O35bA.s:486    .text:0000000000000220 .L0 
     /tmp/cc1O35bA.s:489    .text:000000000000022c .L0 
     /tmp/cc1O35bA.s:490    .text:000000000000022c .L0 
     /tmp/cc1O35bA.s:493    .text:0000000000000238 .L0 
     /tmp/cc1O35bA.s:494    .text:0000000000000238 .L0 
     /tmp/cc1O35bA.s:499    .text:000000000000023c .L0 
     /tmp/cc1O35bA.s:504    .text:0000000000000240 .L0 
     /tmp/cc1O35bA.s:505    .text:0000000000000240 .L0 
     /tmp/cc1O35bA.s:506    .text:0000000000000240 .L0 
     /tmp/cc1O35bA.s:507    .text:0000000000000240 .L0 
     /tmp/cc1O35bA.s:515    .text:0000000000000250 .L0 
     /tmp/cc1O35bA.s:516    .text:0000000000000250 .L0 
     /tmp/cc1O35bA.s:523    .text:000000000000026c .L0 
     /tmp/cc1O35bA.s:524    .text:000000000000026c .L0 
     /tmp/cc1O35bA.s:527    .text:0000000000000274 .L0 
     /tmp/cc1O35bA.s:528    .text:0000000000000274 .L0 
     /tmp/cc1O35bA.s:530    .text:000000000000027c .L0 
     /tmp/cc1O35bA.s:531    .text:000000000000027c .L0 
     /tmp/cc1O35bA.s:533    .text:0000000000000284 .L0 
     /tmp/cc1O35bA.s:535    .text:0000000000000288 .L0 
     /tmp/cc1O35bA.s:536    .text:0000000000000288 .L0 
     /tmp/cc1O35bA.s:538    .text:000000000000028c .L0 
     /tmp/cc1O35bA.s:540    .text:0000000000000290 .L0 
     /tmp/cc1O35bA.s:568    .data:0000000000000008 str
     /tmp/cc1O35bA.s:576    .bss:0000000000000000 g
     /tmp/cc1O35bA.s:563    .data:0000000000000000 idleAlive
     /tmp/cc1O35bA.s:581    .bss:0000000000000008 semTest
     /tmp/cc1O35bA.s:560    .data:0000000000000000 .LANCHOR0
     /tmp/cc1O35bA.s:573    .bss:0000000000000000 .LANCHOR1
     /tmp/cc1O35bA.s:34     .text._ZN6ThreadD2Ev:0000000000000018 .L0 
     /tmp/cc1O35bA.s:59     .text._ZN6Thread3runEv:0000000000000018 .L0 
     /tmp/cc1O35bA.s:97     .text._ZN6Thread11threadEntryEPv:000000000000002c .L0 
     /tmp/cc1O35bA.s:593    .text:0000000000000290 .L0 
     /tmp/cc1O35bA.s:176    .text._ZN6ThreadD0Ev:0000000000000028 .L0 
     /tmp/cc1O35bA.s:109    .text:0000000000000000 .L0 
     /tmp/cc1O35bA.s:128    .text:0000000000000024 .L0 
     /tmp/cc1O35bA.s:360    .text:0000000000000140 .L0 
     /tmp/cc1O35bA.s:393    .text:000000000000017c .L0 
     /tmp/cc1O35bA.s:413    .text:000000000000019c .L0 
     /tmp/cc1O35bA.s:460    .text:00000000000001dc .L0 
GAS LISTING /tmp/cc1O35bA.s 			page 21


     /tmp/cc1O35bA.s:462    .text:00000000000001e8 .L0 
     /tmp/cc1O35bA.s:486    .text:0000000000000220 .L0 
     /tmp/cc1O35bA.s:490    .text:000000000000022c .L0 
     /tmp/cc1O35bA.s:436    .rodata.str1.8:0000000000000000 .LC0
     /tmp/cc1O35bA.s:519    .text:000000000000025c .L0 
     /tmp/cc1O35bA.s:528    .text:0000000000000274 .L0 
     /tmp/cc1O35bA.s:140    .text:0000000000000040 .L15
     /tmp/cc1O35bA.s:121    .text:000000000000001c .L12
     /tmp/cc1O35bA.s:226    .text:000000000000008c .L18
     /tmp/cc1O35bA.s:204    .text:0000000000000064 .L20
     /tmp/cc1O35bA.s:284    .text:00000000000000d4 .L25
     /tmp/cc1O35bA.s:297    .text:00000000000000f4 .L22
     /tmp/cc1O35bA.s:276    .text:00000000000000c8 .L24
     /tmp/cc1O35bA.s:271    .text:00000000000000c0 .L27
     /tmp/cc1O35bA.s:386    .text:0000000000000174 .L35
     /tmp/cc1O35bA.s:365    .text:0000000000000158 .L31
     /tmp/cc1O35bA.s:339    .text:0000000000000124 .L32
     /tmp/cc1O35bA.s:379    .text:0000000000000170 .L30
     /tmp/cc1O35bA.s:346    .text:0000000000000128 .L33
     /tmp/cc1O35bA.s:404    .text:000000000000019c .L29
     /tmp/cc1O35bA.s:370    .text:000000000000015c .L34
     /tmp/cc1O35bA.s:1795   .debug_abbrev:0000000000000000 .Ldebug_abbrev0
     /tmp/cc1O35bA.s:3283   .debug_str:000000000000050a .LASF113
     /tmp/cc1O35bA.s:3185   .debug_str:0000000000000294 .LASF114
     /tmp/cc1O35bA.s:3229   .debug_str:00000000000003ba .LASF115
     /tmp/cc1O35bA.s:3051   .debug_ranges:0000000000000000 .Ldebug_ranges0
     /tmp/cc1O35bA.s:3077   .debug_line:0000000000000000 .Ldebug_line0
     /tmp/cc1O35bA.s:3203   .debug_str:0000000000000312 .LASF0
     /tmp/cc1O35bA.s:3217   .debug_str:000000000000036a .LASF1
     /tmp/cc1O35bA.s:3191   .debug_str:00000000000002b9 .LASF2
     /tmp/cc1O35bA.s:3177   .debug_str:000000000000026c .LASF4
     /tmp/cc1O35bA.s:3269   .debug_str:00000000000004c1 .LASF3
     /tmp/cc1O35bA.s:3105   .debug_str:000000000000009a .LASF5
     /tmp/cc1O35bA.s:3223   .debug_str:0000000000000396 .LASF6
     /tmp/cc1O35bA.s:3201   .debug_str:00000000000002ff .LASF7
     /tmp/cc1O35bA.s:3295   .debug_str:0000000000000627 .LASF8
     /tmp/cc1O35bA.s:3167   .debug_str:0000000000000217 .LASF9
     /tmp/cc1O35bA.s:3239   .debug_str:00000000000003f6 .LASF10
     /tmp/cc1O35bA.s:3285   .debug_str:00000000000005ce .LASF11
     /tmp/cc1O35bA.s:3107   .debug_str:00000000000000a1 .LASF12
     /tmp/cc1O35bA.s:3083   .debug_str:0000000000000013 .LASF13
     /tmp/cc1O35bA.s:3121   .debug_str:0000000000000110 .LASF14
     /tmp/cc1O35bA.s:3259   .debug_str:0000000000000488 .LASF15
     /tmp/cc1O35bA.s:3135   .debug_str:000000000000014d .LASF16
     /tmp/cc1O35bA.s:3079   .debug_str:0000000000000000 .LASF17
     /tmp/cc1O35bA.s:3325   .debug_str:00000000000006fc .LASF28
     /tmp/cc1O35bA.s:3179   .debug_str:0000000000000273 .LASF18
     /tmp/cc1O35bA.s:3207   .debug_str:0000000000000328 .LASF19
     /tmp/cc1O35bA.s:3161   .debug_str:00000000000001eb .LASF20
     /tmp/cc1O35bA.s:3267   .debug_str:00000000000004b9 .LASF21
     /tmp/cc1O35bA.s:3323   .debug_str:00000000000006f0 .LASF22
     /tmp/cc1O35bA.s:3095   .debug_str:0000000000000064 .LASF23
     /tmp/cc1O35bA.s:3221   .debug_str:000000000000038f .LASF24
     /tmp/cc1O35bA.s:3311   .debug_str:0000000000000693 .LASF25
     /tmp/cc1O35bA.s:3225   .debug_str:00000000000003a9 .LASF26
     /tmp/cc1O35bA.s:3149   .debug_str:00000000000001a8 .LASF27
     /tmp/cc1O35bA.s:3147   .debug_str:00000000000001a2 .LASF29
GAS LISTING /tmp/cc1O35bA.s 			page 22


     /tmp/cc1O35bA.s:3183   .debug_str:0000000000000285 .LASF30
     /tmp/cc1O35bA.s:3113   .debug_str:00000000000000da .LASF38
     /tmp/cc1O35bA.s:3251   .debug_str:000000000000044a .LASF31
     /tmp/cc1O35bA.s:3233   .debug_str:00000000000003dc .LASF32
     /tmp/cc1O35bA.s:3237   .debug_str:00000000000003f0 .LASF33
     /tmp/cc1O35bA.s:3263   .debug_str:00000000000004a9 .LASF34
     /tmp/cc1O35bA.s:3139   .debug_str:0000000000000171 .LASF35
     /tmp/cc1O35bA.s:3093   .debug_str:000000000000005b .LASF36
     /tmp/cc1O35bA.s:3151   .debug_str:00000000000001ae .LASF37
     /tmp/cc1O35bA.s:3289   .debug_str:00000000000005ef .LASF39
     /tmp/cc1O35bA.s:3089   .debug_str:0000000000000043 .LASF40
     /tmp/cc1O35bA.s:3187   .debug_str:00000000000002a1 .LASF41
     /tmp/cc1O35bA.s:3227   .debug_str:00000000000003b5 .LASF42
     /tmp/cc1O35bA.s:3081   .debug_str:0000000000000009 .LASF50
     /tmp/cc1O35bA.s:3195   .debug_str:00000000000002cf .LASF52
     /tmp/cc1O35bA.s:3287   .debug_str:00000000000005dd .LASF54
     /tmp/cc1O35bA.s:3257   .debug_str:000000000000047d .LASF56
     /tmp/cc1O35bA.s:3117   .debug_str:00000000000000ec .LASF58
     /tmp/cc1O35bA.s:3153   .debug_str:00000000000001b6 .LASF43
     /tmp/cc1O35bA.s:3253   .debug_str:0000000000000451 .LASF45
     /tmp/cc1O35bA.s:3133   .debug_str:0000000000000146 .LASF44
     /tmp/cc1O35bA.s:3255   .debug_str:0000000000000466 .LASF46
     /tmp/cc1O35bA.s:3319   .debug_str:00000000000006d9 .LASF47
     /tmp/cc1O35bA.s:3131   .debug_str:000000000000013e .LASF48
     /tmp/cc1O35bA.s:3249   .debug_str:0000000000000440 .LASF49
     /tmp/cc1O35bA.s:3291   .debug_str:00000000000005fa .LASF51
     /tmp/cc1O35bA.s:3219   .debug_str:000000000000037d .LASF116
     /tmp/cc1O35bA.s:3189   .debug_str:00000000000002ac .LASF53
     /tmp/cc1O35bA.s:3243   .debug_str:000000000000040f .LASF55
     /tmp/cc1O35bA.s:3101   .debug_str:0000000000000081 .LASF57
     /tmp/cc1O35bA.s:3211   .debug_str:0000000000000347 .LASF59
     /tmp/cc1O35bA.s:3215   .debug_str:0000000000000364 .LASF60
     /tmp/cc1O35bA.s:3163   .debug_str:00000000000001f5 .LASF61
     /tmp/cc1O35bA.s:3273   .debug_str:00000000000004d8 .LASF62
     /tmp/cc1O35bA.s:3173   .debug_str:0000000000000243 .LASF63
     /tmp/cc1O35bA.s:3205   .debug_str:000000000000031f .LASF117
     /tmp/cc1O35bA.s:3159   .debug_str:00000000000001d5 .LASF118
     /tmp/cc1O35bA.s:3279   .debug_str:00000000000004f5 .LASF64
     /tmp/cc1O35bA.s:3169   .debug_str:0000000000000225 .LASF65
     /tmp/cc1O35bA.s:3165   .debug_str:0000000000000208 .LASF66
     /tmp/cc1O35bA.s:3155   .debug_str:00000000000001bb .LASF119
     /tmp/cc1O35bA.s:3235   .debug_str:00000000000003e4 .LASF120
     /tmp/cc1O35bA.s:3197   .debug_str:00000000000002df .LASF121
     /tmp/cc1O35bA.s:3297   .debug_str:0000000000000637 .LASF122
     /tmp/cc1O35bA.s:3115   .debug_str:00000000000000e7 .LASF67
     /tmp/cc1O35bA.s:443    .text:00000000000001c4 .LFB45
     /tmp/cc1O35bA.s:541    .text:0000000000000290 .LFE45
     /tmp/cc1O35bA.s:3277   .debug_str:00000000000004ed .LASF68
     /tmp/cc1O35bA.s:483    .text:0000000000000220 .LBB29
     /tmp/cc1O35bA.s:497    .text:000000000000023c .LBE29
     /tmp/cc1O35bA.s:2803   .debug_loc:0000000000000000 .LLST14
     /tmp/cc1O35bA.s:2811   .debug_loc:0000000000000024 .LLST15
     /tmp/cc1O35bA.s:2820   .debug_loc:0000000000000050 .LLST16
     /tmp/cc1O35bA.s:502    .text:0000000000000240 .LBB31
     /tmp/cc1O35bA.s:513    .text:0000000000000250 .LBE31
     /tmp/cc1O35bA.s:2827   .debug_loc:0000000000000073 .LLST17
     /tmp/cc1O35bA.s:511    .text:0000000000000250 .LVL47
GAS LISTING /tmp/cc1O35bA.s 			page 23


     /tmp/cc1O35bA.s:457    .text:00000000000001dc .LVL38
     /tmp/cc1O35bA.s:465    .text:00000000000001fc .LVL39
     /tmp/cc1O35bA.s:469    .text:0000000000000204 .LVL40
     /tmp/cc1O35bA.s:473    .text:000000000000020c .LVL41
     /tmp/cc1O35bA.s:477    .text:0000000000000214 .LVL42
     /tmp/cc1O35bA.s:482    .text:0000000000000220 .LVL43
     /tmp/cc1O35bA.s:521    .text:000000000000026c .LVL48
     /tmp/cc1O35bA.s:525    .text:0000000000000274 .LVL49
     /tmp/cc1O35bA.s:3125   .debug_str:0000000000000122 .LASF69
     /tmp/cc1O35bA.s:3171   .debug_str:0000000000000238 .LASF70
     /tmp/cc1O35bA.s:318    .text:0000000000000108 .LFB36
     /tmp/cc1O35bA.s:432    .text:00000000000001c4 .LFE36
     /tmp/cc1O35bA.s:2839   .debug_loc:00000000000000aa .LLST9
     /tmp/cc1O35bA.s:334    .text:000000000000011c .LBB15
     /tmp/cc1O35bA.s:407    .text:000000000000019c .LBE15
     /tmp/cc1O35bA.s:2853   .debug_loc:00000000000000e3 .LLST10
     /tmp/cc1O35bA.s:2865   .debug_loc:000000000000011a .LLST11
     /tmp/cc1O35bA.s:2877   .debug_loc:0000000000000151 .LLST12
     /tmp/cc1O35bA.s:397    .text:0000000000000194 .LVL34
     /tmp/cc1O35bA.s:409    .text:000000000000019c .LBB22
     /tmp/cc1O35bA.s:418    .text:00000000000001b0 .LBE22
     /tmp/cc1O35bA.s:2884   .debug_loc:0000000000000174 .LLST13
     /tmp/cc1O35bA.s:416    .text:00000000000001b0 .LVL36
     /tmp/cc1O35bA.s:3123   .debug_str:000000000000011c .LASF71
     /tmp/cc1O35bA.s:3231   .debug_str:00000000000003d1 .LASF72
     /tmp/cc1O35bA.s:249    .text:00000000000000a4 .LFB35
     /tmp/cc1O35bA.s:312    .text:0000000000000108 .LFE35
     /tmp/cc1O35bA.s:2892   .debug_loc:000000000000019f .LLST7
     /tmp/cc1O35bA.s:266    .text:00000000000000b8 .LBB14
     /tmp/cc1O35bA.s:298    .text:00000000000000f4 .LBE14
     /tmp/cc1O35bA.s:2906   .debug_loc:00000000000001d8 .LLST8
     /tmp/cc1O35bA.s:275    .text:00000000000000c8 .LVL23
     /tmp/cc1O35bA.s:280    .text:00000000000000d0 .LVL24
     /tmp/cc1O35bA.s:292    .text:00000000000000e8 .LVL26
     /tmp/cc1O35bA.s:3127   .debug_str:0000000000000128 .LASF73
     /tmp/cc1O35bA.s:3141   .debug_str:0000000000000178 .LASF74
     /tmp/cc1O35bA.s:181    .text:0000000000000044 .LFB34
     /tmp/cc1O35bA.s:243    .text:00000000000000a4 .LFE34
     /tmp/cc1O35bA.s:2918   .debug_loc:000000000000020f .LLST4
     /tmp/cc1O35bA.s:3193   .debug_str:00000000000002c7 .LASF75
     /tmp/cc1O35bA.s:2936   .debug_loc:000000000000025b .LLST5
     /tmp/cc1O35bA.s:2952   .debug_loc:00000000000002a5 .LLST6
     /tmp/cc1O35bA.s:213    .text:0000000000000078 .LVL14
     /tmp/cc1O35bA.s:218    .text:0000000000000084 .LVL15
     /tmp/cc1O35bA.s:3305   .debug_str:0000000000000676 .LASF76
     /tmp/cc1O35bA.s:3143   .debug_str:0000000000000183 .LASF77
     /tmp/cc1O35bA.s:102    .text:0000000000000000 .LFB33
     /tmp/cc1O35bA.s:143    .text:0000000000000044 .LFE33
     /tmp/cc1O35bA.s:2970   .debug_loc:00000000000002f1 .LLST2
     /tmp/cc1O35bA.s:125    .text:0000000000000024 .LVL7
     /tmp/cc1O35bA.s:3247   .debug_str:000000000000043b .LASF79
     /tmp/cc1O35bA.s:64     .text._ZN6Thread11threadEntryEPv:0000000000000000 .LFB15
     /tmp/cc1O35bA.s:95     .text._ZN6Thread11threadEntryEPv:000000000000002c .LFE15
     /tmp/cc1O35bA.s:2988   .debug_loc:000000000000033d .LLST0
     /tmp/cc1O35bA.s:3199   .debug_str:00000000000002fa .LASF78
     /tmp/cc1O35bA.s:3002   .debug_loc:0000000000000376 .LLST1
     /tmp/cc1O35bA.s:84     .text._ZN6Thread11threadEntryEPv:000000000000001c .LVL4
GAS LISTING /tmp/cc1O35bA.s 			page 24


     /tmp/cc1O35bA.s:39     .text._ZN6Thread3runEv:0000000000000000 .LFB14
     /tmp/cc1O35bA.s:57     .text._ZN6Thread3runEv:0000000000000018 .LFE14
     /tmp/cc1O35bA.s:3241   .debug_str:0000000000000405 .LASF80
     /tmp/cc1O35bA.s:3091   .debug_str:000000000000004c .LASF81
     /tmp/cc1O35bA.s:150    .text._ZN6ThreadD0Ev:0000000000000000 .LFB6
     /tmp/cc1O35bA.s:174    .text._ZN6ThreadD0Ev:0000000000000028 .LFE6
     /tmp/cc1O35bA.s:3016   .debug_loc:00000000000003af .LLST3
     /tmp/cc1O35bA.s:164    .text._ZN6ThreadD0Ev:0000000000000018 .LVL10
     /tmp/cc1O35bA.s:3281   .debug_str:00000000000004fb .LASF82
     /tmp/cc1O35bA.s:11     .text._ZN6ThreadD2Ev:0000000000000000 .LFB4
     /tmp/cc1O35bA.s:30     .text._ZN6ThreadD2Ev:0000000000000018 .LFE4
     /tmp/cc1O35bA.s:3175   .debug_str:0000000000000255 .LASF123
     /tmp/cc1O35bA.s:3293   .debug_str:0000000000000601 .LASF83
     /tmp/cc1O35bA.s:3137   .debug_str:0000000000000163 .LASF85
     /tmp/cc1O35bA.s:3313   .debug_str:000000000000069c .LASF84
     /tmp/cc1O35bA.s:3103   .debug_str:0000000000000089 .LASF86
     /tmp/cc1O35bA.s:3303   .debug_str:0000000000000660 .LASF87
     /tmp/cc1O35bA.s:3321   .debug_str:00000000000006e2 .LASF88
     /tmp/cc1O35bA.s:3087   .debug_str:000000000000002a .LASF89
     /tmp/cc1O35bA.s:3209   .debug_str:0000000000000333 .LASF90
     /tmp/cc1O35bA.s:3111   .debug_str:00000000000000c7 .LASF91
     /tmp/cc1O35bA.s:3213   .debug_str:0000000000000356 .LASF92
     /tmp/cc1O35bA.s:3317   .debug_str:00000000000006c2 .LASF93
     /tmp/cc1O35bA.s:3119   .debug_str:00000000000000fe .LASF94
     /tmp/cc1O35bA.s:3265   .debug_str:00000000000004b3 .LASF95
     /tmp/cc1O35bA.s:3309   .debug_str:0000000000000686 .LASF96
     /tmp/cc1O35bA.s:3299   .debug_str:0000000000000647 .LASF97
     /tmp/cc1O35bA.s:3307   .debug_str:000000000000067f .LASF98
     /tmp/cc1O35bA.s:3181   .debug_str:0000000000000278 .LASF99
     /tmp/cc1O35bA.s:3099   .debug_str:0000000000000078 .LASF100
     /tmp/cc1O35bA.s:3157   .debug_str:00000000000001cc .LASF101
     /tmp/cc1O35bA.s:3271   .debug_str:00000000000004d3 .LASF102
     /tmp/cc1O35bA.s:3109   .debug_str:00000000000000b1 .LASF103
     /tmp/cc1O35bA.s:3301   .debug_str:0000000000000655 .LASF104
     /tmp/cc1O35bA.s:3145   .debug_str:0000000000000191 .LASF105
     /tmp/cc1O35bA.s:3097   .debug_str:000000000000006c .LASF106
     /tmp/cc1O35bA.s:3245   .debug_str:0000000000000426 .LASF107
     /tmp/cc1O35bA.s:3129   .debug_str:000000000000012e .LASF108
     /tmp/cc1O35bA.s:3315   .debug_str:00000000000006b2 .LASF109
     /tmp/cc1O35bA.s:3261   .debug_str:000000000000049e .LASF110
     /tmp/cc1O35bA.s:3085   .debug_str:0000000000000023 .LASF111
     /tmp/cc1O35bA.s:3275   .debug_str:00000000000004dd .LASF112
     /tmp/cc1O35bA.s:495    .text:000000000000023c .LVL44
     /tmp/cc1O35bA.s:501    .text:0000000000000240 .LVL45
     /tmp/cc1O35bA.s:509    .text:0000000000000248 .LVL46
     /tmp/cc1O35bA.s:321    .text:0000000000000108 .LVL28
     /tmp/cc1O35bA.s:338    .text:0000000000000124 .LVL30
     /tmp/cc1O35bA.s:333    .text:000000000000011c .LVL29
     /tmp/cc1O35bA.s:427    .text:00000000000001bc .LVL37
     /tmp/cc1O35bA.s:385    .text:0000000000000174 .LVL33
     /tmp/cc1O35bA.s:403    .text:000000000000019c .LVL35
     /tmp/cc1O35bA.s:369    .text:000000000000015c .LVL32
     /tmp/cc1O35bA.s:252    .text:00000000000000a4 .LVL20
     /tmp/cc1O35bA.s:270    .text:00000000000000c0 .LVL22
     /tmp/cc1O35bA.s:264    .text:00000000000000b8 .LVL21
     /tmp/cc1O35bA.s:307    .text:0000000000000100 .LVL27
     /tmp/cc1O35bA.s:184    .text:0000000000000044 .LVL11
GAS LISTING /tmp/cc1O35bA.s 			page 25


     /tmp/cc1O35bA.s:203    .text:0000000000000064 .LVL13
     /tmp/cc1O35bA.s:238    .text:000000000000009c .LVL19
     /tmp/cc1O35bA.s:199    .text:0000000000000060 .LVL12
     /tmp/cc1O35bA.s:222    .text:0000000000000088 .LVL16
     /tmp/cc1O35bA.s:225    .text:000000000000008c .LVL17
     /tmp/cc1O35bA.s:235    .text:0000000000000098 .LVL18
     /tmp/cc1O35bA.s:106    .text:0000000000000000 .LVL5
     /tmp/cc1O35bA.s:120    .text:000000000000001c .LVL6
     /tmp/cc1O35bA.s:139    .text:0000000000000040 .LVL8
     /tmp/cc1O35bA.s:67     .text._ZN6Thread11threadEntryEPv:0000000000000000 .LVL2
     /tmp/cc1O35bA.s:77     .text._ZN6Thread11threadEntryEPv:0000000000000010 .LVL3
     /tmp/cc1O35bA.s:153    .text._ZN6ThreadD0Ev:0000000000000000 .LVL9
     /tmp/cc1O35bA.s:594    .debug_info:0000000000000000 .Ldebug_info0
     /tmp/cc1O35bA.s:5      .text:0000000000000000 .Ltext0
     /tmp/cc1O35bA.s:584    .text:0000000000000290 .Letext0
     /tmp/cc1O35bA.s:341    .text:0000000000000124 .LBB17
     /tmp/cc1O35bA.s:381    .text:0000000000000170 .LBE17
     /tmp/cc1O35bA.s:399    .text:0000000000000194 .LBB20
     /tmp/cc1O35bA.s:405    .text:000000000000019c .LBE20
     /tmp/cc1O35bA.s:342    .text:0000000000000124 .LBB18
     /tmp/cc1O35bA.s:366    .text:0000000000000158 .LBE18
     /tmp/cc1O35bA.s:375    .text:0000000000000168 .LBB19
     /tmp/cc1O35bA.s:380    .text:0000000000000170 .LBE19
                           .group:0000000000000000 _ZN6ThreadD5Ev

UNDEFINED SYMBOLS
_Z15thread_dispatchv
_ZdlPv
_Z4putcc
_Z10time_sleepm
_Z11thread_exitv
_Z10sem_signalP5sem_s
_Z16kern_thread_initv
HEAP_END_ADDR
HEAP_START_ADDR
_Z13kern_mem_initPvS_
_Z19kern_interrupt_initv
_Z13kern_sem_initv
_Z17kern_console_initv
_Znwm
_Z13thread_createPP8thread_sPFvPvES2_
_Z6printfPKcz
_Z8userMainv
