GAS LISTING /tmp/cc4PJ8UF.s 			page 1


   1              		.file	"main.cpp"
   2              		.option pic
   3              		.option norelax
   4              		.text
   5              	.Ltext0:
   6              		.align	2
   7              		.globl	_Z5bodyBPv
   9              	_Z5bodyBPv:
  10              	.LFB1:
  11              		.file 1 "src/main.cpp"
   1:src/main.cpp  **** //
   2:src/main.cpp  **** // Created by os on 5/18/23.
   3:src/main.cpp  **** //
   4:src/main.cpp  **** #include "../lib/console.h"
   5:src/main.cpp  **** #include "../h/strings.h"
   6:src/main.cpp  **** #include "../lib/hw.h"
   7:src/main.cpp  **** 
   8:src/main.cpp  **** extern "C" {
   9:src/main.cpp  **** #include "../h/kern_threads.h"
  10:src/main.cpp  **** #include "../h/syscall_c.h"
  11:src/main.cpp  **** #include "../h/kern_memory.h"
  12:src/main.cpp  **** #include "../h/kern_interrupts.h"
  13:src/main.cpp  **** }
  14:src/main.cpp  **** 
  15:src/main.cpp  **** void bodyA(void* arg)
  16:src/main.cpp  **** {
  17:src/main.cpp  ****     for(int i=0;i<10;i++){
  18:src/main.cpp  ****         __putc('a');
  19:src/main.cpp  ****         thread_dispatch();
  20:src/main.cpp  ****     }
  21:src/main.cpp  **** }
  22:src/main.cpp  **** 
  23:src/main.cpp  **** int g=0;
  24:src/main.cpp  **** 
  25:src/main.cpp  **** void bodyB(void* arg)
  26:src/main.cpp  **** {
  12              		.loc 1 26 1
  13              		.cfi_startproc
  14              	.LVL0:
  15 0000 130101FE 		addi	sp,sp,-32
  16              		.cfi_def_cfa_offset 32
  17 0004 233C1100 		sd	ra,24(sp)
  18 0008 23388100 		sd	s0,16(sp)
  19 000c 23349100 		sd	s1,8(sp)
  20              		.cfi_offset 1, -8
  21              		.cfi_offset 8, -16
  22              		.cfi_offset 9, -24
  23 0010 13040102 		addi	s0,sp,32
  24              		.cfi_def_cfa 8, 0
  27:src/main.cpp  ****     for(int i=0;i<15;i++){
  25              		.loc 1 27 5
  26              	.LVL1:
  27              	.LBB2:
  28              		.loc 1 27 13 is_stmt 0
  29 0014 93040000 		li	s1,0
  30 0018 6F004005 		j	.L8
  31              	.LVL2:
GAS LISTING /tmp/cc4PJ8UF.s 			page 2


  32              	.L5:
  33              	.LBB3:
  34              	.LBB4:
  35              	.LBB5:
  28:src/main.cpp  ****         __putc('b');
  29:src/main.cpp  ****         for(int k=0;k<10000;k++){
  30:src/main.cpp  ****             for(int m=0;m<1000;m++){
  36              		.loc 1 30 13 is_stmt 1 discriminator 2
  37 001c 1B071700 		addiw	a4,a4,1
  38              	.LVL3:
  39              	.L6:
  40              		.loc 1 30 26 discriminator 1
  41 0020 9307703E 		li	a5,999
  42 0024 63C6E702 		bgt	a4,a5,.L4
  31:src/main.cpp  ****                 if((m*k)%1337==0) g++;
  43              		.loc 1 31 17
  44              		.loc 1 31 22 is_stmt 0
  45 0028 BB07E602 		mulw	a5,a2,a4
  46              		.loc 1 31 25
  47 002c 93069053 		li	a3,1337
  48 0030 BBE7D702 		remw	a5,a5,a3
  49              		.loc 1 31 17
  50 0034 E39407FE 		bnez	a5,.L5
  51              		.loc 1 31 35 is_stmt 1 discriminator 1
  52              		.loc 1 31 36 is_stmt 0 discriminator 1
  53 0038 97060000 		lla	a3,.LANCHOR0
  53      93860600 
  54 0040 83A70600 		lw	a5,0(a3)
  55 0044 9B871700 		addiw	a5,a5,1
  56 0048 23A0F600 		sw	a5,0(a3)
  57 004c 6FF01FFD 		j	.L5
  58              	.L4:
  59              	.LBE5:
  29:src/main.cpp  ****             for(int m=0;m<1000;m++){
  60              		.loc 1 29 9 is_stmt 1 discriminator 2
  61 0050 1B061600 		addiw	a2,a2,1
  62              	.LVL4:
  63              	.L7:
  29:src/main.cpp  ****             for(int m=0;m<1000;m++){
  64              		.loc 1 29 22 discriminator 1
  65 0054 B7270000 		li	a5,8192
  66 0058 9387F770 		addi	a5,a5,1807
  67 005c 63C6C700 		bgt	a2,a5,.L3
  68              	.LBB6:
  30:src/main.cpp  ****                 if((m*k)%1337==0) g++;
  69              		.loc 1 30 21 is_stmt 0
  70 0060 13070000 		li	a4,0
  71 0064 6FF0DFFB 		j	.L6
  72              	.L3:
  73              	.LBE6:
  74              	.LBE4:
  75              	.LBE3:
  27:src/main.cpp  ****         __putc('b');
  76              		.loc 1 27 5 is_stmt 1 discriminator 2
  77 0068 9B841400 		addiw	s1,s1,1
  78              	.LVL5:
  79              	.L8:
GAS LISTING /tmp/cc4PJ8UF.s 			page 3


  27:src/main.cpp  ****         __putc('b');
  80              		.loc 1 27 18 discriminator 1
  81 006c 9307E000 		li	a5,14
  82 0070 63CC9700 		bgt	s1,a5,.L1
  83              	.LBB8:
  28:src/main.cpp  ****         for(int k=0;k<10000;k++){
  84              		.loc 1 28 9
  28:src/main.cpp  ****         for(int k=0;k<10000;k++){
  85              		.loc 1 28 15 is_stmt 0
  86 0074 13052006 		li	a0,98
  87 0078 97000000 		call	__putc@plt
  87      E7800000 
  88              	.LVL6:
  29:src/main.cpp  ****             for(int m=0;m<1000;m++){
  89              		.loc 1 29 9 is_stmt 1
  90              	.LBB7:
  29:src/main.cpp  ****             for(int m=0;m<1000;m++){
  91              		.loc 1 29 17 is_stmt 0
  92 0080 13060000 		li	a2,0
  93 0084 6FF01FFD 		j	.L7
  94              	.LVL7:
  95              	.L1:
  96              	.LBE7:
  97              	.LBE8:
  98              	.LBE2:
  32:src/main.cpp  ****             }
  33:src/main.cpp  ****         }
  34:src/main.cpp  ****     }
  35:src/main.cpp  **** }
  99              		.loc 1 35 1
 100 0088 83308101 		ld	ra,24(sp)
 101              		.cfi_restore 1
 102 008c 03340101 		ld	s0,16(sp)
 103              		.cfi_restore 8
 104              		.cfi_def_cfa 2, 32
 105 0090 83348100 		ld	s1,8(sp)
 106              		.cfi_restore 9
 107              	.LVL8:
 108 0094 13010102 		addi	sp,sp,32
 109              		.cfi_def_cfa_offset 0
 110 0098 67800000 		jr	ra
 111              		.cfi_endproc
 112              	.LFE1:
 114              		.align	2
 115              		.globl	_Z5bodyAPv
 117              	_Z5bodyAPv:
 118              	.LFB0:
  16:src/main.cpp  ****     for(int i=0;i<10;i++){
 119              		.loc 1 16 1 is_stmt 1
 120              		.cfi_startproc
 121              	.LVL9:
 122 009c 130101FE 		addi	sp,sp,-32
 123              		.cfi_def_cfa_offset 32
 124 00a0 233C1100 		sd	ra,24(sp)
 125 00a4 23388100 		sd	s0,16(sp)
 126 00a8 23349100 		sd	s1,8(sp)
 127              		.cfi_offset 1, -8
GAS LISTING /tmp/cc4PJ8UF.s 			page 4


 128              		.cfi_offset 8, -16
 129              		.cfi_offset 9, -24
 130 00ac 13040102 		addi	s0,sp,32
 131              		.cfi_def_cfa 8, 0
  17:src/main.cpp  ****         __putc('a');
 132              		.loc 1 17 5
 133              	.LVL10:
 134              	.LBB9:
  17:src/main.cpp  ****         __putc('a');
 135              		.loc 1 17 13 is_stmt 0
 136 00b0 93040000 		li	s1,0
 137              	.LVL11:
 138              	.L12:
  17:src/main.cpp  ****         __putc('a');
 139              		.loc 1 17 18 is_stmt 1 discriminator 3
 140 00b4 93079000 		li	a5,9
 141 00b8 63C09702 		bgt	s1,a5,.L10
  18:src/main.cpp  ****         thread_dispatch();
 142              		.loc 1 18 9 discriminator 2
  18:src/main.cpp  ****         thread_dispatch();
 143              		.loc 1 18 15 is_stmt 0 discriminator 2
 144 00bc 13051006 		li	a0,97
 145 00c0 97000000 		call	__putc@plt
 145      E7800000 
 146              	.LVL12:
  19:src/main.cpp  ****     }
 147              		.loc 1 19 9 is_stmt 1 discriminator 2
  19:src/main.cpp  ****     }
 148              		.loc 1 19 24 is_stmt 0 discriminator 2
 149 00c8 97000000 		call	thread_dispatch@plt
 149      E7800000 
 150              	.LVL13:
  17:src/main.cpp  ****         __putc('a');
 151              		.loc 1 17 5 is_stmt 1 discriminator 2
 152 00d0 9B841400 		addiw	s1,s1,1
 153              	.LVL14:
 154 00d4 6FF01FFE 		j	.L12
 155              	.LVL15:
 156              	.L10:
 157              	.LBE9:
  21:src/main.cpp  **** 
 158              		.loc 1 21 1 is_stmt 0
 159 00d8 83308101 		ld	ra,24(sp)
 160              		.cfi_restore 1
 161 00dc 03340101 		ld	s0,16(sp)
 162              		.cfi_restore 8
 163              		.cfi_def_cfa 2, 32
 164 00e0 83348100 		ld	s1,8(sp)
 165              		.cfi_restore 9
 166              	.LVL16:
 167 00e4 13010102 		addi	sp,sp,32
 168              		.cfi_def_cfa_offset 0
 169 00e8 67800000 		jr	ra
 170              		.cfi_endproc
 171              	.LFE0:
 173              		.align	2
 174              		.globl	main
GAS LISTING /tmp/cc4PJ8UF.s 			page 5


 176              	main:
 177              	.LFB2:
  36:src/main.cpp  **** 
  37:src/main.cpp  **** 
  38:src/main.cpp  **** int main()
  39:src/main.cpp  **** {
 178              		.loc 1 39 1 is_stmt 1
 179              		.cfi_startproc
 180 00ec 130101FD 		addi	sp,sp,-48
 181              		.cfi_def_cfa_offset 48
 182 00f0 23341102 		sd	ra,40(sp)
 183 00f4 23308102 		sd	s0,32(sp)
 184 00f8 233C9100 		sd	s1,24(sp)
 185              		.cfi_offset 1, -8
 186              		.cfi_offset 8, -16
 187              		.cfi_offset 9, -24
 188 00fc 13040103 		addi	s0,sp,48
 189              		.cfi_def_cfa 8, 0
  40:src/main.cpp  ****     kern_thread_init();
 190              		.loc 1 40 5
 191              		.loc 1 40 21 is_stmt 0
 192 0100 97000000 		call	kern_thread_init@plt
 192      E7800000 
 193              	.LVL17:
  41:src/main.cpp  ****     __putc('o');
 194              		.loc 1 41 5 is_stmt 1
 195              		.loc 1 41 11 is_stmt 0
 196 0108 1305F006 		li	a0,111
 197 010c 97000000 		call	__putc@plt
 197      E7800000 
 198              	.LVL18:
  42:src/main.cpp  ****     __putc('s');
 199              		.loc 1 42 5 is_stmt 1
 200              		.loc 1 42 11 is_stmt 0
 201 0114 13053007 		li	a0,115
 202 0118 97000000 		call	__putc@plt
 202      E7800000 
 203              	.LVL19:
  43:src/main.cpp  ****     __putc('1');
 204              		.loc 1 43 5 is_stmt 1
 205              		.loc 1 43 11 is_stmt 0
 206 0120 13051003 		li	a0,49
 207 0124 97000000 		call	__putc@plt
 207      E7800000 
 208              	.LVL20:
  44:src/main.cpp  ****     //printstring("lalala");
  45:src/main.cpp  **** 
  46:src/main.cpp  ****     kern_mem_init((void*)HEAP_START_ADDR, (void*)HEAP_END_ADDR);
 209              		.loc 1 46 5 is_stmt 1
 210              		.loc 1 46 18 is_stmt 0
 211 012c 97070000 		la	a5,HEAP_END_ADDR
 211      83B70700 
 212 0134 83B50700 		ld	a1,0(a5)
 213 0138 97070000 		la	a5,HEAP_START_ADDR
 213      83B70700 
 214 0140 03B50700 		ld	a0,0(a5)
 215 0144 97000000 		call	kern_mem_init@plt
GAS LISTING /tmp/cc4PJ8UF.s 			page 6


 215      E7800000 
 216              	.LVL21:
  47:src/main.cpp  ****     kern_interrupt_init();
 217              		.loc 1 47 5 is_stmt 1
 218              		.loc 1 47 24 is_stmt 0
 219 014c 97000000 		call	kern_interrupt_init@plt
 219      E7800000 
 220              	.LVL22:
  48:src/main.cpp  ****     /*
  49:src/main.cpp  ****     void* a;
  50:src/main.cpp  ****     void* b;
  51:src/main.cpp  ****     void* c;
  52:src/main.cpp  ****     a = kern_mem_alloc(64);
  53:src/main.cpp  ****     b = kern_mem_alloc(64);
  54:src/main.cpp  ****     c = kern_mem_alloc(64);
  55:src/main.cpp  **** 
  56:src/main.cpp  **** 
  57:src/main.cpp  ****     kern_mem_free(a);
  58:src/main.cpp  ****     kern_mem_free(c);
  59:src/main.cpp  ****     kern_mem_free(b);
  60:src/main.cpp  **** 
  61:src/main.cpp  **** 
  62:src/main.cpp  ****     a= mem_alloc(64);
  63:src/main.cpp  ****     mem_free(a);
  64:src/main.cpp  **** */
  65:src/main.cpp  ****     thread_t thrA, thrB;
 221              		.loc 1 65 5 is_stmt 1
  66:src/main.cpp  ****     thread_create(&thrA,&bodyA,0);
 222              		.loc 1 66 5
 223              		.loc 1 66 18 is_stmt 0
 224 0154 13060000 		li	a2,0
 225 0158 97050000 		lla	a1,_Z5bodyAPv
 225      93850500 
 226 0160 130584FD 		addi	a0,s0,-40
 227 0164 97000000 		call	thread_create@plt
 227      E7800000 
 228              	.LVL23:
  67:src/main.cpp  ****     thread_create(&thrB,&bodyB,0);
 229              		.loc 1 67 5 is_stmt 1
 230              		.loc 1 67 18 is_stmt 0
 231 016c 13060000 		li	a2,0
 232 0170 97050000 		lla	a1,_Z5bodyBPv
 232      93850500 
 233 0178 130504FD 		addi	a0,s0,-48
 234 017c 97000000 		call	thread_create@plt
 234      E7800000 
 235              	.LVL24:
  68:src/main.cpp  **** 
  69:src/main.cpp  **** 
  70:src/main.cpp  **** 
  71:src/main.cpp  ****     char chr = '0';
 236              		.loc 1 71 10
 237 0184 93040003 		li	s1,48
 238              	.L15:
 239              	.LVL25:
  72:src/main.cpp  ****     while (1){
 240              		.loc 1 72 5 is_stmt 1
GAS LISTING /tmp/cc4PJ8UF.s 			page 7


  73:src/main.cpp  ****         __putc(chr++);
 241              		.loc 1 73 9
 242 0188 13850400 		mv	a0,s1
 243              		.loc 1 73 15 is_stmt 0
 244 018c 9B841400 		addiw	s1,s1,1
 245              	.LVL26:
 246 0190 93F4F40F 		andi	s1,s1,0xff
 247              	.LVL27:
 248 0194 97000000 		call	__putc@plt
 248      E7800000 
 249              	.LVL28:
  74:src/main.cpp  ****         thread_dispatch();
 250              		.loc 1 74 9 is_stmt 1
 251              		.loc 1 74 24 is_stmt 0
 252 019c 97000000 		call	thread_dispatch@plt
 252      E7800000 
 253              	.LVL29:
  75:src/main.cpp  ****         if(thrA->status==UNUSED && thrB->status==UNUSED) break;
 254              		.loc 1 75 9 is_stmt 1
 255              		.loc 1 75 18 is_stmt 0
 256 01a4 833784FD 		ld	a5,-40(s0)
 257 01a8 83A74704 		lw	a5,68(a5)
 258              		.loc 1 75 9
 259 01ac E39E07FC 		bnez	a5,.L15
 260              		.loc 1 75 42 discriminator 1
 261 01b0 833704FD 		ld	a5,-48(s0)
 262 01b4 83A74704 		lw	a5,68(a5)
 263              		.loc 1 75 33 discriminator 1
 264 01b8 E39807FC 		bnez	a5,.L15
  76:src/main.cpp  ****     }
  77:src/main.cpp  **** 
  78:src/main.cpp  ****     __putc('E');
 265              		.loc 1 78 5 is_stmt 1
 266              		.loc 1 78 11 is_stmt 0
 267 01bc 13055004 		li	a0,69
 268 01c0 97000000 		call	__putc@plt
 268      E7800000 
 269              	.LVL30:
 270              	.L16:
  79:src/main.cpp  **** 
  80:src/main.cpp  ****     while(1);
 271              		.loc 1 80 5 is_stmt 1 discriminator 1
 272              		.loc 1 80 5 discriminator 1
 273 01c8 6F000000 		j	.L16
 274              		.cfi_endproc
 275              	.LFE2:
 277              		.globl	g
 278              		.bss
 279              		.align	2
 280              		.set	.LANCHOR0,. + 0
 283              	g:
 284 0000 00000000 		.zero	4
 285              		.text
 286              	.Letext0:
 287              		.file 2 "src/../lib/hw.h"
 288              		.file 3 "src/../h/kern_threads.h"
 289              		.file 4 "src/../lib/console.h"
GAS LISTING /tmp/cc4PJ8UF.s 			page 8


 290              		.file 5 "src/../h/kern_memory.h"
 291              		.file 6 "src/../h/kern_interrupts.h"
 292              		.file 7 "src/../h/syscall_c.h"
GAS LISTING /tmp/cc4PJ8UF.s 			page 9


DEFINED SYMBOLS
                            *ABS*:0000000000000000 main.cpp
     /tmp/cc4PJ8UF.s:9      .text:0000000000000000 _Z5bodyBPv
     /tmp/cc4PJ8UF.s:13     .text:0000000000000000 .L0 
     /tmp/cc4PJ8UF.s:15     .text:0000000000000000 .L0 
     /tmp/cc4PJ8UF.s:16     .text:0000000000000004 .L0 
     /tmp/cc4PJ8UF.s:20     .text:0000000000000010 .L0 
     /tmp/cc4PJ8UF.s:21     .text:0000000000000010 .L0 
     /tmp/cc4PJ8UF.s:22     .text:0000000000000010 .L0 
     /tmp/cc4PJ8UF.s:24     .text:0000000000000014 .L0 
     /tmp/cc4PJ8UF.s:28     .text:0000000000000014 .L0 
     /tmp/cc4PJ8UF.s:29     .text:0000000000000014 .L0 
     /tmp/cc4PJ8UF.s:37     .text:000000000000001c .L0 
     /tmp/cc4PJ8UF.s:41     .text:0000000000000020 .L0 
     /tmp/cc4PJ8UF.s:44     .text:0000000000000028 .L0 
     /tmp/cc4PJ8UF.s:45     .text:0000000000000028 .L0 
     /tmp/cc4PJ8UF.s:47     .text:000000000000002c .L0 
     /tmp/cc4PJ8UF.s:50     .text:0000000000000034 .L0 
     /tmp/cc4PJ8UF.s:52     .text:0000000000000038 .L0 
     /tmp/cc4PJ8UF.s:53     .text:0000000000000038 .L0 
     /tmp/cc4PJ8UF.s:61     .text:0000000000000050 .L0 
     /tmp/cc4PJ8UF.s:65     .text:0000000000000054 .L0 
     /tmp/cc4PJ8UF.s:70     .text:0000000000000060 .L0 
     /tmp/cc4PJ8UF.s:77     .text:0000000000000068 .L0 
     /tmp/cc4PJ8UF.s:81     .text:000000000000006c .L0 
     /tmp/cc4PJ8UF.s:85     .text:0000000000000074 .L0 
     /tmp/cc4PJ8UF.s:86     .text:0000000000000074 .L0 
     /tmp/cc4PJ8UF.s:91     .text:0000000000000080 .L0 
     /tmp/cc4PJ8UF.s:92     .text:0000000000000080 .L0 
     /tmp/cc4PJ8UF.s:100    .text:0000000000000088 .L0 
     /tmp/cc4PJ8UF.s:101    .text:000000000000008c .L0 
     /tmp/cc4PJ8UF.s:103    .text:0000000000000090 .L0 
     /tmp/cc4PJ8UF.s:104    .text:0000000000000090 .L0 
     /tmp/cc4PJ8UF.s:106    .text:0000000000000094 .L0 
     /tmp/cc4PJ8UF.s:109    .text:0000000000000098 .L0 
     /tmp/cc4PJ8UF.s:111    .text:000000000000009c .L0 
     /tmp/cc4PJ8UF.s:117    .text:000000000000009c _Z5bodyAPv
     /tmp/cc4PJ8UF.s:120    .text:000000000000009c .L0 
     /tmp/cc4PJ8UF.s:122    .text:000000000000009c .L0 
     /tmp/cc4PJ8UF.s:123    .text:00000000000000a0 .L0 
     /tmp/cc4PJ8UF.s:127    .text:00000000000000ac .L0 
     /tmp/cc4PJ8UF.s:128    .text:00000000000000ac .L0 
     /tmp/cc4PJ8UF.s:129    .text:00000000000000ac .L0 
     /tmp/cc4PJ8UF.s:131    .text:00000000000000b0 .L0 
     /tmp/cc4PJ8UF.s:135    .text:00000000000000b0 .L0 
     /tmp/cc4PJ8UF.s:136    .text:00000000000000b0 .L0 
     /tmp/cc4PJ8UF.s:140    .text:00000000000000b4 .L0 
     /tmp/cc4PJ8UF.s:143    .text:00000000000000bc .L0 
     /tmp/cc4PJ8UF.s:144    .text:00000000000000bc .L0 
     /tmp/cc4PJ8UF.s:148    .text:00000000000000c8 .L0 
     /tmp/cc4PJ8UF.s:149    .text:00000000000000c8 .L0 
     /tmp/cc4PJ8UF.s:152    .text:00000000000000d0 .L0 
     /tmp/cc4PJ8UF.s:159    .text:00000000000000d8 .L0 
     /tmp/cc4PJ8UF.s:160    .text:00000000000000dc .L0 
     /tmp/cc4PJ8UF.s:162    .text:00000000000000e0 .L0 
     /tmp/cc4PJ8UF.s:163    .text:00000000000000e0 .L0 
     /tmp/cc4PJ8UF.s:165    .text:00000000000000e4 .L0 
GAS LISTING /tmp/cc4PJ8UF.s 			page 10


     /tmp/cc4PJ8UF.s:168    .text:00000000000000e8 .L0 
     /tmp/cc4PJ8UF.s:170    .text:00000000000000ec .L0 
     /tmp/cc4PJ8UF.s:176    .text:00000000000000ec main
     /tmp/cc4PJ8UF.s:179    .text:00000000000000ec .L0 
     /tmp/cc4PJ8UF.s:180    .text:00000000000000ec .L0 
     /tmp/cc4PJ8UF.s:181    .text:00000000000000f0 .L0 
     /tmp/cc4PJ8UF.s:185    .text:00000000000000fc .L0 
     /tmp/cc4PJ8UF.s:186    .text:00000000000000fc .L0 
     /tmp/cc4PJ8UF.s:187    .text:00000000000000fc .L0 
     /tmp/cc4PJ8UF.s:189    .text:0000000000000100 .L0 
     /tmp/cc4PJ8UF.s:191    .text:0000000000000100 .L0 
     /tmp/cc4PJ8UF.s:192    .text:0000000000000100 .L0 
     /tmp/cc4PJ8UF.s:195    .text:0000000000000108 .L0 
     /tmp/cc4PJ8UF.s:196    .text:0000000000000108 .L0 
     /tmp/cc4PJ8UF.s:200    .text:0000000000000114 .L0 
     /tmp/cc4PJ8UF.s:201    .text:0000000000000114 .L0 
     /tmp/cc4PJ8UF.s:205    .text:0000000000000120 .L0 
     /tmp/cc4PJ8UF.s:206    .text:0000000000000120 .L0 
     /tmp/cc4PJ8UF.s:210    .text:000000000000012c .L0 
     /tmp/cc4PJ8UF.s:211    .text:000000000000012c .L0 
     /tmp/cc4PJ8UF.s:218    .text:000000000000014c .L0 
     /tmp/cc4PJ8UF.s:219    .text:000000000000014c .L0 
     /tmp/cc4PJ8UF.s:222    .text:0000000000000154 .L0 
     /tmp/cc4PJ8UF.s:223    .text:0000000000000154 .L0 
     /tmp/cc4PJ8UF.s:224    .text:0000000000000154 .L0 
     /tmp/cc4PJ8UF.s:230    .text:000000000000016c .L0 
     /tmp/cc4PJ8UF.s:231    .text:000000000000016c .L0 
     /tmp/cc4PJ8UF.s:237    .text:0000000000000184 .L0 
     /tmp/cc4PJ8UF.s:241    .text:0000000000000188 .L0 
     /tmp/cc4PJ8UF.s:242    .text:0000000000000188 .L0 
     /tmp/cc4PJ8UF.s:244    .text:000000000000018c .L0 
     /tmp/cc4PJ8UF.s:251    .text:000000000000019c .L0 
     /tmp/cc4PJ8UF.s:252    .text:000000000000019c .L0 
     /tmp/cc4PJ8UF.s:255    .text:00000000000001a4 .L0 
     /tmp/cc4PJ8UF.s:256    .text:00000000000001a4 .L0 
     /tmp/cc4PJ8UF.s:259    .text:00000000000001ac .L0 
     /tmp/cc4PJ8UF.s:261    .text:00000000000001b0 .L0 
     /tmp/cc4PJ8UF.s:264    .text:00000000000001b8 .L0 
     /tmp/cc4PJ8UF.s:266    .text:00000000000001bc .L0 
     /tmp/cc4PJ8UF.s:267    .text:00000000000001bc .L0 
     /tmp/cc4PJ8UF.s:272    .text:00000000000001c8 .L0 
     /tmp/cc4PJ8UF.s:273    .text:00000000000001c8 .L0 
     /tmp/cc4PJ8UF.s:274    .text:00000000000001cc .L0 
     /tmp/cc4PJ8UF.s:283    .bss:0000000000000000 g
     /tmp/cc4PJ8UF.s:280    .bss:0000000000000000 .LANCHOR0
     /tmp/cc4PJ8UF.s:293    .text:00000000000001cc .L0 
     /tmp/cc4PJ8UF.s:53     .text:0000000000000038 .L0 
     /tmp/cc4PJ8UF.s:211    .text:000000000000012c .L0 
     /tmp/cc4PJ8UF.s:213    .text:0000000000000138 .L0 
     /tmp/cc4PJ8UF.s:225    .text:0000000000000158 .L0 
     /tmp/cc4PJ8UF.s:232    .text:0000000000000170 .L0 
     /tmp/cc4PJ8UF.s:79     .text:000000000000006c .L8
     /tmp/cc4PJ8UF.s:58     .text:0000000000000050 .L4
     /tmp/cc4PJ8UF.s:32     .text:000000000000001c .L5
     /tmp/cc4PJ8UF.s:72     .text:0000000000000068 .L3
     /tmp/cc4PJ8UF.s:39     .text:0000000000000020 .L6
     /tmp/cc4PJ8UF.s:95     .text:0000000000000088 .L1
GAS LISTING /tmp/cc4PJ8UF.s 			page 11


     /tmp/cc4PJ8UF.s:63     .text:0000000000000054 .L7
     /tmp/cc4PJ8UF.s:156    .text:00000000000000d8 .L10
     /tmp/cc4PJ8UF.s:138    .text:00000000000000b4 .L12
     /tmp/cc4PJ8UF.s:238    .text:0000000000000188 .L15
     /tmp/cc4PJ8UF.s:270    .text:00000000000001c8 .L16
     /tmp/cc4PJ8UF.s:873    .debug_abbrev:0000000000000000 .Ldebug_abbrev0
     /tmp/cc4PJ8UF.s:1486   .debug_str:0000000000000100 .LASF49
     /tmp/cc4PJ8UF.s:1492   .debug_str:00000000000001d7 .LASF50
     /tmp/cc4PJ8UF.s:1526   .debug_str:000000000000028d .LASF51
     /tmp/cc4PJ8UF.s:5      .text:0000000000000000 .Ltext0
     /tmp/cc4PJ8UF.s:286    .text:00000000000001cc .Letext0
     /tmp/cc4PJ8UF.s:1442   .debug_line:0000000000000000 .Ldebug_line0
     /tmp/cc4PJ8UF.s:1494   .debug_str:00000000000001e4 .LASF0
     /tmp/cc4PJ8UF.s:1470   .debug_str:00000000000000b2 .LASF1
     /tmp/cc4PJ8UF.s:1462   .debug_str:000000000000007b .LASF2
     /tmp/cc4PJ8UF.s:1450   .debug_str:0000000000000028 .LASF4
     /tmp/cc4PJ8UF.s:1466   .debug_str:000000000000008f .LASF3
     /tmp/cc4PJ8UF.s:1446   .debug_str:0000000000000013 .LASF5
     /tmp/cc4PJ8UF.s:1444   .debug_str:0000000000000000 .LASF6
     /tmp/cc4PJ8UF.s:1458   .debug_str:0000000000000059 .LASF7
     /tmp/cc4PJ8UF.s:1502   .debug_str:0000000000000209 .LASF8
     /tmp/cc4PJ8UF.s:1448   .debug_str:000000000000001a .LASF9
     /tmp/cc4PJ8UF.s:1548   .debug_str:0000000000000316 .LASF10
     /tmp/cc4PJ8UF.s:1460   .debug_str:000000000000006c .LASF11
     /tmp/cc4PJ8UF.s:1536   .debug_str:00000000000002e1 .LASF12
     /tmp/cc4PJ8UF.s:1508   .debug_str:0000000000000238 .LASF13
     /tmp/cc4PJ8UF.s:1476   .debug_str:00000000000000d1 .LASF14
     /tmp/cc4PJ8UF.s:1454   .debug_str:0000000000000038 .LASF15
     /tmp/cc4PJ8UF.s:1504   .debug_str:0000000000000219 .LASF16
     /tmp/cc4PJ8UF.s:1482   .debug_str:00000000000000ec .LASF21
     /tmp/cc4PJ8UF.s:1520   .debug_str:0000000000000279 .LASF17
     /tmp/cc4PJ8UF.s:1538   .debug_str:00000000000002f1 .LASF18
     /tmp/cc4PJ8UF.s:1464   .debug_str:0000000000000089 .LASF19
     /tmp/cc4PJ8UF.s:1478   .debug_str:00000000000000dd .LASF20
     /tmp/cc4PJ8UF.s:1456   .debug_str:000000000000004e .LASF22
     /tmp/cc4PJ8UF.s:1540   .debug_str:00000000000002f9 .LASF23
     /tmp/cc4PJ8UF.s:1518   .debug_str:0000000000000270 .LASF24
     /tmp/cc4PJ8UF.s:1452   .debug_str:000000000000002f .LASF52
     /tmp/cc4PJ8UF.s:1480   .debug_str:00000000000000e7 .LASF25
     /tmp/cc4PJ8UF.s:1530   .debug_str:00000000000002b8 .LASF26
     /tmp/cc4PJ8UF.s:1510   .debug_str:0000000000000248 .LASF27
     /tmp/cc4PJ8UF.s:1516   .debug_str:0000000000000268 .LASF28
     /tmp/cc4PJ8UF.s:1524   .debug_str:0000000000000288 .LASF29
     /tmp/cc4PJ8UF.s:1514   .debug_str:0000000000000261 .LASF30
     /tmp/cc4PJ8UF.s:1512   .debug_str:0000000000000252 .LASF31
     /tmp/cc4PJ8UF.s:1506   .debug_str:000000000000022f .LASF32
     /tmp/cc4PJ8UF.s:1496   .debug_str:00000000000001f1 .LASF33
     /tmp/cc4PJ8UF.s:1522   .debug_str:0000000000000280 .LASF34
     /tmp/cc4PJ8UF.s:1488   .debug_str:00000000000001c4 .LASF38
     /tmp/cc4PJ8UF.s:177    .text:00000000000000ec .LFB2
     /tmp/cc4PJ8UF.s:275    .text:00000000000001cc .LFE2
     /tmp/cc4PJ8UF.s:1542   .debug_str:0000000000000301 .LASF35
     /tmp/cc4PJ8UF.s:1544   .debug_str:0000000000000306 .LASF36
     /tmp/cc4PJ8UF.s:1329   .debug_loc:0000000000000000 .LLST6
     /tmp/cc4PJ8UF.s:193    .text:0000000000000108 .LVL17
     /tmp/cc4PJ8UF.s:198    .text:0000000000000114 .LVL18
     /tmp/cc4PJ8UF.s:203    .text:0000000000000120 .LVL19
GAS LISTING /tmp/cc4PJ8UF.s 			page 12


     /tmp/cc4PJ8UF.s:208    .text:000000000000012c .LVL20
     /tmp/cc4PJ8UF.s:216    .text:000000000000014c .LVL21
     /tmp/cc4PJ8UF.s:220    .text:0000000000000154 .LVL22
     /tmp/cc4PJ8UF.s:228    .text:000000000000016c .LVL23
     /tmp/cc4PJ8UF.s:235    .text:0000000000000184 .LVL24
     /tmp/cc4PJ8UF.s:249    .text:000000000000019c .LVL28
     /tmp/cc4PJ8UF.s:253    .text:00000000000001a4 .LVL29
     /tmp/cc4PJ8UF.s:269    .text:00000000000001c8 .LVL30
     /tmp/cc4PJ8UF.s:1498   .debug_str:00000000000001f9 .LASF37
     /tmp/cc4PJ8UF.s:1474   .debug_str:00000000000000cb .LASF39
     /tmp/cc4PJ8UF.s:1546   .debug_str:000000000000030b .LASF41
     /tmp/cc4PJ8UF.s:10     .text:0000000000000000 .LFB1
     /tmp/cc4PJ8UF.s:112    .text:000000000000009c .LFE1
     /tmp/cc4PJ8UF.s:1340   .debug_loc:0000000000000036 .LLST0
     /tmp/cc4PJ8UF.s:27     .text:0000000000000014 .LBB2
     /tmp/cc4PJ8UF.s:98     .text:0000000000000088 .LBE2
     /tmp/cc4PJ8UF.s:1354   .debug_loc:000000000000006f .LLST1
     /tmp/cc4PJ8UF.s:1428   .debug_ranges:0000000000000000 .Ldebug_ranges0
     /tmp/cc4PJ8UF.s:1366   .debug_loc:00000000000000a6 .LLST2
     /tmp/cc4PJ8UF.s:1378   .debug_loc:00000000000000dd .LLST3
     /tmp/cc4PJ8UF.s:88     .text:0000000000000080 .LVL6
     /tmp/cc4PJ8UF.s:1472   .debug_str:00000000000000c5 .LASF40
     /tmp/cc4PJ8UF.s:1500   .debug_str:00000000000001fe .LASF42
     /tmp/cc4PJ8UF.s:118    .text:000000000000009c .LFB0
     /tmp/cc4PJ8UF.s:171    .text:00000000000000ec .LFE0
     /tmp/cc4PJ8UF.s:1385   .debug_loc:0000000000000100 .LLST4
     /tmp/cc4PJ8UF.s:134    .text:00000000000000b0 .LBB9
     /tmp/cc4PJ8UF.s:157    .text:00000000000000d8 .LBE9
     /tmp/cc4PJ8UF.s:1399   .debug_loc:0000000000000139 .LLST5
     /tmp/cc4PJ8UF.s:146    .text:00000000000000c8 .LVL12
     /tmp/cc4PJ8UF.s:150    .text:00000000000000d0 .LVL13
     /tmp/cc4PJ8UF.s:1468   .debug_str:00000000000000a1 .LASF43
     /tmp/cc4PJ8UF.s:1484   .debug_str:00000000000000f9 .LASF44
     /tmp/cc4PJ8UF.s:1490   .debug_str:00000000000001c9 .LASF45
     /tmp/cc4PJ8UF.s:1528   .debug_str:00000000000002a4 .LASF46
     /tmp/cc4PJ8UF.s:1532   .debug_str:00000000000002c3 .LASF47
     /tmp/cc4PJ8UF.s:1534   .debug_str:00000000000002d1 .LASF48
     /tmp/cc4PJ8UF.s:239    .text:0000000000000188 .LVL25
     /tmp/cc4PJ8UF.s:245    .text:0000000000000190 .LVL26
     /tmp/cc4PJ8UF.s:247    .text:0000000000000194 .LVL27
     /tmp/cc4PJ8UF.s:14     .text:0000000000000000 .LVL0
     /tmp/cc4PJ8UF.s:31     .text:000000000000001c .LVL2
     /tmp/cc4PJ8UF.s:26     .text:0000000000000014 .LVL1
     /tmp/cc4PJ8UF.s:107    .text:0000000000000094 .LVL8
     /tmp/cc4PJ8UF.s:78     .text:000000000000006c .LVL5
     /tmp/cc4PJ8UF.s:94     .text:0000000000000088 .LVL7
     /tmp/cc4PJ8UF.s:62     .text:0000000000000054 .LVL4
     /tmp/cc4PJ8UF.s:121    .text:000000000000009c .LVL9
     /tmp/cc4PJ8UF.s:137    .text:00000000000000b4 .LVL11
     /tmp/cc4PJ8UF.s:133    .text:00000000000000b0 .LVL10
     /tmp/cc4PJ8UF.s:153    .text:00000000000000d4 .LVL14
     /tmp/cc4PJ8UF.s:155    .text:00000000000000d8 .LVL15
     /tmp/cc4PJ8UF.s:166    .text:00000000000000e4 .LVL16
     /tmp/cc4PJ8UF.s:294    .debug_info:0000000000000000 .Ldebug_info0
     /tmp/cc4PJ8UF.s:34     .text:000000000000001c .LBB4
     /tmp/cc4PJ8UF.s:74     .text:0000000000000068 .LBE4
     /tmp/cc4PJ8UF.s:90     .text:0000000000000080 .LBB7
GAS LISTING /tmp/cc4PJ8UF.s 			page 13


     /tmp/cc4PJ8UF.s:96     .text:0000000000000088 .LBE7
     /tmp/cc4PJ8UF.s:35     .text:000000000000001c .LBB5
     /tmp/cc4PJ8UF.s:59     .text:0000000000000050 .LBE5
     /tmp/cc4PJ8UF.s:68     .text:0000000000000060 .LBB6
     /tmp/cc4PJ8UF.s:73     .text:0000000000000068 .LBE6

UNDEFINED SYMBOLS
__putc
thread_dispatch
kern_thread_init
HEAP_END_ADDR
HEAP_START_ADDR
kern_mem_init
kern_interrupt_init
thread_create
