GAS LISTING /tmp/ccEAUEgO.s 			page 1


   1              		.file	"main.cpp"
   2              		.option pic
   3              		.option norelax
   4              		.text
   5              	.Ltext0:
   6              		.section	.text._ZN6ThreadD2Ev,"axG",@progbits,_ZN6ThreadD5Ev,comdat
   7              		.align	2
   8              		.weak	_ZN6ThreadD2Ev
  10              	_ZN6ThreadD2Ev:
  11              	.LFB4:
  12              		.file 1 "src/../h/syscall_cpp.hpp"
   1:src/../h/syscall_cpp.hpp **** //
   2:src/../h/syscall_cpp.hpp **** // Created by os on 6/5/23.
   3:src/../h/syscall_cpp.hpp **** //
   4:src/../h/syscall_cpp.hpp **** 
   5:src/../h/syscall_cpp.hpp **** #ifndef OS1_SYSCALL_CPP_HPP
   6:src/../h/syscall_cpp.hpp **** #define OS1_SYSCALL_CPP_HPP
   7:src/../h/syscall_cpp.hpp **** #ifndef _syscall_cpp
   8:src/../h/syscall_cpp.hpp **** #define _syscall_cpp
   9:src/../h/syscall_cpp.hpp **** 
  10:src/../h/syscall_cpp.hpp **** #include "syscall_c.h"
  11:src/../h/syscall_cpp.hpp **** #include "kern_semaphore.hpp"
  12:src/../h/syscall_cpp.hpp **** #include "kern_threads.hpp"
  13:src/../h/syscall_cpp.hpp **** #include "kern_memory.hpp"
  14:src/../h/syscall_cpp.hpp **** #include "syscall_c.h"
  15:src/../h/syscall_cpp.hpp **** #include "../lib/console.h"
  16:src/../h/syscall_cpp.hpp **** 
  17:src/../h/syscall_cpp.hpp **** 
  18:src/../h/syscall_cpp.hpp **** void* operator new(size_t size);
  19:src/../h/syscall_cpp.hpp **** void operator delete(void* ptr);
  20:src/../h/syscall_cpp.hpp **** 
  21:src/../h/syscall_cpp.hpp **** class Thread {
  22:src/../h/syscall_cpp.hpp ****         public:
  23:src/../h/syscall_cpp.hpp ****         Thread (void (*body)(void*), void* arg)
  24:src/../h/syscall_cpp.hpp ****         {
  25:src/../h/syscall_cpp.hpp ****             this->body=body;
  26:src/../h/syscall_cpp.hpp ****             this->arg=arg;
  27:src/../h/syscall_cpp.hpp ****         }
  28:src/../h/syscall_cpp.hpp ****         virtual ~Thread (){
  13              		.loc 1 28 17
  14              		.cfi_startproc
  15              	.LVL0:
  16 0000 130101FF 		addi	sp,sp,-16
  17              		.cfi_def_cfa_offset 16
  18 0004 23348100 		sd	s0,8(sp)
  19              		.cfi_offset 8, -8
  20 0008 13040101 		addi	s0,sp,16
  21              		.cfi_def_cfa 8, 0
  29:src/../h/syscall_cpp.hpp ****         }
  22              		.loc 1 29 9 is_stmt 0
  23 000c 03348100 		ld	s0,8(sp)
  24              		.cfi_restore 8
  25              		.cfi_def_cfa 2, 16
  26 0010 13010101 		addi	sp,sp,16
  27              		.cfi_def_cfa_offset 0
  28 0014 67800000 		jr	ra
  29              		.cfi_endproc
GAS LISTING /tmp/ccEAUEgO.s 			page 2


  30              	.LFE4:
  32              		.weak	_ZN6ThreadD1Ev
  33              		.set	_ZN6ThreadD1Ev,_ZN6ThreadD2Ev
  34              		.section	.text._ZN6Thread3runEv,"axG",@progbits,_ZN6Thread3runEv,comdat
  35              		.align	2
  36              		.weak	_ZN6Thread3runEv
  38              	_ZN6Thread3runEv:
  39              	.LFB14:
  30:src/../h/syscall_cpp.hpp ****         int start (){
  31:src/../h/syscall_cpp.hpp ****             if(body== nullptr) return thread_create(&myHandle,&threadEntry, this);
  32:src/../h/syscall_cpp.hpp ****             else return thread_create(&myHandle,body,arg);
  33:src/../h/syscall_cpp.hpp ****         }
  34:src/../h/syscall_cpp.hpp ****         void join(){
  35:src/../h/syscall_cpp.hpp ****             thread_join(myHandle);
  36:src/../h/syscall_cpp.hpp ****         }
  37:src/../h/syscall_cpp.hpp ****         static void dispatch (){
  38:src/../h/syscall_cpp.hpp ****             thread_dispatch();
  39:src/../h/syscall_cpp.hpp ****         }
  40:src/../h/syscall_cpp.hpp ****         static int sleep (uint64 time){
  41:src/../h/syscall_cpp.hpp ****             return time_sleep(time);
  42:src/../h/syscall_cpp.hpp ****         }
  43:src/../h/syscall_cpp.hpp ****         protected:
  44:src/../h/syscall_cpp.hpp ****         Thread (){
  45:src/../h/syscall_cpp.hpp ****             body= nullptr;
  46:src/../h/syscall_cpp.hpp ****             arg= nullptr;
  47:src/../h/syscall_cpp.hpp ****         }
  48:src/../h/syscall_cpp.hpp ****         virtual void run () {}
  40              		.loc 1 48 22 is_stmt 1
  41              		.cfi_startproc
  42              	.LVL1:
  43 0000 130101FF 		addi	sp,sp,-16
  44              		.cfi_def_cfa_offset 16
  45 0004 23348100 		sd	s0,8(sp)
  46              		.cfi_offset 8, -8
  47 0008 13040101 		addi	s0,sp,16
  48              		.cfi_def_cfa 8, 0
  49              		.loc 1 48 30 is_stmt 0
  50 000c 03348100 		ld	s0,8(sp)
  51              		.cfi_restore 8
  52              		.cfi_def_cfa 2, 16
  53 0010 13010101 		addi	sp,sp,16
  54              		.cfi_def_cfa_offset 0
  55 0014 67800000 		jr	ra
  56              		.cfi_endproc
  57              	.LFE14:
  59              		.section	.text._ZN6Thread11threadEntryEPv,"axG",@progbits,_ZN6Thread11threadEntryEPv,comdat
  60              		.align	2
  61              		.weak	_ZN6Thread11threadEntryEPv
  63              	_ZN6Thread11threadEntryEPv:
  64              	.LFB15:
  49:src/../h/syscall_cpp.hpp **** 
  50:src/../h/syscall_cpp.hpp ****         static void threadEntry(void* arg){
  65              		.loc 1 50 21 is_stmt 1
  66              		.cfi_startproc
  67              	.LVL2:
  68 0000 130101FF 		addi	sp,sp,-16
  69              		.cfi_def_cfa_offset 16
GAS LISTING /tmp/ccEAUEgO.s 			page 3


  70 0004 23341100 		sd	ra,8(sp)
  71 0008 23308100 		sd	s0,0(sp)
  72              		.cfi_offset 1, -8
  73              		.cfi_offset 8, -16
  74 000c 13040101 		addi	s0,sp,16
  75              		.cfi_def_cfa 8, 0
  51:src/../h/syscall_cpp.hpp ****             Thread* self = static_cast<Thread*>(arg);
  76              		.loc 1 51 13
  77              	.LVL3:
  52:src/../h/syscall_cpp.hpp ****             self->run();
  78              		.loc 1 52 13
  79              		.loc 1 52 23 is_stmt 0
  80 0010 83370500 		ld	a5,0(a0)
  81 0014 83B70701 		ld	a5,16(a5)
  82              		.loc 1 52 22
  83 0018 E7800700 		jalr	a5
  84              	.LVL4:
  53:src/../h/syscall_cpp.hpp ****         }
  85              		.loc 1 53 9
  86 001c 83308100 		ld	ra,8(sp)
  87              		.cfi_restore 1
  88 0020 03340100 		ld	s0,0(sp)
  89              		.cfi_restore 8
  90              		.cfi_def_cfa 2, 16
  91 0024 13010101 		addi	sp,sp,16
  92              		.cfi_def_cfa_offset 0
  93 0028 67800000 		jr	ra
  94              		.cfi_endproc
  95              	.LFE15:
  97              		.section	.text._ZN12PeriodicTestD2Ev,"axG",@progbits,_ZN12PeriodicTestD5Ev,comdat
  98              		.align	2
  99              		.weak	_ZN12PeriodicTestD2Ev
 101              	_ZN12PeriodicTestD2Ev:
 102              	.LFB47:
 103              		.file 2 "src/main.cpp"
   1:src/main.cpp  **** //
   2:src/main.cpp  **** // Created by os on 5/18/23.
   3:src/main.cpp  **** //
   4:src/main.cpp  **** #include "../lib/console.h"
   5:src/main.cpp  **** #include "../h/syscall_cpp.hpp"
   6:src/main.cpp  **** #include "../h/syscall_c.h"
   7:src/main.cpp  **** #include "../lib/hw.h"
   8:src/main.cpp  **** 
   9:src/main.cpp  **** #include "../h/kern_threads.hpp"
  10:src/main.cpp  **** #include "../h/kern_memory.hpp"
  11:src/main.cpp  **** #include "../h/kern_interrupts.hpp"
  12:src/main.cpp  **** #include "../h/kern_semaphore.hpp"
  13:src/main.cpp  **** #include "../h/kern_console.hpp"
  14:src/main.cpp  **** #include "../h/printing.hpp"
  15:src/main.cpp  **** #include "../h/kern_buddyAllocator.hpp"
  16:src/main.cpp  **** 
  17:src/main.cpp  **** Semaphore* semTest;
  18:src/main.cpp  **** 
  19:src/main.cpp  **** int idleAlive=1;
  20:src/main.cpp  **** void bodyIdle(void* arg){
  21:src/main.cpp  ****     while(idleAlive){
  22:src/main.cpp  ****         thread_dispatch();
GAS LISTING /tmp/ccEAUEgO.s 			page 4


  23:src/main.cpp  ****     };
  24:src/main.cpp  **** }
  25:src/main.cpp  **** 
  26:src/main.cpp  **** void bodyC(void* arg)
  27:src/main.cpp  **** {
  28:src/main.cpp  ****     int counter=0;
  29:src/main.cpp  ****     char*c = (char*)arg;
  30:src/main.cpp  ****     while(counter<10){
  31:src/main.cpp  ****         //if(++counter>5) delete semTest;
  32:src/main.cpp  ****         putc(*c);
  33:src/main.cpp  ****         time_sleep(1);
  34:src/main.cpp  ****         counter++;
  35:src/main.cpp  ****     }
  36:src/main.cpp  ****     counter++;
  37:src/main.cpp  ****     //thread_exit();
  38:src/main.cpp  **** }
  39:src/main.cpp  **** 
  40:src/main.cpp  **** void bodyA(void* arg)
  41:src/main.cpp  **** {
  42:src/main.cpp  ****     char c = 'a';
  43:src/main.cpp  ****     //if(semTest->wait()) c='A';
  44:src/main.cpp  ****     for(int i=0;i<10;i++){
  45:src/main.cpp  ****         putc(c);
  46:src/main.cpp  ****         if(i==5) thread_exit();
  47:src/main.cpp  ****         thread_dispatch();
  48:src/main.cpp  ****     }
  49:src/main.cpp  **** }
  50:src/main.cpp  **** 
  51:src/main.cpp  **** int g=0;
  52:src/main.cpp  **** 
  53:src/main.cpp  **** char str[15] = "tesa legenda";
  54:src/main.cpp  **** void bodyB(void* arg)
  55:src/main.cpp  **** {
  56:src/main.cpp  **** 
  57:src/main.cpp  ****     //time_sleep(10);
  58:src/main.cpp  ****     for(int i=0;i<10;i++){
  59:src/main.cpp  ****         putc(str[i]);
  60:src/main.cpp  ****         for(int k=0;k<10000;k++){
  61:src/main.cpp  ****             for(int m=0;m<1000;m++){
  62:src/main.cpp  ****                 if((m*k)%1337==0) g++;
  63:src/main.cpp  ****             }
  64:src/main.cpp  ****         }
  65:src/main.cpp  ****     }
  66:src/main.cpp  ****     semTest->signal();
  67:src/main.cpp  **** }
  68:src/main.cpp  **** 
  69:src/main.cpp  **** extern void userMain();
  70:src/main.cpp  **** 
  71:src/main.cpp  **** class PeriodicTest : public PeriodicThread {
 104              		.loc 2 71 7 is_stmt 1
 105              		.cfi_startproc
 106              	.LVL5:
 107 0000 130101FF 		addi	sp,sp,-16
 108              		.cfi_def_cfa_offset 16
 109 0004 23348100 		sd	s0,8(sp)
 110              		.cfi_offset 8, -8
 111 0008 13040101 		addi	s0,sp,16
GAS LISTING /tmp/ccEAUEgO.s 			page 5


 112              		.cfi_def_cfa 8, 0
 113              		.loc 2 71 7 is_stmt 0
 114 000c 03348100 		ld	s0,8(sp)
 115              		.cfi_restore 8
 116              		.cfi_def_cfa 2, 16
 117 0010 13010101 		addi	sp,sp,16
 118              		.cfi_def_cfa_offset 0
 119 0014 67800000 		jr	ra
 120              		.cfi_endproc
 121              	.LFE47:
 123              		.weak	_ZN12PeriodicTestD1Ev
 124              		.set	_ZN12PeriodicTestD1Ev,_ZN12PeriodicTestD2Ev
 125              		.text
 126              		.align	2
 127              		.globl	_Z8bodyIdlePv
 129              	_Z8bodyIdlePv:
 130              	.LFB33:
  20:src/main.cpp  ****     while(idleAlive){
 131              		.loc 2 20 25 is_stmt 1
 132              		.cfi_startproc
 133              	.LVL6:
  21:src/main.cpp  ****         thread_dispatch();
 134              		.loc 2 21 5
  21:src/main.cpp  ****         thread_dispatch();
 135              		.loc 2 21 11
 136 0000 97070000 		lw	a5,.LANCHOR0
 136      83A70700 
 137 0008 638C0702 		beqz	a5,.L17
  20:src/main.cpp  ****     while(idleAlive){
 138              		.loc 2 20 25 is_stmt 0
 139 000c 130101FF 		addi	sp,sp,-16
 140              		.cfi_def_cfa_offset 16
 141 0010 23341100 		sd	ra,8(sp)
 142 0014 23308100 		sd	s0,0(sp)
 143              		.cfi_offset 1, -8
 144              		.cfi_offset 8, -16
 145 0018 13040101 		addi	s0,sp,16
 146              		.cfi_def_cfa 8, 0
 147              	.LVL7:
 148              	.L14:
  22:src/main.cpp  ****     };
 149              		.loc 2 22 9 is_stmt 1
  22:src/main.cpp  ****     };
 150              		.loc 2 22 24 is_stmt 0
 151 001c 97000000 		call	_Z15thread_dispatchv@plt
 151      E7800000 
 152              	.LVL8:
  21:src/main.cpp  ****         thread_dispatch();
 153              		.loc 2 21 5 is_stmt 1
  21:src/main.cpp  ****         thread_dispatch();
 154              		.loc 2 21 11
 155 0024 97070000 		lw	a5,.LANCHOR0
 155      83A70700 
 156 002c E39807FE 		bnez	a5,.L14
  24:src/main.cpp  **** 
 157              		.loc 2 24 1 is_stmt 0
 158 0030 83308100 		ld	ra,8(sp)
GAS LISTING /tmp/ccEAUEgO.s 			page 6


 159              		.cfi_restore 1
 160 0034 03340100 		ld	s0,0(sp)
 161              		.cfi_restore 8
 162              		.cfi_def_cfa 2, 16
 163 0038 13010101 		addi	sp,sp,16
 164              		.cfi_def_cfa_offset 0
 165 003c 67800000 		jr	ra
 166              	.LVL9:
 167              	.L17:
 168 0040 67800000 		ret
 169              		.cfi_endproc
 170              	.LFE33:
 172              		.section	.text._ZN12PeriodicTest18periodicActivationEv,"axG",@progbits,_ZN12PeriodicTest18periodic
 173              		.align	2
 174              		.weak	_ZN12PeriodicTest18periodicActivationEv
 176              	_ZN12PeriodicTest18periodicActivationEv:
 177              	.LFB44:
  72:src/main.cpp  **** public:
  73:src/main.cpp  ****     PeriodicTest(uint64 period, char c) : PeriodicThread(period){
  74:src/main.cpp  ****         this->c = c;
  75:src/main.cpp  ****     }
  76:src/main.cpp  **** protected:
  77:src/main.cpp  ****     char c;
  78:src/main.cpp  ****     void periodicActivation() override {
 178              		.loc 2 78 10 is_stmt 1
 179              		.cfi_startproc
 180              	.LVL10:
 181 0000 130101FF 		addi	sp,sp,-16
 182              		.cfi_def_cfa_offset 16
 183 0004 23341100 		sd	ra,8(sp)
 184 0008 23308100 		sd	s0,0(sp)
 185              		.cfi_offset 1, -8
 186              		.cfi_offset 8, -16
 187 000c 13040101 		addi	s0,sp,16
 188              		.cfi_def_cfa 8, 0
 189 0010 93070500 		mv	a5,a0
  79:src/main.cpp  ****         putc(c++);
 190              		.loc 2 79 9
 191              		.loc 2 79 14 is_stmt 0
 192 0014 03450503 		lbu	a0,48(a0)
 193              	.LVL11:
 194              		.loc 2 79 13
 195 0018 1B071500 		addiw	a4,a0,1
 196 001c 2388E702 		sb	a4,48(a5)
 197 0020 97000000 		call	_Z4putcc@plt
 197      E7800000 
 198              	.LVL12:
  80:src/main.cpp  ****     }
 199              		.loc 2 80 5
 200 0028 83308100 		ld	ra,8(sp)
 201              		.cfi_restore 1
 202 002c 03340100 		ld	s0,0(sp)
 203              		.cfi_restore 8
 204              		.cfi_def_cfa 2, 16
 205 0030 13010101 		addi	sp,sp,16
 206              		.cfi_def_cfa_offset 0
 207 0034 67800000 		jr	ra
GAS LISTING /tmp/ccEAUEgO.s 			page 7


 208              		.cfi_endproc
 209              	.LFE44:
 211              		.section	.text._ZN14PeriodicThread3runEv,"axG",@progbits,_ZN14PeriodicThread3runEv,comdat
 212              		.align	2
 213              		.weak	_ZN14PeriodicThread3runEv
 215              	_ZN14PeriodicThread3runEv:
 216              	.LFB21:
  54:src/../h/syscall_cpp.hpp ****         private:
  55:src/../h/syscall_cpp.hpp ****         thread_t myHandle;
  56:src/../h/syscall_cpp.hpp ****         void (*body)(void*); void* arg;
  57:src/../h/syscall_cpp.hpp **** };
  58:src/../h/syscall_cpp.hpp **** 
  59:src/../h/syscall_cpp.hpp **** class PeriodicThread : public Thread {
  60:src/../h/syscall_cpp.hpp **** public:
  61:src/../h/syscall_cpp.hpp ****     void terminate (){
  62:src/../h/syscall_cpp.hpp ****         isThisPeriodicThreadTereminated=1;
  63:src/../h/syscall_cpp.hpp ****     }
  64:src/../h/syscall_cpp.hpp **** 
  65:src/../h/syscall_cpp.hpp **** protected:
  66:src/../h/syscall_cpp.hpp ****     PeriodicThread (uint64 period) {
  67:src/../h/syscall_cpp.hpp ****         this->period=period;
  68:src/../h/syscall_cpp.hpp ****         this->isThisPeriodicThreadTereminated=0;
  69:src/../h/syscall_cpp.hpp ****     }
  70:src/../h/syscall_cpp.hpp ****     virtual void periodicActivation () {}
  71:src/../h/syscall_cpp.hpp ****     void run() override {
 217              		.loc 1 71 10 is_stmt 1
 218              		.cfi_startproc
 219              	.LVL13:
 220 0000 130101FE 		addi	sp,sp,-32
 221              		.cfi_def_cfa_offset 32
 222 0004 233C1100 		sd	ra,24(sp)
 223 0008 23388100 		sd	s0,16(sp)
 224 000c 23349100 		sd	s1,8(sp)
 225              		.cfi_offset 1, -8
 226              		.cfi_offset 8, -16
 227              		.cfi_offset 9, -24
 228 0010 13040102 		addi	s0,sp,32
 229              		.cfi_def_cfa 8, 0
 230 0014 93040500 		mv	s1,a0
 231              	.LVL14:
 232              	.L22:
  72:src/../h/syscall_cpp.hpp ****         while (isThisPeriodicThreadTereminated==0){
 233              		.loc 1 72 9
 234              		.loc 1 72 47
 235              		.loc 1 72 16 is_stmt 0
 236 0018 83A70402 		lw	a5,32(s1)
 237              		.loc 1 72 47
 238 001c 63920702 		bnez	a5,.L20
  73:src/../h/syscall_cpp.hpp ****             periodicActivation();
 239              		.loc 1 73 13 is_stmt 1
 240              		.loc 1 73 32 is_stmt 0
 241 0020 83B70400 		ld	a5,0(s1)
 242 0024 83B78701 		ld	a5,24(a5)
 243              		.loc 1 73 31
 244 0028 13850400 		mv	a0,s1
 245 002c E7800700 		jalr	a5
 246              	.LVL15:
GAS LISTING /tmp/ccEAUEgO.s 			page 8


  74:src/../h/syscall_cpp.hpp ****             sleep(period);
 247              		.loc 1 74 13 is_stmt 1
 248              	.LBB67:
 249              	.LBB68:
  41:src/../h/syscall_cpp.hpp ****         }
 250              		.loc 1 41 13
  41:src/../h/syscall_cpp.hpp ****         }
 251              		.loc 1 41 30 is_stmt 0
 252 0030 03B58402 		ld	a0,40(s1)
 253 0034 97000000 		call	_Z10time_sleepm@plt
 253      E7800000 
 254              	.LVL16:
  41:src/../h/syscall_cpp.hpp ****         }
 255              		.loc 1 41 35
 256 003c 6FF0DFFD 		j	.L22
 257              	.L20:
 258              	.LBE68:
 259              	.LBE67:
  75:src/../h/syscall_cpp.hpp ****         }
  76:src/../h/syscall_cpp.hpp ****     }
 260              		.loc 1 76 5
 261 0040 83308101 		ld	ra,24(sp)
 262              		.cfi_restore 1
 263 0044 03340101 		ld	s0,16(sp)
 264              		.cfi_restore 8
 265              		.cfi_def_cfa 2, 32
 266 0048 83348100 		ld	s1,8(sp)
 267              		.cfi_restore 9
 268              	.LVL17:
 269 004c 13010102 		addi	sp,sp,32
 270              		.cfi_def_cfa_offset 0
 271 0050 67800000 		jr	ra
 272              		.cfi_endproc
 273              	.LFE21:
 275              		.section	.text._ZN6ThreadD0Ev,"axG",@progbits,_ZN6ThreadD5Ev,comdat
 276              		.align	2
 277              		.weak	_ZN6ThreadD0Ev
 279              	_ZN6ThreadD0Ev:
 280              	.LFB6:
  28:src/../h/syscall_cpp.hpp ****         }
 281              		.loc 1 28 17 is_stmt 1
 282              		.cfi_startproc
 283              	.LVL18:
 284 0000 130101FF 		addi	sp,sp,-16
 285              		.cfi_def_cfa_offset 16
 286 0004 23341100 		sd	ra,8(sp)
 287 0008 23308100 		sd	s0,0(sp)
 288              		.cfi_offset 1, -8
 289              		.cfi_offset 8, -16
 290 000c 13040101 		addi	s0,sp,16
 291              		.cfi_def_cfa 8, 0
  29:src/../h/syscall_cpp.hpp ****         int start (){
 292              		.loc 1 29 9 is_stmt 0
 293 0010 97000000 		call	_ZdlPv@plt
 293      E7800000 
 294              	.LVL19:
 295 0018 83308100 		ld	ra,8(sp)
GAS LISTING /tmp/ccEAUEgO.s 			page 9


 296              		.cfi_restore 1
 297 001c 03340100 		ld	s0,0(sp)
 298              		.cfi_restore 8
 299              		.cfi_def_cfa 2, 16
 300 0020 13010101 		addi	sp,sp,16
 301              		.cfi_def_cfa_offset 0
 302 0024 67800000 		jr	ra
 303              		.cfi_endproc
 304              	.LFE6:
 306              		.section	.text._ZN12PeriodicTestD0Ev,"axG",@progbits,_ZN12PeriodicTestD5Ev,comdat
 307              		.align	2
 308              		.weak	_ZN12PeriodicTestD0Ev
 310              	_ZN12PeriodicTestD0Ev:
 311              	.LFB49:
  71:src/main.cpp  **** public:
 312              		.loc 2 71 7 is_stmt 1
 313              		.cfi_startproc
 314              	.LVL20:
 315 0000 130101FF 		addi	sp,sp,-16
 316              		.cfi_def_cfa_offset 16
 317 0004 23341100 		sd	ra,8(sp)
 318 0008 23308100 		sd	s0,0(sp)
 319              		.cfi_offset 1, -8
 320              		.cfi_offset 8, -16
 321 000c 13040101 		addi	s0,sp,16
 322              		.cfi_def_cfa 8, 0
  71:src/main.cpp  **** public:
 323              		.loc 2 71 7 is_stmt 0
 324 0010 97000000 		call	_ZdlPv@plt
 324      E7800000 
 325              	.LVL21:
 326 0018 83308100 		ld	ra,8(sp)
 327              		.cfi_restore 1
 328 001c 03340100 		ld	s0,0(sp)
 329              		.cfi_restore 8
 330              		.cfi_def_cfa 2, 16
 331 0020 13010101 		addi	sp,sp,16
 332              		.cfi_def_cfa_offset 0
 333 0024 67800000 		jr	ra
 334              		.cfi_endproc
 335              	.LFE49:
 337              		.section	.text._ZN6Thread5startEv,"axG",@progbits,_ZN6Thread5startEv,comdat
 338              		.align	2
 339              		.weak	_ZN6Thread5startEv
 341              	_ZN6Thread5startEv:
 342              	.LFB7:
  30:src/../h/syscall_cpp.hpp ****             if(body== nullptr) return thread_create(&myHandle,&threadEntry, this);
 343              		.loc 1 30 13 is_stmt 1
 344              		.cfi_startproc
 345              	.LVL22:
 346 0000 130101FF 		addi	sp,sp,-16
 347              		.cfi_def_cfa_offset 16
 348 0004 23341100 		sd	ra,8(sp)
 349 0008 23308100 		sd	s0,0(sp)
 350              		.cfi_offset 1, -8
 351              		.cfi_offset 8, -16
 352 000c 13040101 		addi	s0,sp,16
GAS LISTING /tmp/ccEAUEgO.s 			page 10


 353              		.cfi_def_cfa 8, 0
  31:src/../h/syscall_cpp.hpp ****             else return thread_create(&myHandle,body,arg);
 354              		.loc 1 31 13
  31:src/../h/syscall_cpp.hpp ****             else return thread_create(&myHandle,body,arg);
 355              		.loc 1 31 16 is_stmt 0
 356 0010 83350501 		ld	a1,16(a0)
  31:src/../h/syscall_cpp.hpp ****             else return thread_create(&myHandle,body,arg);
 357              		.loc 1 31 13
 358 0014 63820502 		beqz	a1,.L32
  32:src/../h/syscall_cpp.hpp ****         }
 359              		.loc 1 32 18 is_stmt 1
  32:src/../h/syscall_cpp.hpp ****         }
 360              		.loc 1 32 38 is_stmt 0
 361 0018 03368501 		ld	a2,24(a0)
 362 001c 13058500 		addi	a0,a0,8
 363              	.LVL23:
 364 0020 97000000 		call	_Z13thread_createPP8thread_sPFvPvES2_@plt
 364      E7800000 
 365              	.LVL24:
 366              	.L30:
  33:src/../h/syscall_cpp.hpp ****         void join(){
 367              		.loc 1 33 9
 368 0028 83308100 		ld	ra,8(sp)
 369              		.cfi_remember_state
 370              		.cfi_restore 1
 371 002c 03340100 		ld	s0,0(sp)
 372              		.cfi_restore 8
 373              		.cfi_def_cfa 2, 16
 374 0030 13010101 		addi	sp,sp,16
 375              		.cfi_def_cfa_offset 0
 376 0034 67800000 		jr	ra
 377              	.LVL25:
 378              	.L32:
 379              		.cfi_restore_state
  31:src/../h/syscall_cpp.hpp ****             else return thread_create(&myHandle,body,arg);
 380              		.loc 1 31 32 is_stmt 1 discriminator 1
  31:src/../h/syscall_cpp.hpp ****             else return thread_create(&myHandle,body,arg);
 381              		.loc 1 31 52 is_stmt 0 discriminator 1
 382 0038 13060500 		mv	a2,a0
 383 003c 97050000 		lla	a1,_ZN6Thread11threadEntryEPv
 383      93850500 
 384 0044 13058500 		addi	a0,a0,8
 385              	.LVL26:
 386 0048 97000000 		call	_Z13thread_createPP8thread_sPFvPvES2_@plt
 386      E7800000 
 387              	.LVL27:
  31:src/../h/syscall_cpp.hpp ****             else return thread_create(&myHandle,body,arg);
 388              		.loc 1 31 81 discriminator 1
 389 0050 6FF09FFD 		j	.L30
 390              		.cfi_endproc
 391              	.LFE7:
 393              		.text
 394              		.align	2
 395              		.globl	_Z5bodyCPv
 397              	_Z5bodyCPv:
 398              	.LFB34:
  27:src/main.cpp  ****     int counter=0;
GAS LISTING /tmp/ccEAUEgO.s 			page 11


 399              		.loc 2 27 1 is_stmt 1
 400              		.cfi_startproc
 401              	.LVL28:
 402 0044 130101FE 		addi	sp,sp,-32
 403              		.cfi_def_cfa_offset 32
 404 0048 233C1100 		sd	ra,24(sp)
 405 004c 23388100 		sd	s0,16(sp)
 406 0050 23349100 		sd	s1,8(sp)
 407 0054 23302101 		sd	s2,0(sp)
 408              		.cfi_offset 1, -8
 409              		.cfi_offset 8, -16
 410              		.cfi_offset 9, -24
 411              		.cfi_offset 18, -32
 412 0058 13040102 		addi	s0,sp,32
 413              		.cfi_def_cfa 8, 0
 414 005c 13090500 		mv	s2,a0
  28:src/main.cpp  ****     char*c = (char*)arg;
 415              		.loc 2 28 5
 416              	.LVL29:
  29:src/main.cpp  ****     while(counter<10){
 417              		.loc 2 29 5
  28:src/main.cpp  ****     char*c = (char*)arg;
 418              		.loc 2 28 9 is_stmt 0
 419 0060 93040000 		li	s1,0
 420              	.LVL30:
 421              	.L35:
  30:src/main.cpp  ****         //if(++counter>5) delete semTest;
 422              		.loc 2 30 5 is_stmt 1
  30:src/main.cpp  ****         //if(++counter>5) delete semTest;
 423              		.loc 2 30 18
 424 0064 93079000 		li	a5,9
 425 0068 63C29702 		bgt	s1,a5,.L33
  32:src/main.cpp  ****         time_sleep(1);
 426              		.loc 2 32 9
  32:src/main.cpp  ****         time_sleep(1);
 427              		.loc 2 32 13 is_stmt 0
 428 006c 03450900 		lbu	a0,0(s2)
 429 0070 97000000 		call	_Z4putcc@plt
 429      E7800000 
 430              	.LVL31:
  33:src/main.cpp  ****         counter++;
 431              		.loc 2 33 9 is_stmt 1
  33:src/main.cpp  ****         counter++;
 432              		.loc 2 33 19 is_stmt 0
 433 0078 13051000 		li	a0,1
 434 007c 97000000 		call	_Z10time_sleepm@plt
 434      E7800000 
 435              	.LVL32:
  34:src/main.cpp  ****     }
 436              		.loc 2 34 9 is_stmt 1
  34:src/main.cpp  ****     }
 437              		.loc 2 34 16 is_stmt 0
 438 0084 9B841400 		addiw	s1,s1,1
 439              	.LVL33:
  30:src/main.cpp  ****         //if(++counter>5) delete semTest;
 440              		.loc 2 30 5
 441 0088 6FF0DFFD 		j	.L35
GAS LISTING /tmp/ccEAUEgO.s 			page 12


 442              	.LVL34:
 443              	.L33:
  38:src/main.cpp  **** 
 444              		.loc 2 38 1
 445 008c 83308101 		ld	ra,24(sp)
 446              		.cfi_restore 1
 447 0090 03340101 		ld	s0,16(sp)
 448              		.cfi_restore 8
 449              		.cfi_def_cfa 2, 32
 450 0094 83348100 		ld	s1,8(sp)
 451              		.cfi_restore 9
 452              	.LVL35:
 453 0098 03390100 		ld	s2,0(sp)
 454              		.cfi_restore 18
 455              	.LVL36:
 456 009c 13010102 		addi	sp,sp,32
 457              		.cfi_def_cfa_offset 0
 458 00a0 67800000 		jr	ra
 459              		.cfi_endproc
 460              	.LFE34:
 462              		.align	2
 463              		.globl	_Z5bodyAPv
 465              	_Z5bodyAPv:
 466              	.LFB35:
  41:src/main.cpp  ****     char c = 'a';
 467              		.loc 2 41 1 is_stmt 1
 468              		.cfi_startproc
 469              	.LVL37:
 470 00a4 130101FE 		addi	sp,sp,-32
 471              		.cfi_def_cfa_offset 32
 472 00a8 233C1100 		sd	ra,24(sp)
 473 00ac 23388100 		sd	s0,16(sp)
 474 00b0 23349100 		sd	s1,8(sp)
 475              		.cfi_offset 1, -8
 476              		.cfi_offset 8, -16
 477              		.cfi_offset 9, -24
 478 00b4 13040102 		addi	s0,sp,32
 479              		.cfi_def_cfa 8, 0
  42:src/main.cpp  ****     //if(semTest->wait()) c='A';
 480              		.loc 2 42 5
 481              	.LVL38:
  44:src/main.cpp  ****         putc(c);
 482              		.loc 2 44 5
 483              	.LBB69:
  44:src/main.cpp  ****         putc(c);
 484              		.loc 2 44 13 is_stmt 0
 485 00b8 93040000 		li	s1,0
 486 00bc 6F008001 		j	.L40
 487              	.LVL39:
 488              	.L42:
  46:src/main.cpp  ****         thread_dispatch();
 489              		.loc 2 46 18 is_stmt 1 discriminator 1
  46:src/main.cpp  ****         thread_dispatch();
 490              		.loc 2 46 29 is_stmt 0 discriminator 1
 491 00c0 97000000 		call	_Z11thread_exitv@plt
 491      E7800000 
 492              	.LVL40:
GAS LISTING /tmp/ccEAUEgO.s 			page 13


 493              	.L39:
  47:src/main.cpp  ****     }
 494              		.loc 2 47 9 is_stmt 1 discriminator 2
  47:src/main.cpp  ****     }
 495              		.loc 2 47 24 is_stmt 0 discriminator 2
 496 00c8 97000000 		call	_Z15thread_dispatchv@plt
 496      E7800000 
 497              	.LVL41:
  44:src/main.cpp  ****         putc(c);
 498              		.loc 2 44 5 is_stmt 1 discriminator 2
 499 00d0 9B841400 		addiw	s1,s1,1
 500              	.LVL42:
 501              	.L40:
  44:src/main.cpp  ****         putc(c);
 502              		.loc 2 44 18 discriminator 1
 503 00d4 93079000 		li	a5,9
 504 00d8 63CE9700 		bgt	s1,a5,.L37
  45:src/main.cpp  ****         if(i==5) thread_exit();
 505              		.loc 2 45 9
  45:src/main.cpp  ****         if(i==5) thread_exit();
 506              		.loc 2 45 13 is_stmt 0
 507 00dc 13051006 		li	a0,97
 508 00e0 97000000 		call	_Z4putcc@plt
 508      E7800000 
 509              	.LVL43:
  46:src/main.cpp  ****         thread_dispatch();
 510              		.loc 2 46 9 is_stmt 1
 511 00e8 93075000 		li	a5,5
 512 00ec E39EF4FC 		bne	s1,a5,.L39
 513 00f0 6FF01FFD 		j	.L42
 514              	.L37:
 515              	.LBE69:
  49:src/main.cpp  **** 
 516              		.loc 2 49 1 is_stmt 0
 517 00f4 83308101 		ld	ra,24(sp)
 518              		.cfi_restore 1
 519 00f8 03340101 		ld	s0,16(sp)
 520              		.cfi_restore 8
 521              		.cfi_def_cfa 2, 32
 522 00fc 83348100 		ld	s1,8(sp)
 523              		.cfi_restore 9
 524              	.LVL44:
 525 0100 13010102 		addi	sp,sp,32
 526              		.cfi_def_cfa_offset 0
 527 0104 67800000 		jr	ra
 528              		.cfi_endproc
 529              	.LFE35:
 531              		.align	2
 532              		.globl	_Z5bodyBPv
 534              	_Z5bodyBPv:
 535              	.LFB36:
  55:src/main.cpp  **** 
 536              		.loc 2 55 1 is_stmt 1
 537              		.cfi_startproc
 538              	.LVL45:
 539 0108 130101FE 		addi	sp,sp,-32
 540              		.cfi_def_cfa_offset 32
GAS LISTING /tmp/ccEAUEgO.s 			page 14


 541 010c 233C1100 		sd	ra,24(sp)
 542 0110 23388100 		sd	s0,16(sp)
 543 0114 23349100 		sd	s1,8(sp)
 544              		.cfi_offset 1, -8
 545              		.cfi_offset 8, -16
 546              		.cfi_offset 9, -24
 547 0118 13040102 		addi	s0,sp,32
 548              		.cfi_def_cfa 8, 0
  58:src/main.cpp  ****         putc(str[i]);
 549              		.loc 2 58 5
 550              	.LVL46:
 551              	.LBB70:
  58:src/main.cpp  ****         putc(str[i]);
 552              		.loc 2 58 13 is_stmt 0
 553 011c 93040000 		li	s1,0
 554 0120 6F004005 		j	.L50
 555              	.LVL47:
 556              	.L47:
 557              	.LBB71:
 558              	.LBB72:
 559              	.LBB73:
  61:src/main.cpp  ****                 if((m*k)%1337==0) g++;
 560              		.loc 2 61 13 is_stmt 1 discriminator 2
 561 0124 1B071700 		addiw	a4,a4,1
 562              	.LVL48:
 563              	.L48:
  61:src/main.cpp  ****                 if((m*k)%1337==0) g++;
 564              		.loc 2 61 26 discriminator 1
 565 0128 9307703E 		li	a5,999
 566 012c 63C6E702 		bgt	a4,a5,.L46
  62:src/main.cpp  ****             }
 567              		.loc 2 62 17
  62:src/main.cpp  ****             }
 568              		.loc 2 62 22 is_stmt 0
 569 0130 BB07E602 		mulw	a5,a2,a4
  62:src/main.cpp  ****             }
 570              		.loc 2 62 25
 571 0134 93069053 		li	a3,1337
 572 0138 BBE7D702 		remw	a5,a5,a3
  62:src/main.cpp  ****             }
 573              		.loc 2 62 17
 574 013c E39407FE 		bnez	a5,.L47
  62:src/main.cpp  ****             }
 575              		.loc 2 62 35 is_stmt 1 discriminator 1
  62:src/main.cpp  ****             }
 576              		.loc 2 62 36 is_stmt 0 discriminator 1
 577 0140 97060000 		lla	a3,.LANCHOR1
 577      93860600 
 578 0148 83A70600 		lw	a5,0(a3)
 579 014c 9B871700 		addiw	a5,a5,1
 580 0150 23A0F600 		sw	a5,0(a3)
 581 0154 6FF01FFD 		j	.L47
 582              	.L46:
 583              	.LBE73:
  60:src/main.cpp  ****             for(int m=0;m<1000;m++){
 584              		.loc 2 60 9 is_stmt 1 discriminator 2
 585 0158 1B061600 		addiw	a2,a2,1
GAS LISTING /tmp/ccEAUEgO.s 			page 15


 586              	.LVL49:
 587              	.L49:
  60:src/main.cpp  ****             for(int m=0;m<1000;m++){
 588              		.loc 2 60 22 discriminator 1
 589 015c B7270000 		li	a5,8192
 590 0160 9387F770 		addi	a5,a5,1807
 591 0164 63C6C700 		bgt	a2,a5,.L45
 592              	.LBB74:
  61:src/main.cpp  ****                 if((m*k)%1337==0) g++;
 593              		.loc 2 61 21 is_stmt 0
 594 0168 13070000 		li	a4,0
 595 016c 6FF0DFFB 		j	.L48
 596              	.L45:
 597              	.LBE74:
 598              	.LBE72:
 599              	.LBE71:
  58:src/main.cpp  ****         putc(str[i]);
 600              		.loc 2 58 5 is_stmt 1 discriminator 2
 601 0170 9B841400 		addiw	s1,s1,1
 602              	.LVL50:
 603              	.L50:
  58:src/main.cpp  ****         putc(str[i]);
 604              		.loc 2 58 18 discriminator 1
 605 0174 93079000 		li	a5,9
 606 0178 63C29702 		bgt	s1,a5,.L44
 607              	.LBB76:
  59:src/main.cpp  ****         for(int k=0;k<10000;k++){
 608              		.loc 2 59 9
  59:src/main.cpp  ****         for(int k=0;k<10000;k++){
 609              		.loc 2 59 13 is_stmt 0
 610 017c 97070000 		lla	a5,.LANCHOR0
 610      93870700 
 611 0184 B3879700 		add	a5,a5,s1
 612 0188 03C58700 		lbu	a0,8(a5)
 613 018c 97000000 		call	_Z4putcc@plt
 613      E7800000 
 614              	.LVL51:
  60:src/main.cpp  ****             for(int m=0;m<1000;m++){
 615              		.loc 2 60 9 is_stmt 1
 616              	.LBB75:
  60:src/main.cpp  ****             for(int m=0;m<1000;m++){
 617              		.loc 2 60 17 is_stmt 0
 618 0194 13060000 		li	a2,0
 619 0198 6FF05FFC 		j	.L49
 620              	.LVL52:
 621              	.L44:
 622              	.LBE75:
 623              	.LBE76:
 624              	.LBE70:
  66:src/main.cpp  **** }
 625              		.loc 2 66 5 is_stmt 1
 626              	.LBB77:
 627              	.LBB78:
  77:src/../h/syscall_cpp.hpp **** private:
  78:src/../h/syscall_cpp.hpp ****     int isThisPeriodicThreadTereminated;
  79:src/../h/syscall_cpp.hpp ****     uint64 period;
  80:src/../h/syscall_cpp.hpp **** };
GAS LISTING /tmp/ccEAUEgO.s 			page 16


  81:src/../h/syscall_cpp.hpp **** 
  82:src/../h/syscall_cpp.hpp **** 
  83:src/../h/syscall_cpp.hpp **** class Semaphore {
  84:src/../h/syscall_cpp.hpp ****         public:
  85:src/../h/syscall_cpp.hpp ****         Semaphore (unsigned init = 1){
  86:src/../h/syscall_cpp.hpp ****             sem_open(&myHandle,init);
  87:src/../h/syscall_cpp.hpp ****         }
  88:src/../h/syscall_cpp.hpp ****         virtual ~Semaphore (){
  89:src/../h/syscall_cpp.hpp ****             sem_close(myHandle);
  90:src/../h/syscall_cpp.hpp ****         }
  91:src/../h/syscall_cpp.hpp ****         int wait (){
  92:src/../h/syscall_cpp.hpp ****             return sem_wait(myHandle);
  93:src/../h/syscall_cpp.hpp ****         }
  94:src/../h/syscall_cpp.hpp ****         int signal (){
  95:src/../h/syscall_cpp.hpp ****             return sem_signal(myHandle);
 628              		.loc 1 95 13
 629              		.loc 1 95 30 is_stmt 0
 630 019c 97070000 		ld	a5,.LANCHOR1+8
 630      83B70700 
 631 01a4 03B58700 		ld	a0,8(a5)
 632 01a8 97000000 		call	_Z10sem_signalP5sem_s@plt
 632      E7800000 
 633              	.LVL53:
 634              	.LBE78:
 635              	.LBE77:
  67:src/main.cpp  **** 
 636              		.loc 2 67 1
 637 01b0 83308101 		ld	ra,24(sp)
 638              		.cfi_restore 1
 639 01b4 03340101 		ld	s0,16(sp)
 640              		.cfi_restore 8
 641              		.cfi_def_cfa 2, 32
 642 01b8 83348100 		ld	s1,8(sp)
 643              		.cfi_restore 9
 644              	.LVL54:
 645 01bc 13010102 		addi	sp,sp,32
 646              		.cfi_def_cfa_offset 0
 647 01c0 67800000 		jr	ra
 648              		.cfi_endproc
 649              	.LFE36:
 651              		.section	.rodata.str1.8,"aMS",@progbits,1
 652              		.align	3
 653              	.LC0:
 654 0000 5072696E 		.string	"Printf proba %d valjda radi %x, %p\n"
 654      74662070 
 654      726F6261 
 654      20256420 
 654      76616C6A 
 655              		.text
 656              		.align	2
 657              		.globl	main
 659              	main:
 660              	.LFB45:
  81:src/main.cpp  **** };
  82:src/main.cpp  **** 
  83:src/main.cpp  **** int main()
  84:src/main.cpp  **** {
GAS LISTING /tmp/ccEAUEgO.s 			page 17


 661              		.loc 2 84 1 is_stmt 1
 662              		.cfi_startproc
 663 01c4 130101FC 		addi	sp,sp,-64
 664              		.cfi_def_cfa_offset 64
 665 01c8 233C1102 		sd	ra,56(sp)
 666 01cc 23388102 		sd	s0,48(sp)
 667 01d0 23349102 		sd	s1,40(sp)
 668 01d4 23302103 		sd	s2,32(sp)
 669 01d8 233C3101 		sd	s3,24(sp)
 670              		.cfi_offset 1, -8
 671              		.cfi_offset 8, -16
 672              		.cfi_offset 9, -24
 673              		.cfi_offset 18, -32
 674              		.cfi_offset 19, -40
 675 01dc 13040104 		addi	s0,sp,64
 676              		.cfi_def_cfa 8, 0
  85:src/main.cpp  ****     kern_thread_init();
 677              		.loc 2 85 5
 678              		.loc 2 85 21 is_stmt 0
 679 01e0 97000000 		call	_Z16kern_thread_initv@plt
 679      E7800000 
 680              	.LVL55:
  86:src/main.cpp  **** 
  87:src/main.cpp  ****     kern_mem_init((void*)HEAP_START_ADDR, (void*)HEAP_END_ADDR);
 681              		.loc 2 87 5 is_stmt 1
 682              		.loc 2 87 18 is_stmt 0
 683 01e8 17090000 		la	s2,HEAP_END_ADDR
 683      03390900 
 684 01f0 97040000 		la	s1,HEAP_START_ADDR
 684      83B40400 
 685 01f8 83350900 		ld	a1,0(s2)
 686 01fc 03B50400 		ld	a0,0(s1)
 687 0200 97000000 		call	_Z13kern_mem_initPvS_@plt
 687      E7800000 
 688              	.LVL56:
  88:src/main.cpp  ****     kern_interrupt_init();
 689              		.loc 2 88 5 is_stmt 1
 690              		.loc 2 88 24 is_stmt 0
 691 0208 97000000 		call	_Z19kern_interrupt_initv@plt
 691      E7800000 
 692              	.LVL57:
  89:src/main.cpp  ****     kern_sem_init();
 693              		.loc 2 89 5 is_stmt 1
 694              		.loc 2 89 18 is_stmt 0
 695 0210 97000000 		call	_Z13kern_sem_initv@plt
 695      E7800000 
 696              	.LVL58:
  90:src/main.cpp  ****     kern_console_init();
 697              		.loc 2 90 5 is_stmt 1
 698              		.loc 2 90 22 is_stmt 0
 699 0218 97000000 		call	_Z17kern_console_initv@plt
 699      E7800000 
 700              	.LVL59:
  91:src/main.cpp  **** 
  92:src/main.cpp  ****     Thread* thrIdle = new Thread(&bodyIdle,0);
 701              		.loc 2 92 5 is_stmt 1
 702              		.loc 2 92 45 is_stmt 0
GAS LISTING /tmp/ccEAUEgO.s 			page 18


 703 0220 13050002 		li	a0,32
 704 0224 97000000 		call	_Znwm@plt
 704      E7800000 
 705              	.LVL60:
 706              	.LBB79:
 707              	.LBB80:
  24:src/../h/syscall_cpp.hpp ****             this->body=body;
 708              		.loc 1 24 9
 709 022c 17070000 		lla	a4,_ZTV6Thread+16
 709      13070700 
 710 0234 2330E500 		sd	a4,0(a0)
  25:src/../h/syscall_cpp.hpp ****             this->arg=arg;
 711              		.loc 1 25 13 is_stmt 1
  25:src/../h/syscall_cpp.hpp ****             this->arg=arg;
 712              		.loc 1 25 23 is_stmt 0
 713 0238 17070000 		lla	a4,_Z8bodyIdlePv
 713      13070700 
 714 0240 2338E500 		sd	a4,16(a0)
  26:src/../h/syscall_cpp.hpp ****         }
 715              		.loc 1 26 13 is_stmt 1
  26:src/../h/syscall_cpp.hpp ****         }
 716              		.loc 1 26 22 is_stmt 0
 717 0244 233C0500 		sd	zero,24(a0)
 718              	.LVL61:
 719              	.LBE80:
 720              	.LBE79:
 721              		.loc 2 92 45
 722 0248 2334A4FC 		sd	a0,-56(s0)
  93:src/main.cpp  ****     thrIdle->start();
 723              		.loc 2 93 5 is_stmt 1
 724              		.loc 2 93 19 is_stmt 0
 725 024c 97000000 		call	_ZN6Thread5startEv
 725      E7800000 
 726              	.LVL62:
  94:src/main.cpp  **** 
  95:src/main.cpp  ****     printf("Printf proba %d valjda radi %x, %p\n", &thrIdle, &thrIdle, &thrIdle);
 727              		.loc 2 95 5 is_stmt 1
 728              		.loc 2 95 11 is_stmt 0
 729 0254 930584FC 		addi	a1,s0,-56
 730 0258 93860500 		mv	a3,a1
 731 025c 13860500 		mv	a2,a1
 732 0260 17050000 		lla	a0,.LC0
 732      13050500 
 733 0268 97000000 		call	_Z6printfPKcz@plt
 733      E7800000 
 734              	.LVL63:
  96:src/main.cpp  ****     bba_init((char*)HEAP_START_ADDR, (char*)HEAP_END_ADDR);
 735              		.loc 2 96 5 is_stmt 1
 736              		.loc 2 96 13 is_stmt 0
 737 0270 83350900 		ld	a1,0(s2)
 738 0274 03B50400 		ld	a0,0(s1)
 739 0278 97000000 		call	_Z8bba_initPcS_@plt
 739      E7800000 
 740              	.LVL64:
  97:src/main.cpp  ****     /*
  98:src/main.cpp  ****     semTest=new Semaphore(0);
  99:src/main.cpp  ****     Thread *thrA = new Thread(&bodyA,0);
GAS LISTING /tmp/ccEAUEgO.s 			page 19


 100:src/main.cpp  ****     Thread *thrB = new Thread(&bodyB,0);
 101:src/main.cpp  ****     thrB->start();
 102:src/main.cpp  ****     thrA->start();
 103:src/main.cpp  ****     putc('S');
 104:src/main.cpp  ****      */
 105:src/main.cpp  ****     /*
 106:src/main.cpp  ****     char c='M';
 107:src/main.cpp  ****     c++;
 108:src/main.cpp  ****     Thread *thrCobj = new Thread(&bodyC,&c);
 109:src/main.cpp  ****     thrCobj->start();
 110:src/main.cpp  **** 
 111:src/main.cpp  ****     thrCobj->join();
 112:src/main.cpp  ****     */
 113:src/main.cpp  ****     //thrB->join();
 114:src/main.cpp  ****     //thrA->join();
 115:src/main.cpp  ****     /*
 116:src/main.cpp  ****     thrB->join();
 117:src/main.cpp  **** 
 118:src/main.cpp  ****     char o='O';
 119:src/main.cpp  ****     o++;
 120:src/main.cpp  ****     thread_t thrC;
 121:src/main.cpp  ****     thread_create(&thrC,&bodyC,&o);
 122:src/main.cpp  ****     thrCobj->join();
 123:src/main.cpp  ****     thread_join(thrC);
 124:src/main.cpp  ****     delete thrCobj;
 125:src/main.cpp  ****     thrB->start();
 126:src/main.cpp  ****     thrB->join();
 127:src/main.cpp  **** 
 128:src/main.cpp  **** */
 129:src/main.cpp  ****     /*char x = getc();
 130:src/main.cpp  ****     x=getc();
 131:src/main.cpp  ****     x++;
 132:src/main.cpp  ****     putc(x);*/
 133:src/main.cpp  **** //    userMain();
 134:src/main.cpp  **** 
 135:src/main.cpp  **** 
 136:src/main.cpp  ****     PeriodicTest* pt = new PeriodicTest(30, 'A');
 741              		.loc 2 136 5 is_stmt 1
 742              		.loc 2 136 48 is_stmt 0
 743 0280 13058003 		li	a0,56
 744 0284 97000000 		call	_Znwm@plt
 744      E7800000 
 745              	.LVL65:
 746 028c 93090500 		mv	s3,a0
 747              	.LVL66:
 748              	.LBB81:
 749              	.LBB82:
 750              	.LBB83:
 751              	.LBB84:
 752              	.LBB85:
 753              	.LBB86:
  45:src/../h/syscall_cpp.hpp ****             arg= nullptr;
 754              		.loc 1 45 13 is_stmt 1
  45:src/../h/syscall_cpp.hpp ****             arg= nullptr;
 755              		.loc 1 45 17 is_stmt 0
 756 0290 23380500 		sd	zero,16(a0)
  46:src/../h/syscall_cpp.hpp ****         }
GAS LISTING /tmp/ccEAUEgO.s 			page 20


 757              		.loc 1 46 13 is_stmt 1
  46:src/../h/syscall_cpp.hpp ****         }
 758              		.loc 1 46 16 is_stmt 0
 759 0294 233C0500 		sd	zero,24(a0)
 760              	.LVL67:
 761              	.LBE86:
 762              	.LBE85:
  67:src/../h/syscall_cpp.hpp ****         this->isThisPeriodicThreadTereminated=0;
 763              		.loc 1 67 9 is_stmt 1
  67:src/../h/syscall_cpp.hpp ****         this->isThisPeriodicThreadTereminated=0;
 764              		.loc 1 67 21 is_stmt 0
 765 0298 9307E001 		li	a5,30
 766 029c 2334F502 		sd	a5,40(a0)
  68:src/../h/syscall_cpp.hpp ****     }
 767              		.loc 1 68 9 is_stmt 1
  68:src/../h/syscall_cpp.hpp ****     }
 768              		.loc 1 68 46 is_stmt 0
 769 02a0 23200502 		sw	zero,32(a0)
 770              	.LVL68:
 771              	.LBE84:
 772              	.LBE83:
  73:src/main.cpp  ****         this->c = c;
 773              		.loc 2 73 64
 774 02a4 97040000 		lla	s1,_ZTV12PeriodicTest+16
 774      93840400 
 775 02ac 23309500 		sd	s1,0(a0)
  74:src/main.cpp  ****     }
 776              		.loc 2 74 9 is_stmt 1
  74:src/main.cpp  ****     }
 777              		.loc 2 74 17 is_stmt 0
 778 02b0 93071004 		li	a5,65
 779 02b4 2308F502 		sb	a5,48(a0)
 780              	.LVL69:
 781              	.LBE82:
 782              	.LBE81:
 137:src/main.cpp  ****     PeriodicTest* pt2 = new PeriodicTest(10, 'a');
 783              		.loc 2 137 5 is_stmt 1
 784              		.loc 2 137 49 is_stmt 0
 785 02b8 13058003 		li	a0,56
 786              	.LVL70:
 787 02bc 97000000 		call	_Znwm@plt
 787      E7800000 
 788              	.LVL71:
 789 02c4 13090500 		mv	s2,a0
 790              	.LVL72:
 791              	.LBB87:
 792              	.LBB88:
 793              	.LBB89:
 794              	.LBB90:
 795              	.LBB91:
 796              	.LBB92:
  45:src/../h/syscall_cpp.hpp ****             arg= nullptr;
 797              		.loc 1 45 13 is_stmt 1
  45:src/../h/syscall_cpp.hpp ****             arg= nullptr;
 798              		.loc 1 45 17 is_stmt 0
 799 02c8 23380500 		sd	zero,16(a0)
  46:src/../h/syscall_cpp.hpp ****         }
GAS LISTING /tmp/ccEAUEgO.s 			page 21


 800              		.loc 1 46 13 is_stmt 1
  46:src/../h/syscall_cpp.hpp ****         }
 801              		.loc 1 46 16 is_stmt 0
 802 02cc 233C0500 		sd	zero,24(a0)
 803              	.LVL73:
 804              	.LBE92:
 805              	.LBE91:
  67:src/../h/syscall_cpp.hpp ****         this->isThisPeriodicThreadTereminated=0;
 806              		.loc 1 67 9 is_stmt 1
  67:src/../h/syscall_cpp.hpp ****         this->isThisPeriodicThreadTereminated=0;
 807              		.loc 1 67 21 is_stmt 0
 808 02d0 9307A000 		li	a5,10
 809 02d4 2334F502 		sd	a5,40(a0)
  68:src/../h/syscall_cpp.hpp ****     }
 810              		.loc 1 68 9 is_stmt 1
  68:src/../h/syscall_cpp.hpp ****     }
 811              		.loc 1 68 46 is_stmt 0
 812 02d8 23200502 		sw	zero,32(a0)
 813              	.LVL74:
 814              	.LBE90:
 815              	.LBE89:
  73:src/main.cpp  ****         this->c = c;
 816              		.loc 2 73 64
 817 02dc 23309500 		sd	s1,0(a0)
  74:src/main.cpp  ****     }
 818              		.loc 2 74 9 is_stmt 1
  74:src/main.cpp  ****     }
 819              		.loc 2 74 17 is_stmt 0
 820 02e0 93071006 		li	a5,97
 821 02e4 2308F502 		sb	a5,48(a0)
 822              	.LVL75:
 823              	.LBE88:
 824              	.LBE87:
 138:src/main.cpp  ****     pt->start();
 825              		.loc 2 138 5 is_stmt 1
 826              		.loc 2 138 14 is_stmt 0
 827 02e8 13850900 		mv	a0,s3
 828              	.LVL76:
 829 02ec 97000000 		call	_ZN6Thread5startEv
 829      E7800000 
 830              	.LVL77:
 139:src/main.cpp  ****     pt2->start();
 831              		.loc 2 139 5 is_stmt 1
 832              		.loc 2 139 15 is_stmt 0
 833 02f4 13050900 		mv	a0,s2
 834 02f8 97000000 		call	_ZN6Thread5startEv
 834      E7800000 
 835              	.LVL78:
 140:src/main.cpp  ****     putc('E');
 836              		.loc 2 140 5 is_stmt 1
 837              		.loc 2 140 9 is_stmt 0
 838 0300 13055004 		li	a0,69
 839 0304 97000000 		call	_Z4putcc@plt
 839      E7800000 
 840              	.LVL79:
 141:src/main.cpp  ****     char x = 'm';
 841              		.loc 2 141 10
GAS LISTING /tmp/ccEAUEgO.s 			page 22


 842 030c 9304D006 		li	s1,109
 843              	.L54:
 844              	.LVL80:
 142:src/main.cpp  ****     while (x!='x'){
 845              		.loc 2 142 5 is_stmt 1
 846              		.loc 2 142 13
 847 0310 93078007 		li	a5,120
 848 0314 638EF400 		beq	s1,a5,.L53
 143:src/main.cpp  ****         x=getc();
 849              		.loc 2 143 9
 850              		.loc 2 143 15 is_stmt 0
 851 0318 97000000 		call	_Z4getcv@plt
 851      E7800000 
 852              	.LVL81:
 853 0320 93040500 		mv	s1,a0
 854              	.LVL82:
 144:src/main.cpp  ****         putc(x);
 855              		.loc 2 144 9 is_stmt 1
 856              		.loc 2 144 13 is_stmt 0
 857 0324 97000000 		call	_Z4putcc@plt
 857      E7800000 
 858              	.LVL83:
 859 032c 6FF05FFE 		j	.L54
 860              	.L53:
 145:src/main.cpp  ****     }
 146:src/main.cpp  **** 
 147:src/main.cpp  ****     pt->terminate();
 861              		.loc 2 147 5 is_stmt 1
 862              	.LVL84:
 863              	.LBB93:
 864              	.LBB94:
  62:src/../h/syscall_cpp.hpp ****     }
 865              		.loc 1 62 9
  62:src/../h/syscall_cpp.hpp ****     }
 866              		.loc 1 62 40 is_stmt 0
 867 0330 93071000 		li	a5,1
 868 0334 23A0F902 		sw	a5,32(s3)
 869              	.LVL85:
 870              	.LBE94:
 871              	.LBE93:
 148:src/main.cpp  ****     pt2->terminate();
 872              		.loc 2 148 5 is_stmt 1
 873              	.LBB95:
 874              	.LBB96:
  62:src/../h/syscall_cpp.hpp ****     }
 875              		.loc 1 62 9
  62:src/../h/syscall_cpp.hpp ****     }
 876              		.loc 1 62 40 is_stmt 0
 877 0338 2320F902 		sw	a5,32(s2)
 878              	.LVL86:
 879              	.LBE96:
 880              	.LBE95:
 149:src/main.cpp  ****     idleAlive=0;
 881              		.loc 2 149 5 is_stmt 1
 882              		.loc 2 149 14 is_stmt 0
 883 033c 97070000 		sw	zero,.LANCHOR0,a5
 883      23A00700 
GAS LISTING /tmp/ccEAUEgO.s 			page 23


 150:src/main.cpp  ****     return 0;
 884              		.loc 2 150 5 is_stmt 1
 151:src/main.cpp  **** }...
 885              		.loc 2 151 1 is_stmt 0
 886 0344 13050000 		li	a0,0
 887 0348 83308103 		ld	ra,56(sp)
 888              		.cfi_restore 1
 889 034c 03340103 		ld	s0,48(sp)
 890              		.cfi_restore 8
 891              		.cfi_def_cfa 2, 64
 892 0350 83348102 		ld	s1,40(sp)
 893              		.cfi_restore 9
 894              	.LVL87:
 895 0354 03390102 		ld	s2,32(sp)
 896              		.cfi_restore 18
 897              	.LVL88:
 898 0358 83398101 		ld	s3,24(sp)
 899              		.cfi_restore 19
 900              	.LVL89:
 901 035c 13010104 		addi	sp,sp,64
 902              		.cfi_def_cfa_offset 0
 903 0360 67800000 		jr	ra
 904              		.cfi_endproc
 905              	.LFE45:
 907              		.weak	_ZTV6Thread
 908              		.section	.data.rel.ro.local._ZTV6Thread,"awG",@progbits,_ZTV6Thread,comdat
 909              		.align	3
 912              	_ZTV6Thread:
 913 0000 00000000 		.dword	0
 913      00000000 
 914 0008 00000000 		.dword	0
 914      00000000 
 915 0010 00000000 		.dword	_ZN6ThreadD1Ev
 915      00000000 
 916 0018 00000000 		.dword	_ZN6ThreadD0Ev
 916      00000000 
 917 0020 00000000 		.dword	_ZN6Thread3runEv
 917      00000000 
 918              		.weak	_ZTV12PeriodicTest
 919              		.section	.data.rel.ro.local._ZTV12PeriodicTest,"awG",@progbits,_ZTV12PeriodicTest,comdat
 920              		.align	3
 923              	_ZTV12PeriodicTest:
 924 0000 00000000 		.dword	0
 924      00000000 
 925 0008 00000000 		.dword	0
 925      00000000 
 926 0010 00000000 		.dword	_ZN12PeriodicTestD1Ev
 926      00000000 
 927 0018 00000000 		.dword	_ZN12PeriodicTestD0Ev
 927      00000000 
 928 0020 00000000 		.dword	_ZN14PeriodicThread3runEv
 928      00000000 
 929 0028 00000000 		.dword	_ZN12PeriodicTest18periodicActivationEv
 929      00000000 
 930              		.globl	str
 931              		.globl	g
 932              		.globl	idleAlive
GAS LISTING /tmp/ccEAUEgO.s 			page 24


 933              		.globl	semTest
 934              		.data
 935              		.align	3
 936              		.set	.LANCHOR0,. + 0
 939              	idleAlive:
 940 0000 01000000 		.word	1
 941 0004 00000000 		.zero	4
 944              	str:
 945 0008 74657361 		.string	"tesa legenda"
 945      206C6567 
 945      656E6461 
 945      00
 946 0015 0000     		.zero	2
 947              		.bss
 948              		.align	3
 949              		.set	.LANCHOR1,. + 0
 952              	g:
 953 0000 00000000 		.zero	4
 954 0004 00000000 		.zero	4
 957              	semTest:
 958 0008 00000000 		.zero	8
 958      00000000 
 959              		.text
 960              	.Letext0:
 961              		.file 3 "src/../h/../lib/hw.h"
 962              		.file 4 "src/../h/syscall_c.h"
 963              		.file 5 "src/../h/./kern_threads.hpp"
 964              		.file 6 "src/../h/kern_semaphore.hpp"
 965              		.file 7 "src/../h/kern_memory.hpp"
 966              		.file 8 "src/../h/kern_interrupts.hpp"
 967              		.file 9 "src/../h/kern_console.hpp"
 968              		.file 10 "src/../h/printing.hpp"
 969              		.file 11 "src/../h/kern_buddyAllocator.hpp"
GAS LISTING /tmp/ccEAUEgO.s 			page 25


DEFINED SYMBOLS
                            *ABS*:0000000000000000 main.cpp
     /tmp/ccEAUEgO.s:10     .text._ZN6ThreadD2Ev:0000000000000000 _ZN6ThreadD2Ev
     /tmp/ccEAUEgO.s:14     .text._ZN6ThreadD2Ev:0000000000000000 .L0 
     /tmp/ccEAUEgO.s:16     .text._ZN6ThreadD2Ev:0000000000000000 .L0 
     /tmp/ccEAUEgO.s:17     .text._ZN6ThreadD2Ev:0000000000000004 .L0 
     /tmp/ccEAUEgO.s:19     .text._ZN6ThreadD2Ev:0000000000000008 .L0 
     /tmp/ccEAUEgO.s:21     .text._ZN6ThreadD2Ev:000000000000000c .L0 
     /tmp/ccEAUEgO.s:23     .text._ZN6ThreadD2Ev:000000000000000c .L0 
     /tmp/ccEAUEgO.s:24     .text._ZN6ThreadD2Ev:0000000000000010 .L0 
     /tmp/ccEAUEgO.s:25     .text._ZN6ThreadD2Ev:0000000000000010 .L0 
     /tmp/ccEAUEgO.s:27     .text._ZN6ThreadD2Ev:0000000000000014 .L0 
     /tmp/ccEAUEgO.s:29     .text._ZN6ThreadD2Ev:0000000000000018 .L0 
     /tmp/ccEAUEgO.s:10     .text._ZN6ThreadD2Ev:0000000000000000 _ZN6ThreadD1Ev
     /tmp/ccEAUEgO.s:38     .text._ZN6Thread3runEv:0000000000000000 _ZN6Thread3runEv
     /tmp/ccEAUEgO.s:41     .text._ZN6Thread3runEv:0000000000000000 .L0 
     /tmp/ccEAUEgO.s:43     .text._ZN6Thread3runEv:0000000000000000 .L0 
     /tmp/ccEAUEgO.s:44     .text._ZN6Thread3runEv:0000000000000004 .L0 
     /tmp/ccEAUEgO.s:46     .text._ZN6Thread3runEv:0000000000000008 .L0 
     /tmp/ccEAUEgO.s:48     .text._ZN6Thread3runEv:000000000000000c .L0 
     /tmp/ccEAUEgO.s:50     .text._ZN6Thread3runEv:000000000000000c .L0 
     /tmp/ccEAUEgO.s:51     .text._ZN6Thread3runEv:0000000000000010 .L0 
     /tmp/ccEAUEgO.s:52     .text._ZN6Thread3runEv:0000000000000010 .L0 
     /tmp/ccEAUEgO.s:54     .text._ZN6Thread3runEv:0000000000000014 .L0 
     /tmp/ccEAUEgO.s:56     .text._ZN6Thread3runEv:0000000000000018 .L0 
     /tmp/ccEAUEgO.s:63     .text._ZN6Thread11threadEntryEPv:0000000000000000 _ZN6Thread11threadEntryEPv
     /tmp/ccEAUEgO.s:66     .text._ZN6Thread11threadEntryEPv:0000000000000000 .L0 
     /tmp/ccEAUEgO.s:68     .text._ZN6Thread11threadEntryEPv:0000000000000000 .L0 
     /tmp/ccEAUEgO.s:69     .text._ZN6Thread11threadEntryEPv:0000000000000004 .L0 
     /tmp/ccEAUEgO.s:72     .text._ZN6Thread11threadEntryEPv:000000000000000c .L0 
     /tmp/ccEAUEgO.s:73     .text._ZN6Thread11threadEntryEPv:000000000000000c .L0 
     /tmp/ccEAUEgO.s:75     .text._ZN6Thread11threadEntryEPv:0000000000000010 .L0 
     /tmp/ccEAUEgO.s:78     .text._ZN6Thread11threadEntryEPv:0000000000000010 .L0 
     /tmp/ccEAUEgO.s:79     .text._ZN6Thread11threadEntryEPv:0000000000000010 .L0 
     /tmp/ccEAUEgO.s:80     .text._ZN6Thread11threadEntryEPv:0000000000000010 .L0 
     /tmp/ccEAUEgO.s:83     .text._ZN6Thread11threadEntryEPv:0000000000000018 .L0 
     /tmp/ccEAUEgO.s:86     .text._ZN6Thread11threadEntryEPv:000000000000001c .L0 
     /tmp/ccEAUEgO.s:87     .text._ZN6Thread11threadEntryEPv:0000000000000020 .L0 
     /tmp/ccEAUEgO.s:89     .text._ZN6Thread11threadEntryEPv:0000000000000024 .L0 
     /tmp/ccEAUEgO.s:90     .text._ZN6Thread11threadEntryEPv:0000000000000024 .L0 
     /tmp/ccEAUEgO.s:92     .text._ZN6Thread11threadEntryEPv:0000000000000028 .L0 
     /tmp/ccEAUEgO.s:94     .text._ZN6Thread11threadEntryEPv:000000000000002c .L0 
     /tmp/ccEAUEgO.s:101    .text._ZN12PeriodicTestD2Ev:0000000000000000 _ZN12PeriodicTestD2Ev
     /tmp/ccEAUEgO.s:105    .text._ZN12PeriodicTestD2Ev:0000000000000000 .L0 
     /tmp/ccEAUEgO.s:107    .text._ZN12PeriodicTestD2Ev:0000000000000000 .L0 
     /tmp/ccEAUEgO.s:108    .text._ZN12PeriodicTestD2Ev:0000000000000004 .L0 
     /tmp/ccEAUEgO.s:110    .text._ZN12PeriodicTestD2Ev:0000000000000008 .L0 
     /tmp/ccEAUEgO.s:112    .text._ZN12PeriodicTestD2Ev:000000000000000c .L0 
     /tmp/ccEAUEgO.s:114    .text._ZN12PeriodicTestD2Ev:000000000000000c .L0 
     /tmp/ccEAUEgO.s:115    .text._ZN12PeriodicTestD2Ev:0000000000000010 .L0 
     /tmp/ccEAUEgO.s:116    .text._ZN12PeriodicTestD2Ev:0000000000000010 .L0 
     /tmp/ccEAUEgO.s:118    .text._ZN12PeriodicTestD2Ev:0000000000000014 .L0 
     /tmp/ccEAUEgO.s:120    .text._ZN12PeriodicTestD2Ev:0000000000000018 .L0 
     /tmp/ccEAUEgO.s:101    .text._ZN12PeriodicTestD2Ev:0000000000000000 _ZN12PeriodicTestD1Ev
     /tmp/ccEAUEgO.s:129    .text:0000000000000000 _Z8bodyIdlePv
     /tmp/ccEAUEgO.s:132    .text:0000000000000000 .L0 
     /tmp/ccEAUEgO.s:134    .text:0000000000000000 .L0 
GAS LISTING /tmp/ccEAUEgO.s 			page 26


     /tmp/ccEAUEgO.s:135    .text:0000000000000000 .L0 
     /tmp/ccEAUEgO.s:136    .text:0000000000000000 .L0 
     /tmp/ccEAUEgO.s:139    .text:000000000000000c .L0 
     /tmp/ccEAUEgO.s:140    .text:0000000000000010 .L0 
     /tmp/ccEAUEgO.s:143    .text:0000000000000018 .L0 
     /tmp/ccEAUEgO.s:144    .text:0000000000000018 .L0 
     /tmp/ccEAUEgO.s:146    .text:000000000000001c .L0 
     /tmp/ccEAUEgO.s:150    .text:000000000000001c .L0 
     /tmp/ccEAUEgO.s:151    .text:000000000000001c .L0 
     /tmp/ccEAUEgO.s:154    .text:0000000000000024 .L0 
     /tmp/ccEAUEgO.s:155    .text:0000000000000024 .L0 
     /tmp/ccEAUEgO.s:158    .text:0000000000000030 .L0 
     /tmp/ccEAUEgO.s:159    .text:0000000000000034 .L0 
     /tmp/ccEAUEgO.s:161    .text:0000000000000038 .L0 
     /tmp/ccEAUEgO.s:162    .text:0000000000000038 .L0 
     /tmp/ccEAUEgO.s:164    .text:000000000000003c .L0 
     /tmp/ccEAUEgO.s:169    .text:0000000000000044 .L0 
     /tmp/ccEAUEgO.s:176    .text._ZN12PeriodicTest18periodicActivationEv:0000000000000000 _ZN12PeriodicTest18periodicActivationEv
     /tmp/ccEAUEgO.s:179    .text._ZN12PeriodicTest18periodicActivationEv:0000000000000000 .L0 
     /tmp/ccEAUEgO.s:181    .text._ZN12PeriodicTest18periodicActivationEv:0000000000000000 .L0 
     /tmp/ccEAUEgO.s:182    .text._ZN12PeriodicTest18periodicActivationEv:0000000000000004 .L0 
     /tmp/ccEAUEgO.s:185    .text._ZN12PeriodicTest18periodicActivationEv:000000000000000c .L0 
     /tmp/ccEAUEgO.s:186    .text._ZN12PeriodicTest18periodicActivationEv:000000000000000c .L0 
     /tmp/ccEAUEgO.s:188    .text._ZN12PeriodicTest18periodicActivationEv:0000000000000010 .L0 
     /tmp/ccEAUEgO.s:191    .text._ZN12PeriodicTest18periodicActivationEv:0000000000000014 .L0 
     /tmp/ccEAUEgO.s:192    .text._ZN12PeriodicTest18periodicActivationEv:0000000000000014 .L0 
     /tmp/ccEAUEgO.s:195    .text._ZN12PeriodicTest18periodicActivationEv:0000000000000018 .L0 
     /tmp/ccEAUEgO.s:200    .text._ZN12PeriodicTest18periodicActivationEv:0000000000000028 .L0 
     /tmp/ccEAUEgO.s:201    .text._ZN12PeriodicTest18periodicActivationEv:000000000000002c .L0 
     /tmp/ccEAUEgO.s:203    .text._ZN12PeriodicTest18periodicActivationEv:0000000000000030 .L0 
     /tmp/ccEAUEgO.s:204    .text._ZN12PeriodicTest18periodicActivationEv:0000000000000030 .L0 
     /tmp/ccEAUEgO.s:206    .text._ZN12PeriodicTest18periodicActivationEv:0000000000000034 .L0 
     /tmp/ccEAUEgO.s:208    .text._ZN12PeriodicTest18periodicActivationEv:0000000000000038 .L0 
     /tmp/ccEAUEgO.s:215    .text._ZN14PeriodicThread3runEv:0000000000000000 _ZN14PeriodicThread3runEv
     /tmp/ccEAUEgO.s:218    .text._ZN14PeriodicThread3runEv:0000000000000000 .L0 
     /tmp/ccEAUEgO.s:220    .text._ZN14PeriodicThread3runEv:0000000000000000 .L0 
     /tmp/ccEAUEgO.s:221    .text._ZN14PeriodicThread3runEv:0000000000000004 .L0 
     /tmp/ccEAUEgO.s:225    .text._ZN14PeriodicThread3runEv:0000000000000010 .L0 
     /tmp/ccEAUEgO.s:226    .text._ZN14PeriodicThread3runEv:0000000000000010 .L0 
     /tmp/ccEAUEgO.s:227    .text._ZN14PeriodicThread3runEv:0000000000000010 .L0 
     /tmp/ccEAUEgO.s:229    .text._ZN14PeriodicThread3runEv:0000000000000014 .L0 
     /tmp/ccEAUEgO.s:234    .text._ZN14PeriodicThread3runEv:0000000000000018 .L0 
     /tmp/ccEAUEgO.s:235    .text._ZN14PeriodicThread3runEv:0000000000000018 .L0 
     /tmp/ccEAUEgO.s:236    .text._ZN14PeriodicThread3runEv:0000000000000018 .L0 
     /tmp/ccEAUEgO.s:238    .text._ZN14PeriodicThread3runEv:000000000000001c .L0 
     /tmp/ccEAUEgO.s:240    .text._ZN14PeriodicThread3runEv:0000000000000020 .L0 
     /tmp/ccEAUEgO.s:241    .text._ZN14PeriodicThread3runEv:0000000000000020 .L0 
     /tmp/ccEAUEgO.s:244    .text._ZN14PeriodicThread3runEv:0000000000000028 .L0 
     /tmp/ccEAUEgO.s:250    .text._ZN14PeriodicThread3runEv:0000000000000030 .L0 
     /tmp/ccEAUEgO.s:251    .text._ZN14PeriodicThread3runEv:0000000000000030 .L0 
     /tmp/ccEAUEgO.s:252    .text._ZN14PeriodicThread3runEv:0000000000000030 .L0 
     /tmp/ccEAUEgO.s:256    .text._ZN14PeriodicThread3runEv:000000000000003c .L0 
     /tmp/ccEAUEgO.s:261    .text._ZN14PeriodicThread3runEv:0000000000000040 .L0 
     /tmp/ccEAUEgO.s:262    .text._ZN14PeriodicThread3runEv:0000000000000044 .L0 
     /tmp/ccEAUEgO.s:264    .text._ZN14PeriodicThread3runEv:0000000000000048 .L0 
     /tmp/ccEAUEgO.s:265    .text._ZN14PeriodicThread3runEv:0000000000000048 .L0 
     /tmp/ccEAUEgO.s:267    .text._ZN14PeriodicThread3runEv:000000000000004c .L0 
GAS LISTING /tmp/ccEAUEgO.s 			page 27


     /tmp/ccEAUEgO.s:270    .text._ZN14PeriodicThread3runEv:0000000000000050 .L0 
     /tmp/ccEAUEgO.s:272    .text._ZN14PeriodicThread3runEv:0000000000000054 .L0 
     /tmp/ccEAUEgO.s:279    .text._ZN6ThreadD0Ev:0000000000000000 _ZN6ThreadD0Ev
     /tmp/ccEAUEgO.s:282    .text._ZN6ThreadD0Ev:0000000000000000 .L0 
     /tmp/ccEAUEgO.s:284    .text._ZN6ThreadD0Ev:0000000000000000 .L0 
     /tmp/ccEAUEgO.s:285    .text._ZN6ThreadD0Ev:0000000000000004 .L0 
     /tmp/ccEAUEgO.s:288    .text._ZN6ThreadD0Ev:000000000000000c .L0 
     /tmp/ccEAUEgO.s:289    .text._ZN6ThreadD0Ev:000000000000000c .L0 
     /tmp/ccEAUEgO.s:291    .text._ZN6ThreadD0Ev:0000000000000010 .L0 
     /tmp/ccEAUEgO.s:293    .text._ZN6ThreadD0Ev:0000000000000010 .L0 
     /tmp/ccEAUEgO.s:296    .text._ZN6ThreadD0Ev:000000000000001c .L0 
     /tmp/ccEAUEgO.s:298    .text._ZN6ThreadD0Ev:0000000000000020 .L0 
     /tmp/ccEAUEgO.s:299    .text._ZN6ThreadD0Ev:0000000000000020 .L0 
     /tmp/ccEAUEgO.s:301    .text._ZN6ThreadD0Ev:0000000000000024 .L0 
     /tmp/ccEAUEgO.s:303    .text._ZN6ThreadD0Ev:0000000000000028 .L0 
     /tmp/ccEAUEgO.s:310    .text._ZN12PeriodicTestD0Ev:0000000000000000 _ZN12PeriodicTestD0Ev
     /tmp/ccEAUEgO.s:313    .text._ZN12PeriodicTestD0Ev:0000000000000000 .L0 
     /tmp/ccEAUEgO.s:315    .text._ZN12PeriodicTestD0Ev:0000000000000000 .L0 
     /tmp/ccEAUEgO.s:316    .text._ZN12PeriodicTestD0Ev:0000000000000004 .L0 
     /tmp/ccEAUEgO.s:319    .text._ZN12PeriodicTestD0Ev:000000000000000c .L0 
     /tmp/ccEAUEgO.s:320    .text._ZN12PeriodicTestD0Ev:000000000000000c .L0 
     /tmp/ccEAUEgO.s:322    .text._ZN12PeriodicTestD0Ev:0000000000000010 .L0 
     /tmp/ccEAUEgO.s:324    .text._ZN12PeriodicTestD0Ev:0000000000000010 .L0 
     /tmp/ccEAUEgO.s:327    .text._ZN12PeriodicTestD0Ev:000000000000001c .L0 
     /tmp/ccEAUEgO.s:329    .text._ZN12PeriodicTestD0Ev:0000000000000020 .L0 
     /tmp/ccEAUEgO.s:330    .text._ZN12PeriodicTestD0Ev:0000000000000020 .L0 
     /tmp/ccEAUEgO.s:332    .text._ZN12PeriodicTestD0Ev:0000000000000024 .L0 
     /tmp/ccEAUEgO.s:334    .text._ZN12PeriodicTestD0Ev:0000000000000028 .L0 
     /tmp/ccEAUEgO.s:341    .text._ZN6Thread5startEv:0000000000000000 _ZN6Thread5startEv
     /tmp/ccEAUEgO.s:344    .text._ZN6Thread5startEv:0000000000000000 .L0 
     /tmp/ccEAUEgO.s:346    .text._ZN6Thread5startEv:0000000000000000 .L0 
     /tmp/ccEAUEgO.s:347    .text._ZN6Thread5startEv:0000000000000004 .L0 
     /tmp/ccEAUEgO.s:350    .text._ZN6Thread5startEv:000000000000000c .L0 
     /tmp/ccEAUEgO.s:351    .text._ZN6Thread5startEv:000000000000000c .L0 
     /tmp/ccEAUEgO.s:353    .text._ZN6Thread5startEv:0000000000000010 .L0 
     /tmp/ccEAUEgO.s:355    .text._ZN6Thread5startEv:0000000000000010 .L0 
     /tmp/ccEAUEgO.s:356    .text._ZN6Thread5startEv:0000000000000010 .L0 
     /tmp/ccEAUEgO.s:358    .text._ZN6Thread5startEv:0000000000000014 .L0 
     /tmp/ccEAUEgO.s:360    .text._ZN6Thread5startEv:0000000000000018 .L0 
     /tmp/ccEAUEgO.s:361    .text._ZN6Thread5startEv:0000000000000018 .L0 
     /tmp/ccEAUEgO.s:368    .text._ZN6Thread5startEv:0000000000000028 .L0 
     /tmp/ccEAUEgO.s:369    .text._ZN6Thread5startEv:000000000000002c .L0 
     /tmp/ccEAUEgO.s:370    .text._ZN6Thread5startEv:000000000000002c .L0 
     /tmp/ccEAUEgO.s:372    .text._ZN6Thread5startEv:0000000000000030 .L0 
     /tmp/ccEAUEgO.s:373    .text._ZN6Thread5startEv:0000000000000030 .L0 
     /tmp/ccEAUEgO.s:375    .text._ZN6Thread5startEv:0000000000000034 .L0 
     /tmp/ccEAUEgO.s:379    .text._ZN6Thread5startEv:0000000000000038 .L0 
     /tmp/ccEAUEgO.s:381    .text._ZN6Thread5startEv:0000000000000038 .L0 
     /tmp/ccEAUEgO.s:382    .text._ZN6Thread5startEv:0000000000000038 .L0 
     /tmp/ccEAUEgO.s:389    .text._ZN6Thread5startEv:0000000000000050 .L0 
     /tmp/ccEAUEgO.s:390    .text._ZN6Thread5startEv:0000000000000054 .L0 
     /tmp/ccEAUEgO.s:397    .text:0000000000000044 _Z5bodyCPv
     /tmp/ccEAUEgO.s:400    .text:0000000000000044 .L0 
     /tmp/ccEAUEgO.s:402    .text:0000000000000044 .L0 
     /tmp/ccEAUEgO.s:403    .text:0000000000000048 .L0 
     /tmp/ccEAUEgO.s:408    .text:0000000000000058 .L0 
     /tmp/ccEAUEgO.s:409    .text:0000000000000058 .L0 
GAS LISTING /tmp/ccEAUEgO.s 			page 28


     /tmp/ccEAUEgO.s:410    .text:0000000000000058 .L0 
     /tmp/ccEAUEgO.s:411    .text:0000000000000058 .L0 
     /tmp/ccEAUEgO.s:413    .text:000000000000005c .L0 
     /tmp/ccEAUEgO.s:417    .text:0000000000000060 .L0 
     /tmp/ccEAUEgO.s:418    .text:0000000000000060 .L0 
     /tmp/ccEAUEgO.s:419    .text:0000000000000060 .L0 
     /tmp/ccEAUEgO.s:423    .text:0000000000000064 .L0 
     /tmp/ccEAUEgO.s:424    .text:0000000000000064 .L0 
     /tmp/ccEAUEgO.s:427    .text:000000000000006c .L0 
     /tmp/ccEAUEgO.s:428    .text:000000000000006c .L0 
     /tmp/ccEAUEgO.s:432    .text:0000000000000078 .L0 
     /tmp/ccEAUEgO.s:433    .text:0000000000000078 .L0 
     /tmp/ccEAUEgO.s:437    .text:0000000000000084 .L0 
     /tmp/ccEAUEgO.s:438    .text:0000000000000084 .L0 
     /tmp/ccEAUEgO.s:441    .text:0000000000000088 .L0 
     /tmp/ccEAUEgO.s:445    .text:000000000000008c .L0 
     /tmp/ccEAUEgO.s:446    .text:0000000000000090 .L0 
     /tmp/ccEAUEgO.s:448    .text:0000000000000094 .L0 
     /tmp/ccEAUEgO.s:449    .text:0000000000000094 .L0 
     /tmp/ccEAUEgO.s:451    .text:0000000000000098 .L0 
     /tmp/ccEAUEgO.s:454    .text:000000000000009c .L0 
     /tmp/ccEAUEgO.s:457    .text:00000000000000a0 .L0 
     /tmp/ccEAUEgO.s:459    .text:00000000000000a4 .L0 
     /tmp/ccEAUEgO.s:465    .text:00000000000000a4 _Z5bodyAPv
     /tmp/ccEAUEgO.s:468    .text:00000000000000a4 .L0 
     /tmp/ccEAUEgO.s:470    .text:00000000000000a4 .L0 
     /tmp/ccEAUEgO.s:471    .text:00000000000000a8 .L0 
     /tmp/ccEAUEgO.s:475    .text:00000000000000b4 .L0 
     /tmp/ccEAUEgO.s:476    .text:00000000000000b4 .L0 
     /tmp/ccEAUEgO.s:477    .text:00000000000000b4 .L0 
     /tmp/ccEAUEgO.s:479    .text:00000000000000b8 .L0 
     /tmp/ccEAUEgO.s:482    .text:00000000000000b8 .L0 
     /tmp/ccEAUEgO.s:484    .text:00000000000000b8 .L0 
     /tmp/ccEAUEgO.s:485    .text:00000000000000b8 .L0 
     /tmp/ccEAUEgO.s:490    .text:00000000000000c0 .L0 
     /tmp/ccEAUEgO.s:491    .text:00000000000000c0 .L0 
     /tmp/ccEAUEgO.s:495    .text:00000000000000c8 .L0 
     /tmp/ccEAUEgO.s:496    .text:00000000000000c8 .L0 
     /tmp/ccEAUEgO.s:499    .text:00000000000000d0 .L0 
     /tmp/ccEAUEgO.s:503    .text:00000000000000d4 .L0 
     /tmp/ccEAUEgO.s:506    .text:00000000000000dc .L0 
     /tmp/ccEAUEgO.s:507    .text:00000000000000dc .L0 
     /tmp/ccEAUEgO.s:511    .text:00000000000000e8 .L0 
     /tmp/ccEAUEgO.s:517    .text:00000000000000f4 .L0 
     /tmp/ccEAUEgO.s:518    .text:00000000000000f8 .L0 
     /tmp/ccEAUEgO.s:520    .text:00000000000000fc .L0 
     /tmp/ccEAUEgO.s:521    .text:00000000000000fc .L0 
     /tmp/ccEAUEgO.s:523    .text:0000000000000100 .L0 
     /tmp/ccEAUEgO.s:526    .text:0000000000000104 .L0 
     /tmp/ccEAUEgO.s:528    .text:0000000000000108 .L0 
     /tmp/ccEAUEgO.s:534    .text:0000000000000108 _Z5bodyBPv
     /tmp/ccEAUEgO.s:537    .text:0000000000000108 .L0 
     /tmp/ccEAUEgO.s:539    .text:0000000000000108 .L0 
     /tmp/ccEAUEgO.s:540    .text:000000000000010c .L0 
     /tmp/ccEAUEgO.s:544    .text:0000000000000118 .L0 
     /tmp/ccEAUEgO.s:545    .text:0000000000000118 .L0 
     /tmp/ccEAUEgO.s:546    .text:0000000000000118 .L0 
GAS LISTING /tmp/ccEAUEgO.s 			page 29


     /tmp/ccEAUEgO.s:548    .text:000000000000011c .L0 
     /tmp/ccEAUEgO.s:552    .text:000000000000011c .L0 
     /tmp/ccEAUEgO.s:553    .text:000000000000011c .L0 
     /tmp/ccEAUEgO.s:561    .text:0000000000000124 .L0 
     /tmp/ccEAUEgO.s:565    .text:0000000000000128 .L0 
     /tmp/ccEAUEgO.s:568    .text:0000000000000130 .L0 
     /tmp/ccEAUEgO.s:569    .text:0000000000000130 .L0 
     /tmp/ccEAUEgO.s:571    .text:0000000000000134 .L0 
     /tmp/ccEAUEgO.s:574    .text:000000000000013c .L0 
     /tmp/ccEAUEgO.s:576    .text:0000000000000140 .L0 
     /tmp/ccEAUEgO.s:577    .text:0000000000000140 .L0 
     /tmp/ccEAUEgO.s:585    .text:0000000000000158 .L0 
     /tmp/ccEAUEgO.s:589    .text:000000000000015c .L0 
     /tmp/ccEAUEgO.s:594    .text:0000000000000168 .L0 
     /tmp/ccEAUEgO.s:601    .text:0000000000000170 .L0 
     /tmp/ccEAUEgO.s:605    .text:0000000000000174 .L0 
     /tmp/ccEAUEgO.s:609    .text:000000000000017c .L0 
     /tmp/ccEAUEgO.s:610    .text:000000000000017c .L0 
     /tmp/ccEAUEgO.s:617    .text:0000000000000194 .L0 
     /tmp/ccEAUEgO.s:618    .text:0000000000000194 .L0 
     /tmp/ccEAUEgO.s:628    .text:000000000000019c .L0 
     /tmp/ccEAUEgO.s:629    .text:000000000000019c .L0 
     /tmp/ccEAUEgO.s:630    .text:000000000000019c .L0 
     /tmp/ccEAUEgO.s:637    .text:00000000000001b0 .L0 
     /tmp/ccEAUEgO.s:638    .text:00000000000001b4 .L0 
     /tmp/ccEAUEgO.s:640    .text:00000000000001b8 .L0 
     /tmp/ccEAUEgO.s:641    .text:00000000000001b8 .L0 
     /tmp/ccEAUEgO.s:643    .text:00000000000001bc .L0 
     /tmp/ccEAUEgO.s:646    .text:00000000000001c0 .L0 
     /tmp/ccEAUEgO.s:648    .text:00000000000001c4 .L0 
     /tmp/ccEAUEgO.s:659    .text:00000000000001c4 main
     /tmp/ccEAUEgO.s:662    .text:00000000000001c4 .L0 
     /tmp/ccEAUEgO.s:663    .text:00000000000001c4 .L0 
     /tmp/ccEAUEgO.s:664    .text:00000000000001c8 .L0 
     /tmp/ccEAUEgO.s:670    .text:00000000000001dc .L0 
     /tmp/ccEAUEgO.s:671    .text:00000000000001dc .L0 
     /tmp/ccEAUEgO.s:672    .text:00000000000001dc .L0 
     /tmp/ccEAUEgO.s:673    .text:00000000000001dc .L0 
     /tmp/ccEAUEgO.s:674    .text:00000000000001dc .L0 
     /tmp/ccEAUEgO.s:676    .text:00000000000001e0 .L0 
     /tmp/ccEAUEgO.s:678    .text:00000000000001e0 .L0 
     /tmp/ccEAUEgO.s:679    .text:00000000000001e0 .L0 
     /tmp/ccEAUEgO.s:682    .text:00000000000001e8 .L0 
     /tmp/ccEAUEgO.s:683    .text:00000000000001e8 .L0 
     /tmp/ccEAUEgO.s:690    .text:0000000000000208 .L0 
     /tmp/ccEAUEgO.s:691    .text:0000000000000208 .L0 
     /tmp/ccEAUEgO.s:694    .text:0000000000000210 .L0 
     /tmp/ccEAUEgO.s:695    .text:0000000000000210 .L0 
     /tmp/ccEAUEgO.s:698    .text:0000000000000218 .L0 
     /tmp/ccEAUEgO.s:699    .text:0000000000000218 .L0 
     /tmp/ccEAUEgO.s:702    .text:0000000000000220 .L0 
     /tmp/ccEAUEgO.s:703    .text:0000000000000220 .L0 
     /tmp/ccEAUEgO.s:912    .data.rel.ro.local._ZTV6Thread:0000000000000000 _ZTV6Thread
     /tmp/ccEAUEgO.s:709    .text:000000000000022c .L0 
     /tmp/ccEAUEgO.s:712    .text:0000000000000238 .L0 
     /tmp/ccEAUEgO.s:713    .text:0000000000000238 .L0 
     /tmp/ccEAUEgO.s:716    .text:0000000000000244 .L0 
GAS LISTING /tmp/ccEAUEgO.s 			page 30


     /tmp/ccEAUEgO.s:717    .text:0000000000000244 .L0 
     /tmp/ccEAUEgO.s:722    .text:0000000000000248 .L0 
     /tmp/ccEAUEgO.s:724    .text:000000000000024c .L0 
     /tmp/ccEAUEgO.s:725    .text:000000000000024c .L0 
     /tmp/ccEAUEgO.s:728    .text:0000000000000254 .L0 
     /tmp/ccEAUEgO.s:729    .text:0000000000000254 .L0 
     /tmp/ccEAUEgO.s:736    .text:0000000000000270 .L0 
     /tmp/ccEAUEgO.s:737    .text:0000000000000270 .L0 
     /tmp/ccEAUEgO.s:742    .text:0000000000000280 .L0 
     /tmp/ccEAUEgO.s:743    .text:0000000000000280 .L0 
     /tmp/ccEAUEgO.s:755    .text:0000000000000290 .L0 
     /tmp/ccEAUEgO.s:756    .text:0000000000000290 .L0 
     /tmp/ccEAUEgO.s:758    .text:0000000000000294 .L0 
     /tmp/ccEAUEgO.s:759    .text:0000000000000294 .L0 
     /tmp/ccEAUEgO.s:764    .text:0000000000000298 .L0 
     /tmp/ccEAUEgO.s:765    .text:0000000000000298 .L0 
     /tmp/ccEAUEgO.s:768    .text:00000000000002a0 .L0 
     /tmp/ccEAUEgO.s:769    .text:00000000000002a0 .L0 
     /tmp/ccEAUEgO.s:923    .data.rel.ro.local._ZTV12PeriodicTest:0000000000000000 _ZTV12PeriodicTest
     /tmp/ccEAUEgO.s:774    .text:00000000000002a4 .L0 
     /tmp/ccEAUEgO.s:777    .text:00000000000002b0 .L0 
     /tmp/ccEAUEgO.s:778    .text:00000000000002b0 .L0 
     /tmp/ccEAUEgO.s:784    .text:00000000000002b8 .L0 
     /tmp/ccEAUEgO.s:785    .text:00000000000002b8 .L0 
     /tmp/ccEAUEgO.s:798    .text:00000000000002c8 .L0 
     /tmp/ccEAUEgO.s:799    .text:00000000000002c8 .L0 
     /tmp/ccEAUEgO.s:801    .text:00000000000002cc .L0 
     /tmp/ccEAUEgO.s:802    .text:00000000000002cc .L0 
     /tmp/ccEAUEgO.s:807    .text:00000000000002d0 .L0 
     /tmp/ccEAUEgO.s:808    .text:00000000000002d0 .L0 
     /tmp/ccEAUEgO.s:811    .text:00000000000002d8 .L0 
     /tmp/ccEAUEgO.s:812    .text:00000000000002d8 .L0 
     /tmp/ccEAUEgO.s:817    .text:00000000000002dc .L0 
     /tmp/ccEAUEgO.s:819    .text:00000000000002e0 .L0 
     /tmp/ccEAUEgO.s:820    .text:00000000000002e0 .L0 
     /tmp/ccEAUEgO.s:826    .text:00000000000002e8 .L0 
     /tmp/ccEAUEgO.s:827    .text:00000000000002e8 .L0 
     /tmp/ccEAUEgO.s:832    .text:00000000000002f4 .L0 
     /tmp/ccEAUEgO.s:833    .text:00000000000002f4 .L0 
     /tmp/ccEAUEgO.s:837    .text:0000000000000300 .L0 
     /tmp/ccEAUEgO.s:838    .text:0000000000000300 .L0 
     /tmp/ccEAUEgO.s:842    .text:000000000000030c .L0 
     /tmp/ccEAUEgO.s:846    .text:0000000000000310 .L0 
     /tmp/ccEAUEgO.s:847    .text:0000000000000310 .L0 
     /tmp/ccEAUEgO.s:850    .text:0000000000000318 .L0 
     /tmp/ccEAUEgO.s:851    .text:0000000000000318 .L0 
     /tmp/ccEAUEgO.s:856    .text:0000000000000324 .L0 
     /tmp/ccEAUEgO.s:857    .text:0000000000000324 .L0 
     /tmp/ccEAUEgO.s:865    .text:0000000000000330 .L0 
     /tmp/ccEAUEgO.s:866    .text:0000000000000330 .L0 
     /tmp/ccEAUEgO.s:867    .text:0000000000000330 .L0 
     /tmp/ccEAUEgO.s:875    .text:0000000000000338 .L0 
     /tmp/ccEAUEgO.s:876    .text:0000000000000338 .L0 
     /tmp/ccEAUEgO.s:877    .text:0000000000000338 .L0 
     /tmp/ccEAUEgO.s:882    .text:000000000000033c .L0 
     /tmp/ccEAUEgO.s:883    .text:000000000000033c .L0 
     /tmp/ccEAUEgO.s:885    .text:0000000000000344 .L0 
GAS LISTING /tmp/ccEAUEgO.s 			page 31


     /tmp/ccEAUEgO.s:886    .text:0000000000000344 .L0 
     /tmp/ccEAUEgO.s:888    .text:000000000000034c .L0 
     /tmp/ccEAUEgO.s:890    .text:0000000000000350 .L0 
     /tmp/ccEAUEgO.s:891    .text:0000000000000350 .L0 
     /tmp/ccEAUEgO.s:893    .text:0000000000000354 .L0 
     /tmp/ccEAUEgO.s:896    .text:0000000000000358 .L0 
     /tmp/ccEAUEgO.s:899    .text:000000000000035c .L0 
     /tmp/ccEAUEgO.s:902    .text:0000000000000360 .L0 
     /tmp/ccEAUEgO.s:904    .text:0000000000000364 .L0 
     /tmp/ccEAUEgO.s:944    .data:0000000000000008 str
     /tmp/ccEAUEgO.s:952    .bss:0000000000000000 g
     /tmp/ccEAUEgO.s:939    .data:0000000000000000 idleAlive
     /tmp/ccEAUEgO.s:957    .bss:0000000000000008 semTest
     /tmp/ccEAUEgO.s:936    .data:0000000000000000 .LANCHOR0
     /tmp/ccEAUEgO.s:949    .bss:0000000000000000 .LANCHOR1
     /tmp/ccEAUEgO.s:34     .text._ZN6ThreadD2Ev:0000000000000018 .L0 
     /tmp/ccEAUEgO.s:59     .text._ZN6Thread3runEv:0000000000000018 .L0 
     /tmp/ccEAUEgO.s:97     .text._ZN6Thread11threadEntryEPv:000000000000002c .L0 
     /tmp/ccEAUEgO.s:125    .text._ZN12PeriodicTestD2Ev:0000000000000018 .L0 
     /tmp/ccEAUEgO.s:970    .text:0000000000000364 .L0 
     /tmp/ccEAUEgO.s:211    .text._ZN12PeriodicTest18periodicActivationEv:0000000000000038 .L0 
     /tmp/ccEAUEgO.s:275    .text._ZN14PeriodicThread3runEv:0000000000000054 .L0 
     /tmp/ccEAUEgO.s:306    .text._ZN6ThreadD0Ev:0000000000000028 .L0 
     /tmp/ccEAUEgO.s:337    .text._ZN12PeriodicTestD0Ev:0000000000000028 .L0 
     /tmp/ccEAUEgO.s:393    .text._ZN6Thread5startEv:0000000000000054 .L0 
     /tmp/ccEAUEgO.s:136    .text:0000000000000000 .L0 
     /tmp/ccEAUEgO.s:155    .text:0000000000000024 .L0 
     /tmp/ccEAUEgO.s:577    .text:0000000000000140 .L0 
     /tmp/ccEAUEgO.s:610    .text:000000000000017c .L0 
     /tmp/ccEAUEgO.s:630    .text:000000000000019c .L0 
     /tmp/ccEAUEgO.s:683    .text:00000000000001e8 .L0 
     /tmp/ccEAUEgO.s:684    .text:00000000000001f0 .L0 
     /tmp/ccEAUEgO.s:709    .text:000000000000022c .L0 
     /tmp/ccEAUEgO.s:713    .text:0000000000000238 .L0 
     /tmp/ccEAUEgO.s:653    .rodata.str1.8:0000000000000000 .LC0
     /tmp/ccEAUEgO.s:732    .text:0000000000000260 .L0 
     /tmp/ccEAUEgO.s:774    .text:00000000000002a4 .L0 
     /tmp/ccEAUEgO.s:883    .text:000000000000033c .L0 
     /tmp/ccEAUEgO.s:167    .text:0000000000000040 .L17
     /tmp/ccEAUEgO.s:148    .text:000000000000001c .L14
     /tmp/ccEAUEgO.s:443    .text:000000000000008c .L33
     /tmp/ccEAUEgO.s:421    .text:0000000000000064 .L35
     /tmp/ccEAUEgO.s:501    .text:00000000000000d4 .L40
     /tmp/ccEAUEgO.s:514    .text:00000000000000f4 .L37
     /tmp/ccEAUEgO.s:493    .text:00000000000000c8 .L39
     /tmp/ccEAUEgO.s:488    .text:00000000000000c0 .L42
     /tmp/ccEAUEgO.s:603    .text:0000000000000174 .L50
     /tmp/ccEAUEgO.s:582    .text:0000000000000158 .L46
     /tmp/ccEAUEgO.s:556    .text:0000000000000124 .L47
     /tmp/ccEAUEgO.s:596    .text:0000000000000170 .L45
     /tmp/ccEAUEgO.s:563    .text:0000000000000128 .L48
     /tmp/ccEAUEgO.s:621    .text:000000000000019c .L44
     /tmp/ccEAUEgO.s:587    .text:000000000000015c .L49
     /tmp/ccEAUEgO.s:860    .text:0000000000000330 .L53
     /tmp/ccEAUEgO.s:843    .text:0000000000000310 .L54
     /tmp/ccEAUEgO.s:257    .text._ZN14PeriodicThread3runEv:0000000000000040 .L20
     /tmp/ccEAUEgO.s:232    .text._ZN14PeriodicThread3runEv:0000000000000018 .L22
GAS LISTING /tmp/ccEAUEgO.s 			page 32


     /tmp/ccEAUEgO.s:383    .text._ZN6Thread5startEv:000000000000003c .L0 
     /tmp/ccEAUEgO.s:378    .text._ZN6Thread5startEv:0000000000000038 .L32
     /tmp/ccEAUEgO.s:366    .text._ZN6Thread5startEv:0000000000000028 .L30
     /tmp/ccEAUEgO.s:2865   .debug_abbrev:0000000000000000 .Ldebug_abbrev0
     /tmp/ccEAUEgO.s:4784   .debug_str:0000000000000736 .LASF146
     /tmp/ccEAUEgO.s:4664   .debug_str:000000000000038a .LASF147
     /tmp/ccEAUEgO.s:4724   .debug_str:000000000000055e .LASF148
     /tmp/ccEAUEgO.s:4494   .debug_ranges:0000000000000000 .Ldebug_ranges0
     /tmp/ccEAUEgO.s:4530   .debug_line:0000000000000000 .Ldebug_line0
     /tmp/ccEAUEgO.s:4696   .debug_str:00000000000004b1 .LASF0
     /tmp/ccEAUEgO.s:4712   .debug_str:000000000000050c .LASF1
     /tmp/ccEAUEgO.s:4680   .debug_str:0000000000000429 .LASF2
     /tmp/ccEAUEgO.s:4652   .debug_str:0000000000000338 .LASF4
     /tmp/ccEAUEgO.s:4766   .debug_str:0000000000000693 .LASF3
     /tmp/ccEAUEgO.s:4564   .debug_str:00000000000000e2 .LASF5
     /tmp/ccEAUEgO.s:4718   .debug_str:0000000000000538 .LASF6
     /tmp/ccEAUEgO.s:4694   .debug_str:000000000000049e .LASF7
     /tmp/ccEAUEgO.s:4798   .debug_str:0000000000000850 .LASF8
     /tmp/ccEAUEgO.s:4636   .debug_str:00000000000002a7 .LASF9
     /tmp/ccEAUEgO.s:4734   .debug_str:00000000000005a5 .LASF10
     /tmp/ccEAUEgO.s:4786   .debug_str:00000000000007fa .LASF11
     /tmp/ccEAUEgO.s:4568   .debug_str:00000000000000f2 .LASF12
     /tmp/ccEAUEgO.s:4540   .debug_str:0000000000000031 .LASF13
     /tmp/ccEAUEgO.s:4582   .debug_str:0000000000000161 .LASF14
     /tmp/ccEAUEgO.s:4756   .debug_str:000000000000065a .LASF15
     /tmp/ccEAUEgO.s:4600   .debug_str:00000000000001c9 .LASF16
     /tmp/ccEAUEgO.s:4532   .debug_str:0000000000000000 .LASF17
     /tmp/ccEAUEgO.s:4836   .debug_str:000000000000096d .LASF27
     /tmp/ccEAUEgO.s:4658   .debug_str:0000000000000371 .LASF18
     /tmp/ccEAUEgO.s:4700   .debug_str:00000000000004c5 .LASF19
     /tmp/ccEAUEgO.s:4630   .debug_str:000000000000027b .LASF20
     /tmp/ccEAUEgO.s:4764   .debug_str:000000000000068b .LASF21
     /tmp/ccEAUEgO.s:4834   .debug_str:0000000000000961 .LASF22
     /tmp/ccEAUEgO.s:4554   .debug_str:00000000000000a4 .LASF23
     /tmp/ccEAUEgO.s:4716   .debug_str:0000000000000531 .LASF24
     /tmp/ccEAUEgO.s:4818   .debug_str:00000000000008e7 .LASF25
     /tmp/ccEAUEgO.s:4616   .debug_str:0000000000000220 .LASF26
     /tmp/ccEAUEgO.s:4614   .debug_str:000000000000021a .LASF28
     /tmp/ccEAUEgO.s:4662   .debug_str:000000000000037b .LASF29
     /tmp/ccEAUEgO.s:4574   .debug_str:000000000000012b .LASF37
     /tmp/ccEAUEgO.s:4748   .debug_str:000000000000061c .LASF30
     /tmp/ccEAUEgO.s:4728   .debug_str:000000000000058b .LASF31
     /tmp/ccEAUEgO.s:4732   .debug_str:000000000000059f .LASF32
     /tmp/ccEAUEgO.s:4760   .debug_str:000000000000067b .LASF33
     /tmp/ccEAUEgO.s:4604   .debug_str:00000000000001e5 .LASF34
     /tmp/ccEAUEgO.s:4550   .debug_str:0000000000000073 .LASF35
     /tmp/ccEAUEgO.s:4618   .debug_str:0000000000000226 .LASF36
     /tmp/ccEAUEgO.s:4792   .debug_str:0000000000000833 .LASF38
     /tmp/ccEAUEgO.s:4546   .debug_str:000000000000005b .LASF39
     /tmp/ccEAUEgO.s:4666   .debug_str:0000000000000397 .LASF40
     /tmp/ccEAUEgO.s:4722   .debug_str:0000000000000559 .LASF41
     /tmp/ccEAUEgO.s:4534   .debug_str:0000000000000009 .LASF49
     /tmp/ccEAUEgO.s:4686   .debug_str:0000000000000450 .LASF72
     /tmp/ccEAUEgO.s:4790   .debug_str:0000000000000821 .LASF53
     /tmp/ccEAUEgO.s:4754   .debug_str:000000000000064f .LASF75
     /tmp/ccEAUEgO.s:4578   .debug_str:000000000000013d .LASF77
     /tmp/ccEAUEgO.s:4620   .debug_str:000000000000022e .LASF42
GAS LISTING /tmp/ccEAUEgO.s 			page 33


     /tmp/ccEAUEgO.s:4750   .debug_str:0000000000000623 .LASF44
     /tmp/ccEAUEgO.s:4596   .debug_str:00000000000001bd .LASF43
     /tmp/ccEAUEgO.s:4752   .debug_str:0000000000000638 .LASF45
     /tmp/ccEAUEgO.s:4830   .debug_str:000000000000094a .LASF46
     /tmp/ccEAUEgO.s:4592   .debug_str:000000000000018f .LASF47
     /tmp/ccEAUEgO.s:4746   .debug_str:0000000000000612 .LASF48
     /tmp/ccEAUEgO.s:4678   .debug_str:000000000000041c .LASF50
     /tmp/ccEAUEgO.s:4742   .debug_str:00000000000005ea .LASF51
     /tmp/ccEAUEgO.s:4650   .debug_str:000000000000031f .LASF52
     /tmp/ccEAUEgO.s:4672   .debug_str:00000000000003d9 .LASF54
     /tmp/ccEAUEgO.s:4544   .debug_str:0000000000000048 .LASF61
     /tmp/ccEAUEgO.s:4552   .debug_str:000000000000007c .LASF62
     /tmp/ccEAUEgO.s:4816   .debug_str:00000000000008d9 .LASF66
     /tmp/ccEAUEgO.s:4676   .debug_str:0000000000000406 .LASF68
     /tmp/ccEAUEgO.s:4800   .debug_str:0000000000000860 .LASF55
     /tmp/ccEAUEgO.s:4654   .debug_str:000000000000033f .LASF56
     /tmp/ccEAUEgO.s:4824   .debug_str:000000000000090f .LASF57
     /tmp/ccEAUEgO.s:4558   .debug_str:00000000000000b8 .LASF58
     /tmp/ccEAUEgO.s:4780   .debug_str:0000000000000707 .LASF59
     /tmp/ccEAUEgO.s:4562   .debug_str:00000000000000ca .LASF60
     /tmp/ccEAUEgO.s:4668   .debug_str:00000000000003a2 .LASF63
     /tmp/ccEAUEgO.s:4640   .debug_str:00000000000002c8 .LASF86
     /tmp/ccEAUEgO.s:4774   .debug_str:00000000000006c8 .LASF64
     /tmp/ccEAUEgO.s:4698   .debug_str:00000000000004be .LASF65
     /tmp/ccEAUEgO.s:4828   .debug_str:000000000000093a .LASF67
     /tmp/ccEAUEgO.s:4656   .debug_str:0000000000000359 .LASF69
     /tmp/ccEAUEgO.s:4794   .debug_str:000000000000083e .LASF70
     /tmp/ccEAUEgO.s:4714   .debug_str:000000000000051f .LASF71
     /tmp/ccEAUEgO.s:4670   .debug_str:00000000000003cc .LASF73
     /tmp/ccEAUEgO.s:4738   .debug_str:00000000000005be .LASF74
     /tmp/ccEAUEgO.s:4560   .debug_str:00000000000000c2 .LASF76
     /tmp/ccEAUEgO.s:4706   .debug_str:00000000000004e9 .LASF78
     /tmp/ccEAUEgO.s:4710   .debug_str:0000000000000506 .LASF79
     /tmp/ccEAUEgO.s:4632   .debug_str:0000000000000285 .LASF80
     /tmp/ccEAUEgO.s:4770   .debug_str:00000000000006aa .LASF81
     /tmp/ccEAUEgO.s:4644   .debug_str:00000000000002ed .LASF82
     /tmp/ccEAUEgO.s:4820   .debug_str:00000000000008f0 .LASF149
     /tmp/ccEAUEgO.s:4626   .debug_str:000000000000024d .LASF150
     /tmp/ccEAUEgO.s:4602   .debug_str:00000000000001df .LASF83
     /tmp/ccEAUEgO.s:4638   .debug_str:00000000000002b5 .LASF84
     /tmp/ccEAUEgO.s:4634   .debug_str:0000000000000298 .LASF85
     /tmp/ccEAUEgO.s:4622   .debug_str:0000000000000233 .LASF87
     /tmp/ccEAUEgO.s:4730   .debug_str:0000000000000593 .LASF88
     /tmp/ccEAUEgO.s:4690   .debug_str:0000000000000478 .LASF151
     /tmp/ccEAUEgO.s:4536   .debug_str:0000000000000013 .LASF152
     /tmp/ccEAUEgO.s:4598   .debug_str:00000000000001c4 .LASF89
     /tmp/ccEAUEgO.s:4736   .debug_str:00000000000005b4 .LASF90
     /tmp/ccEAUEgO.s:4726   .debug_str:0000000000000575 .LASF91
     /tmp/ccEAUEgO.s:311    .text._ZN12PeriodicTestD0Ev:0000000000000000 .LFB49
     /tmp/ccEAUEgO.s:335    .text._ZN12PeriodicTestD0Ev:0000000000000028 .LFE49
     /tmp/ccEAUEgO.s:4020   .debug_loc:0000000000000000 .LLST7
     /tmp/ccEAUEgO.s:325    .text._ZN12PeriodicTestD0Ev:0000000000000018 .LVL21
     /tmp/ccEAUEgO.s:4674   .debug_str:00000000000003f0 .LASF92
     /tmp/ccEAUEgO.s:102    .text._ZN12PeriodicTestD2Ev:0000000000000000 .LFB47
     /tmp/ccEAUEgO.s:121    .text._ZN12PeriodicTestD2Ev:0000000000000018 .LFE47
     /tmp/ccEAUEgO.s:4576   .debug_str:0000000000000138 .LASF93
     /tmp/ccEAUEgO.s:660    .text:00000000000001c4 .LFB45
GAS LISTING /tmp/ccEAUEgO.s 			page 34


     /tmp/ccEAUEgO.s:905    .text:0000000000000364 .LFE45
     /tmp/ccEAUEgO.s:4778   .debug_str:00000000000006ff .LASF94
     /tmp/ccEAUEgO.s:4034   .debug_loc:0000000000000039 .LLST19
     /tmp/ccEAUEgO.s:4045   .debug_loc:000000000000006f .LLST20
     /tmp/ccEAUEgO.s:4056   .debug_loc:00000000000000a5 .LLST21
     /tmp/ccEAUEgO.s:706    .text:000000000000022c .LBB79
     /tmp/ccEAUEgO.s:720    .text:0000000000000248 .LBE79
     /tmp/ccEAUEgO.s:4063   .debug_loc:00000000000000c8 .LLST22
     /tmp/ccEAUEgO.s:4071   .debug_loc:00000000000000ec .LLST23
     /tmp/ccEAUEgO.s:4080   .debug_loc:0000000000000118 .LLST24
     /tmp/ccEAUEgO.s:748    .text:0000000000000290 .LBB81
     /tmp/ccEAUEgO.s:782    .text:00000000000002b8 .LBE81
     /tmp/ccEAUEgO.s:4087   .debug_loc:000000000000013b .LLST25
     /tmp/ccEAUEgO.s:4096   .debug_loc:0000000000000160 .LLST26
     /tmp/ccEAUEgO.s:4104   .debug_loc:0000000000000184 .LLST27
     /tmp/ccEAUEgO.s:750    .text:0000000000000290 .LBB83
     /tmp/ccEAUEgO.s:772    .text:00000000000002a4 .LBE83
     /tmp/ccEAUEgO.s:4111   .debug_loc:00000000000001a7 .LLST28
     /tmp/ccEAUEgO.s:4119   .debug_loc:00000000000001cb .LLST29
     /tmp/ccEAUEgO.s:752    .text:0000000000000290 .LBB85
     /tmp/ccEAUEgO.s:762    .text:0000000000000298 .LBE85
     /tmp/ccEAUEgO.s:4126   .debug_loc:00000000000001ee .LLST30
     /tmp/ccEAUEgO.s:791    .text:00000000000002c8 .LBB87
     /tmp/ccEAUEgO.s:824    .text:00000000000002e8 .LBE87
     /tmp/ccEAUEgO.s:4133   .debug_loc:0000000000000211 .LLST31
     /tmp/ccEAUEgO.s:4142   .debug_loc:0000000000000236 .LLST32
     /tmp/ccEAUEgO.s:4150   .debug_loc:000000000000025a .LLST33
     /tmp/ccEAUEgO.s:793    .text:00000000000002c8 .LBB89
     /tmp/ccEAUEgO.s:815    .text:00000000000002dc .LBE89
     /tmp/ccEAUEgO.s:4157   .debug_loc:000000000000027d .LLST34
     /tmp/ccEAUEgO.s:4165   .debug_loc:00000000000002a1 .LLST35
     /tmp/ccEAUEgO.s:795    .text:00000000000002c8 .LBB91
     /tmp/ccEAUEgO.s:805    .text:00000000000002d0 .LBE91
     /tmp/ccEAUEgO.s:4172   .debug_loc:00000000000002c4 .LLST36
     /tmp/ccEAUEgO.s:863    .text:0000000000000330 .LBB93
     /tmp/ccEAUEgO.s:871    .text:0000000000000338 .LBE93
     /tmp/ccEAUEgO.s:4179   .debug_loc:00000000000002e7 .LLST37
     /tmp/ccEAUEgO.s:873    .text:0000000000000338 .LBB95
     /tmp/ccEAUEgO.s:880    .text:000000000000033c .LBE95
     /tmp/ccEAUEgO.s:4186   .debug_loc:000000000000030a .LLST38
     /tmp/ccEAUEgO.s:680    .text:00000000000001e8 .LVL55
     /tmp/ccEAUEgO.s:688    .text:0000000000000208 .LVL56
     /tmp/ccEAUEgO.s:692    .text:0000000000000210 .LVL57
     /tmp/ccEAUEgO.s:696    .text:0000000000000218 .LVL58
     /tmp/ccEAUEgO.s:700    .text:0000000000000220 .LVL59
     /tmp/ccEAUEgO.s:705    .text:000000000000022c .LVL60
     /tmp/ccEAUEgO.s:726    .text:0000000000000254 .LVL62
     /tmp/ccEAUEgO.s:734    .text:0000000000000270 .LVL63
     /tmp/ccEAUEgO.s:740    .text:0000000000000280 .LVL64
     /tmp/ccEAUEgO.s:745    .text:000000000000028c .LVL65
     /tmp/ccEAUEgO.s:788    .text:00000000000002c4 .LVL71
     /tmp/ccEAUEgO.s:830    .text:00000000000002f4 .LVL77
     /tmp/ccEAUEgO.s:835    .text:0000000000000300 .LVL78
     /tmp/ccEAUEgO.s:840    .text:000000000000030c .LVL79
     /tmp/ccEAUEgO.s:852    .text:0000000000000320 .LVL81
     /tmp/ccEAUEgO.s:858    .text:000000000000032c .LVL83
     /tmp/ccEAUEgO.s:177    .text._ZN12PeriodicTest18periodicActivationEv:0000000000000000 .LFB44
GAS LISTING /tmp/ccEAUEgO.s 			page 35


     /tmp/ccEAUEgO.s:209    .text._ZN12PeriodicTest18periodicActivationEv:0000000000000038 .LFE44
     /tmp/ccEAUEgO.s:4193   .debug_loc:000000000000032d .LLST3
     /tmp/ccEAUEgO.s:198    .text._ZN12PeriodicTest18periodicActivationEv:0000000000000028 .LVL12
     /tmp/ccEAUEgO.s:4776   .debug_str:00000000000006e8 .LASF95
     /tmp/ccEAUEgO.s:4788   .debug_str:0000000000000809 .LASF96
     /tmp/ccEAUEgO.s:4688   .debug_str:0000000000000460 .LASF97
     /tmp/ccEAUEgO.s:4586   .debug_str:0000000000000173 .LASF98
     /tmp/ccEAUEgO.s:4642   .debug_str:00000000000002e2 .LASF99
     /tmp/ccEAUEgO.s:535    .text:0000000000000108 .LFB36
     /tmp/ccEAUEgO.s:649    .text:00000000000001c4 .LFE36
     /tmp/ccEAUEgO.s:4211   .debug_loc:0000000000000379 .LLST14
     /tmp/ccEAUEgO.s:551    .text:000000000000011c .LBB70
     /tmp/ccEAUEgO.s:624    .text:000000000000019c .LBE70
     /tmp/ccEAUEgO.s:4225   .debug_loc:00000000000003b2 .LLST15
     /tmp/ccEAUEgO.s:4237   .debug_loc:00000000000003e9 .LLST16
     /tmp/ccEAUEgO.s:4249   .debug_loc:0000000000000420 .LLST17
     /tmp/ccEAUEgO.s:614    .text:0000000000000194 .LVL51
     /tmp/ccEAUEgO.s:626    .text:000000000000019c .LBB77
     /tmp/ccEAUEgO.s:635    .text:00000000000001b0 .LBE77
     /tmp/ccEAUEgO.s:4256   .debug_loc:0000000000000443 .LLST18
     /tmp/ccEAUEgO.s:633    .text:00000000000001b0 .LVL53
     /tmp/ccEAUEgO.s:4584   .debug_str:000000000000016d .LASF100
     /tmp/ccEAUEgO.s:4606   .debug_str:00000000000001ec .LASF101
     /tmp/ccEAUEgO.s:466    .text:00000000000000a4 .LFB35
     /tmp/ccEAUEgO.s:529    .text:0000000000000108 .LFE35
     /tmp/ccEAUEgO.s:4264   .debug_loc:000000000000046e .LLST12
     /tmp/ccEAUEgO.s:483    .text:00000000000000b8 .LBB69
     /tmp/ccEAUEgO.s:515    .text:00000000000000f4 .LBE69
     /tmp/ccEAUEgO.s:4278   .debug_loc:00000000000004a7 .LLST13
     /tmp/ccEAUEgO.s:492    .text:00000000000000c8 .LVL40
     /tmp/ccEAUEgO.s:497    .text:00000000000000d0 .LVL41
     /tmp/ccEAUEgO.s:509    .text:00000000000000e8 .LVL43
     /tmp/ccEAUEgO.s:4588   .debug_str:0000000000000179 .LASF102
     /tmp/ccEAUEgO.s:4692   .debug_str:0000000000000493 .LASF103
     /tmp/ccEAUEgO.s:398    .text:0000000000000044 .LFB34
     /tmp/ccEAUEgO.s:460    .text:00000000000000a4 .LFE34
     /tmp/ccEAUEgO.s:4290   .debug_loc:00000000000004de .LLST9
     /tmp/ccEAUEgO.s:4682   .debug_str:0000000000000437 .LASF104
     /tmp/ccEAUEgO.s:4308   .debug_loc:000000000000052a .LLST10
     /tmp/ccEAUEgO.s:4324   .debug_loc:0000000000000574 .LLST11
     /tmp/ccEAUEgO.s:430    .text:0000000000000078 .LVL31
     /tmp/ccEAUEgO.s:435    .text:0000000000000084 .LVL32
     /tmp/ccEAUEgO.s:4806   .debug_str:0000000000000894 .LASF105
     /tmp/ccEAUEgO.s:4538   .debug_str:0000000000000023 .LASF106
     /tmp/ccEAUEgO.s:130    .text:0000000000000000 .LFB33
     /tmp/ccEAUEgO.s:170    .text:0000000000000044 .LFE33
     /tmp/ccEAUEgO.s:4342   .debug_loc:00000000000005c0 .LLST2
     /tmp/ccEAUEgO.s:152    .text:0000000000000024 .LVL8
     /tmp/ccEAUEgO.s:216    .text._ZN14PeriodicThread3runEv:0000000000000000 .LFB21
     /tmp/ccEAUEgO.s:273    .text._ZN14PeriodicThread3runEv:0000000000000054 .LFE21
     /tmp/ccEAUEgO.s:4360   .debug_loc:000000000000060c .LLST4
     /tmp/ccEAUEgO.s:248    .text._ZN14PeriodicThread3runEv:0000000000000030 .LBB67
     /tmp/ccEAUEgO.s:259    .text._ZN14PeriodicThread3runEv:0000000000000040 .LBE67
     /tmp/ccEAUEgO.s:4378   .debug_loc:0000000000000658 .LLST5
     /tmp/ccEAUEgO.s:254    .text._ZN14PeriodicThread3runEv:000000000000003c .LVL16
     /tmp/ccEAUEgO.s:246    .text._ZN14PeriodicThread3runEv:0000000000000030 .LVL15
     /tmp/ccEAUEgO.s:4628   .debug_str:0000000000000263 .LASF107
GAS LISTING /tmp/ccEAUEgO.s 			page 36


     /tmp/ccEAUEgO.s:64     .text._ZN6Thread11threadEntryEPv:0000000000000000 .LFB15
     /tmp/ccEAUEgO.s:95     .text._ZN6Thread11threadEntryEPv:000000000000002c .LFE15
     /tmp/ccEAUEgO.s:4386   .debug_loc:000000000000067c .LLST0
     /tmp/ccEAUEgO.s:4702   .debug_str:00000000000004d0 .LASF108
     /tmp/ccEAUEgO.s:4400   .debug_loc:00000000000006b5 .LLST1
     /tmp/ccEAUEgO.s:84     .text._ZN6Thread11threadEntryEPv:000000000000001c .LVL4
     /tmp/ccEAUEgO.s:39     .text._ZN6Thread3runEv:0000000000000000 .LFB14
     /tmp/ccEAUEgO.s:57     .text._ZN6Thread3runEv:0000000000000018 .LFE14
     /tmp/ccEAUEgO.s:4802   .debug_str:000000000000086f .LASF109
     /tmp/ccEAUEgO.s:4660   .debug_str:0000000000000376 .LASF110
     /tmp/ccEAUEgO.s:342    .text._ZN6Thread5startEv:0000000000000000 .LFB7
     /tmp/ccEAUEgO.s:391    .text._ZN6Thread5startEv:0000000000000054 .LFE7
     /tmp/ccEAUEgO.s:4414   .debug_loc:00000000000006ee .LLST8
     /tmp/ccEAUEgO.s:365    .text._ZN6Thread5startEv:0000000000000028 .LVL24
     /tmp/ccEAUEgO.s:387    .text._ZN6Thread5startEv:0000000000000050 .LVL27
     /tmp/ccEAUEgO.s:4548   .debug_str:0000000000000064 .LASF111
     /tmp/ccEAUEgO.s:280    .text._ZN6ThreadD0Ev:0000000000000000 .LFB6
     /tmp/ccEAUEgO.s:304    .text._ZN6ThreadD0Ev:0000000000000028 .LFE6
     /tmp/ccEAUEgO.s:4449   .debug_loc:0000000000000778 .LLST6
     /tmp/ccEAUEgO.s:294    .text._ZN6ThreadD0Ev:0000000000000018 .LVL19
     /tmp/ccEAUEgO.s:4782   .debug_str:0000000000000727 .LASF112
     /tmp/ccEAUEgO.s:11     .text._ZN6ThreadD2Ev:0000000000000000 .LFB4
     /tmp/ccEAUEgO.s:30     .text._ZN6ThreadD2Ev:0000000000000018 .LFE4
     /tmp/ccEAUEgO.s:4648   .debug_str:0000000000000308 .LASF113
     /tmp/ccEAUEgO.s:4542   .debug_str:0000000000000041 .LASF114
     /tmp/ccEAUEgO.s:4610   .debug_str:0000000000000205 .LASF116
     /tmp/ccEAUEgO.s:4822   .debug_str:00000000000008f9 .LASF115
     /tmp/ccEAUEgO.s:4814   .debug_str:00000000000008c8 .LASF117
     /tmp/ccEAUEgO.s:4804   .debug_str:000000000000087e .LASF118
     /tmp/ccEAUEgO.s:4832   .debug_str:0000000000000953 .LASF119
     /tmp/ccEAUEgO.s:4772   .debug_str:00000000000006af .LASF120
     /tmp/ccEAUEgO.s:4704   .debug_str:00000000000004d5 .LASF121
     /tmp/ccEAUEgO.s:4572   .debug_str:0000000000000118 .LASF122
     /tmp/ccEAUEgO.s:4708   .debug_str:00000000000004f8 .LASF123
     /tmp/ccEAUEgO.s:4812   .debug_str:00000000000008b1 .LASF124
     /tmp/ccEAUEgO.s:4580   .debug_str:000000000000014f .LASF125
     /tmp/ccEAUEgO.s:4762   .debug_str:0000000000000685 .LASF126
     /tmp/ccEAUEgO.s:4810   .debug_str:00000000000008a4 .LASF127
     /tmp/ccEAUEgO.s:4720   .debug_str:000000000000054b .LASF128
     /tmp/ccEAUEgO.s:4808   .debug_str:000000000000089d .LASF129
     /tmp/ccEAUEgO.s:4744   .debug_str:0000000000000602 .LASF130
     /tmp/ccEAUEgO.s:4646   .debug_str:00000000000002ff .LASF131
     /tmp/ccEAUEgO.s:4624   .debug_str:0000000000000244 .LASF132
     /tmp/ccEAUEgO.s:4768   .debug_str:00000000000006a5 .LASF133
     /tmp/ccEAUEgO.s:4566   .debug_str:00000000000000e9 .LASF134
     /tmp/ccEAUEgO.s:4612   .debug_str:0000000000000215 .LASF135
     /tmp/ccEAUEgO.s:4570   .debug_str:0000000000000102 .LASF136
     /tmp/ccEAUEgO.s:4796   .debug_str:0000000000000845 .LASF137
     /tmp/ccEAUEgO.s:4684   .debug_str:000000000000043f .LASF138
     /tmp/ccEAUEgO.s:4556   .debug_str:00000000000000ac .LASF139
     /tmp/ccEAUEgO.s:4740   .debug_str:00000000000005d5 .LASF140
     /tmp/ccEAUEgO.s:4590   .debug_str:000000000000017f .LASF141
     /tmp/ccEAUEgO.s:4826   .debug_str:000000000000092a .LASF142
     /tmp/ccEAUEgO.s:4758   .debug_str:0000000000000670 .LASF143
     /tmp/ccEAUEgO.s:4594   .debug_str:0000000000000197 .LASF144
     /tmp/ccEAUEgO.s:4608   .debug_str:00000000000001f7 .LASF145
     /tmp/ccEAUEgO.s:314    .text._ZN12PeriodicTestD0Ev:0000000000000000 .LVL20
GAS LISTING /tmp/ccEAUEgO.s 			page 37


     /tmp/ccEAUEgO.s:780    .text:00000000000002b8 .LVL69
     /tmp/ccEAUEgO.s:786    .text:00000000000002bc .LVL70
     /tmp/ccEAUEgO.s:900    .text:000000000000035c .LVL89
     /tmp/ccEAUEgO.s:822    .text:00000000000002e8 .LVL75
     /tmp/ccEAUEgO.s:828    .text:00000000000002ec .LVL76
     /tmp/ccEAUEgO.s:897    .text:0000000000000358 .LVL88
     /tmp/ccEAUEgO.s:844    .text:0000000000000310 .LVL80
     /tmp/ccEAUEgO.s:894    .text:0000000000000354 .LVL87
     /tmp/ccEAUEgO.s:718    .text:0000000000000248 .LVL61
     /tmp/ccEAUEgO.s:747    .text:0000000000000290 .LVL66
     /tmp/ccEAUEgO.s:770    .text:00000000000002a4 .LVL68
     /tmp/ccEAUEgO.s:760    .text:0000000000000298 .LVL67
     /tmp/ccEAUEgO.s:790    .text:00000000000002c8 .LVL72
     /tmp/ccEAUEgO.s:813    .text:00000000000002dc .LVL74
     /tmp/ccEAUEgO.s:803    .text:00000000000002d0 .LVL73
     /tmp/ccEAUEgO.s:862    .text:0000000000000330 .LVL84
     /tmp/ccEAUEgO.s:869    .text:0000000000000338 .LVL85
     /tmp/ccEAUEgO.s:878    .text:000000000000033c .LVL86
     /tmp/ccEAUEgO.s:180    .text._ZN12PeriodicTest18periodicActivationEv:0000000000000000 .LVL10
     /tmp/ccEAUEgO.s:193    .text._ZN12PeriodicTest18periodicActivationEv:0000000000000018 .LVL11
     /tmp/ccEAUEgO.s:538    .text:0000000000000108 .LVL45
     /tmp/ccEAUEgO.s:555    .text:0000000000000124 .LVL47
     /tmp/ccEAUEgO.s:550    .text:000000000000011c .LVL46
     /tmp/ccEAUEgO.s:644    .text:00000000000001bc .LVL54
     /tmp/ccEAUEgO.s:602    .text:0000000000000174 .LVL50
     /tmp/ccEAUEgO.s:620    .text:000000000000019c .LVL52
     /tmp/ccEAUEgO.s:586    .text:000000000000015c .LVL49
     /tmp/ccEAUEgO.s:469    .text:00000000000000a4 .LVL37
     /tmp/ccEAUEgO.s:487    .text:00000000000000c0 .LVL39
     /tmp/ccEAUEgO.s:481    .text:00000000000000b8 .LVL38
     /tmp/ccEAUEgO.s:524    .text:0000000000000100 .LVL44
     /tmp/ccEAUEgO.s:401    .text:0000000000000044 .LVL28
     /tmp/ccEAUEgO.s:420    .text:0000000000000064 .LVL30
     /tmp/ccEAUEgO.s:455    .text:000000000000009c .LVL36
     /tmp/ccEAUEgO.s:416    .text:0000000000000060 .LVL29
     /tmp/ccEAUEgO.s:439    .text:0000000000000088 .LVL33
     /tmp/ccEAUEgO.s:442    .text:000000000000008c .LVL34
     /tmp/ccEAUEgO.s:452    .text:0000000000000098 .LVL35
     /tmp/ccEAUEgO.s:133    .text:0000000000000000 .LVL6
     /tmp/ccEAUEgO.s:147    .text:000000000000001c .LVL7
     /tmp/ccEAUEgO.s:166    .text:0000000000000040 .LVL9
     /tmp/ccEAUEgO.s:219    .text._ZN14PeriodicThread3runEv:0000000000000000 .LVL13
     /tmp/ccEAUEgO.s:231    .text._ZN14PeriodicThread3runEv:0000000000000018 .LVL14
     /tmp/ccEAUEgO.s:268    .text._ZN14PeriodicThread3runEv:000000000000004c .LVL17
     /tmp/ccEAUEgO.s:67     .text._ZN6Thread11threadEntryEPv:0000000000000000 .LVL2
     /tmp/ccEAUEgO.s:77     .text._ZN6Thread11threadEntryEPv:0000000000000010 .LVL3
     /tmp/ccEAUEgO.s:345    .text._ZN6Thread5startEv:0000000000000000 .LVL22
     /tmp/ccEAUEgO.s:363    .text._ZN6Thread5startEv:0000000000000020 .LVL23
     /tmp/ccEAUEgO.s:377    .text._ZN6Thread5startEv:0000000000000038 .LVL25
     /tmp/ccEAUEgO.s:385    .text._ZN6Thread5startEv:0000000000000048 .LVL26
     /tmp/ccEAUEgO.s:283    .text._ZN6ThreadD0Ev:0000000000000000 .LVL18
     /tmp/ccEAUEgO.s:971    .debug_info:0000000000000000 .Ldebug_info0
     /tmp/ccEAUEgO.s:5      .text:0000000000000000 .Ltext0
     /tmp/ccEAUEgO.s:960    .text:0000000000000364 .Letext0
     /tmp/ccEAUEgO.s:558    .text:0000000000000124 .LBB72
     /tmp/ccEAUEgO.s:598    .text:0000000000000170 .LBE72
     /tmp/ccEAUEgO.s:616    .text:0000000000000194 .LBB75
GAS LISTING /tmp/ccEAUEgO.s 			page 38


     /tmp/ccEAUEgO.s:622    .text:000000000000019c .LBE75
     /tmp/ccEAUEgO.s:559    .text:0000000000000124 .LBB73
     /tmp/ccEAUEgO.s:583    .text:0000000000000158 .LBE73
     /tmp/ccEAUEgO.s:592    .text:0000000000000168 .LBB74
     /tmp/ccEAUEgO.s:597    .text:0000000000000170 .LBE74
                           .group:0000000000000000 _ZN6ThreadD5Ev
                           .group:0000000000000000 _ZN12PeriodicTestD5Ev

UNDEFINED SYMBOLS
_Z15thread_dispatchv
_Z4putcc
_Z10time_sleepm
_ZdlPv
_Z13thread_createPP8thread_sPFvPvES2_
_Z11thread_exitv
_Z10sem_signalP5sem_s
_Z16kern_thread_initv
HEAP_END_ADDR
HEAP_START_ADDR
_Z13kern_mem_initPvS_
_Z19kern_interrupt_initv
_Z13kern_sem_initv
_Z17kern_console_initv
_Znwm
_Z6printfPKcz
_Z8bba_initPcS_
_Z4getcv
